
There are no discarded input sections

Memory Configuration

Name             Origin             Length             Attributes
*default*        0x00000000         0xffffffff

Linker script and memory map

                0x80906af0                        RealWmPlayerDtor = 0x80906af0
                0x80a709e0                        callFooDeath = 0x80a709e0
                0x80922e38                        ContinueFromLoadingCRSIN = 0x80922e38
                0x80993024                        SI_Kinoko = 0x80993024
                0x80993030                        SI_Fireflower = 0x80993030
                0x80993040                        SI_Propeller = 0x80993040
                0x80993050                        SI_Iceflower = 0x80993050
                0x80993060                        SI_Penguin = 0x80993060
                0x80993070                        SI_Star = 0x80993070
                0x80316880                        originalSprites = 0x80316880
                0x8076a748                        originalProfiles = 0x8076a748
                0x80437058                        ObjectProfileList = 0x80437058
                0x80327074                        spriteFiles = 0x80327074
                0x8032d0c8                        profileNames = 0x8032d0c8
                0x80436c78                        instance__7StageC4 = 0x80436c78
                0x8023b8a0                        GetResNodeNumEntries__Q34nw4r3g3d6ResMdlCFv = 0x8023b8a0
                0x801d5a80                        MEMAllocFromAllocator = 0x801d5a80
                0x8035b3b0                        __vt__Q34nw4r3g3d9AnmObjChr = 0x8035b3b0
                0x8035b2a8                        __vt__Q34nw4r3g3d12AnmObjChrRes = 0x8035b2a8
                0x80241bd0                        GetAnmResult__Q34nw4r3g3d9ResAnmChrCFPQ34nw4r3g3d12ChrAnmResultUlf = 0x80241bd0
                0x800d5ee0                        StartAnimOrig = 0x800d5ee0
                0x8014be30                        YoshiStateOrig = 0x8014be30
                0x80234fc0                        Exception_Printf___Q24nw4r2dbFPCce = 0x80234fc0
                0x8083dd44                        ContinueFromFuckLineLiftActivation = 0x8083dd44
                0x8099e1f0                        GabonRock_DropOutState = 0x8099e1f0
                0x8099e1b0                        GabonRock_CrushState = 0x8099e1b0
                0x8001df40                        forceHCGROPushBack = 0x8001df40
                0x8001df38                        continueFromHCGRO = 0x8001df38
                0x8043462e                        DanceValues_AnimSpeed = 0x8043462e
                0x80436a09                        DanceValues_DummyBlockAndGrass = 0x80436a09
                0x80436a0a                        DanceValues_Bahps = 0x80436a0a
                0x80436a0b                        DanceValues_CreditsControl = 0x80436a0b
                0x80436ebf                        CreditsModeActive = 0x80436ebf
                0x800d91d0                        GetRail = 0x800d91d0
                0x80436ca8                        instance__7Stage80 = 0x80436ca8
                0x80060394                        continueAddToCoinCount = 0x80060394
                0x800b36c4                        continueAddToScore = 0x800b36c4
                0x800b5290                        StaffCreditsAddCoin = 0x800b5290
                0x802bc904                        ContinueFromEFBMagic2 = 0x802bc904
                0x80abc370                        TogeTekkyuIceballCollision = 0x80abc370
                0x80437148                        _8042A788 = 0x80437148
                0x8019c790                        sub_8019C390 = 0x8019c790
                0x80b91930                        StateID_Wait__24daEnBossKoopaDemoPeach_c = 0x80b91930
                0x80b91970                        StateID_Call__24daEnBossKoopaDemoPeach_c = 0x80b91970
                0x80b919b0                        StateID_Turn__24daEnBossKoopaDemoPeach_c = 0x80b919b0
                0x80b919f0                        StateID_Open__24daEnBossKoopaDemoPeach_c = 0x80b919f0
                0x80b91a30                        StateID_Rescue__24daEnBossKoopaDemoPeach_c = 0x80b91a30
                0x80b91a70                        StateID_Thank__24daEnBossKoopaDemoPeach_c = 0x80b91a70
                0x8030dd44                        __vt__12daBossDemo_c = 0x8030dd44
                0x8001cd20                        onExecute__12daBossDemo_cFv = 0x8001cd20
                0x8001cd60                        onDraw__12daBossDemo_cFv = 0x8001cd60
                0x8001cd70                        willBeDeleted__12daBossDemo_cFv = 0x8001cd70
                0x8001cd80                        onDelete__12daBossDemo_cFv = 0x8001cd80
                0x8001d200                        endState_BattleEdDemo__12daBossDemo_cFv = 0x8001d200
                0x8001d210                        executeState_BattleEdDemo__12daBossDemo_cFv = 0x8001d210
                0x8001d1f0                        beginState_BattleEdDemo__12daBossDemo_cFv = 0x8001d1f0
                0x8001d170                        endState_BattleIn__12daBossDemo_cFv = 0x8001d170
                0x8001d180                        executeState_BattleIn__12daBossDemo_cFv = 0x8001d180
                0x8001d100                        beginState_BattleIn__12daBossDemo_cFv = 0x8001d100
                0x8001d0e0                        endState_BattleStDemo__12daBossDemo_cFv = 0x8001d0e0
                0x8001d0f0                        executeState_BattleStDemo__12daBossDemo_cFv = 0x8001d0f0
                0x8001d0d0                        beginState_BattleStDemo__12daBossDemo_cFv = 0x8001d0d0
                0x8001cfd0                        endState_Ready__12daBossDemo_cFv = 0x8001cfd0
                0x8001cfe0                        executeState_Ready__12daBossDemo_cFv = 0x8001cfe0
                0x8001cfc0                        beginState_Ready__12daBossDemo_cFv = 0x8001cfc0
                0x8001ce70                        beatLevel__12daBossDemo_cFv = 0x8001ce70
                0x8001ceb0                        exitLevel__12daBossDemo_cFv = 0x8001ceb0
                0x80436a28                        instance__19BalloonRelatedClass = 0x80436a28
                0x802f1990                        PlayerAnimStates = 0x802f1990
                0x8011ac00                        ContinueFromFixFireballSensorSetup = 0x8011ac00
                0x800b3960                        GetPosForLayoutEffect__FP7Point3db = 0x800b3960
                0x80a1794c                        ContinueFromJustOneBomb = 0x80a1794c
                0x8015fa30                        SmoothRotation__FPsss = 0x8015fa30
                0x80823520                        KazanRock_OriginalCollisionCallback = 0x80823520
                0x80823290                        KazanRock_Explode = 0x80823290
                0x8005fcd0                        GetPlayerOrYoshi__Fi = 0x8005fcd0
                0x8005fcd0                        findByID__10daPlBase_cFi = 0x8005fcd0
                0x8005fa40                        findByID__7dAcPy_cFi = 0x8005fa40
                0x80052000                        justFaceSpecificDirection__10daPlBase_cFi = 0x80052000
                0x80052150                        moveInDirection__10daPlBase_cFPfPf = 0x80052150
                0x80139e60                        getYoshi__7dAcPy_cFv = 0x80139e60
                0x80052240                        setAnimePlayWithAnimID__10daPlBase_cFi = 0x80052240
                0x80052360                        setAnimePlayStandardType__10daPlBase_cFi = 0x80052360
                0x8005e4b0                        setFlag__14dPlayerInput_cFQ214dPlayerInput_c5Flags = 0x8005e4b0
                0x8005ea10                        setPermanentForcedButtons__14dPlayerInput_cFUi = 0x8005ea10
                0x8005ea60                        setTransientForcedButtons__14dPlayerInput_cFUi = 0x8005ea60
                0x8005ea30                        unsetPermanentForcedButtons__14dPlayerInput_cFUi = 0x8005ea30
                0x80056d50                        setFlag__10daPlBase_cFi = 0x80056d50
                0x80056d90                        clearFlag__10daPlBase_cFi = 0x80056d90
                0x80056dd0                        testFlag__10daPlBase_cFi = 0x80056dd0
                0x80052100                        isReadyForDemoControlAction__10daPlBase_cFv = 0x80052100
                0x80436da0                        instance__15dWaterManager_c = 0x80436da0
                0x800eba40                        queryPosition__15dWaterManager_cFP7Point2dP7Point2dPfPsi = 0x800eba40
                0x800a0df0                        OriginalPowBlockActivated = 0x800a0df0
                0x80002eee                        isReplayEnabled = 0x80002eee
                0x800b4650                        UpdateSelectCursor = 0x800b4650
                0x8010cde0                        HideSelectCursor = 0x8010cde0
                0x80436f68                        SelectCursorPointer = 0x80436f68
                0x807b3c60                        getIconPictureIDforPlayer__12dStockItem_cFi = 0x807b3c60
                0x800b3460                        CrapUpPositions__FP7Point3dPC7Point3d = 0x800b3460
                0x800fca34                        ContinueFromCalcPowerupResult = 0x800fca34
                0x800fc9fc                        ContinueFromFixCalcPowerupResultForMushroom = 0x800fc9fc
                0x807b3a78                        ContinueFromSILayoutExtraStuffs = 0x807b3a78
                0x807b4c0c                        ContinueFromResetHammerAnimOnOpen = 0x807b4c0c
                0x807b3910                        ContinueFromHideItemsByDefault = 0x807b3910
                0x807b4914                        MakeSFISound = 0x807b4914
                0x807b4970                        ContinueFromSIAddSound = 0x807b4970
                0x807b4dd4                        ChosenStartChoice = 0x807b4dd4
                0x807b6330                        ContinueFromSISLayoutExtraStuffs = 0x807b6330
                0x807b65f8                        ContinueFromUpdateSIS = 0x807b65f8
                0x80436fb0                        EnemyBounceValue = 0x80436fb0
                0x80163240                        search__7fBase_cFUi = 0x80163240
                0x80163290                        search__7fBase_cF6ActorsP7fBase_c = 0x80163290
                0x801632f0                        searchByBaseType__7fBase_cFiP7fBase_c = 0x801632f0
                0x800bb3f0                        AddStockPowerup = 0x800bb3f0
                0x808af250                        continueFromStrongBox2 = 0x808af250
                0x808ae758                        continueFromStrongBox = 0x808ae758
                0x80437148                        _8042A788 = 0x80437148
                0x8019c790                        playFanfare__FPvi = 0x8019c790
                0x8019cf30                        somethingAboutSound__FPv = 0x8019cf30
                0x802633d0                        AxVoice_SetADPCM = 0x802633d0
                0x80281e90                        Voice_SetADPCMLoop = 0x80281e90
                0x8027a740                        DetachSound__Q34nw4r3snd11SoundHandleFv = 0x8027a740
                0x80266980                        Pause__Q44nw4r3snd6detail10BasicSoundFbi = 0x80266980
                0x80266790                        Stop__Q44nw4r3snd6detail10BasicSoundFi = 0x80266790
                0x802679f0                        SetPitch__Q44nw4r3snd6detail10BasicSoundFf = 0x802679f0
                0x80267960                        SetVolume__Q44nw4r3snd6detail10BasicSoundFfi = 0x80267960
                0x8027fdd0                        StrmSound_SetTrackVolume = 0x8027fdd0
                0x80436e50                        DontShowPreGame = 0x80436e50
                0x80380a60                        RESTART_CRSIN_LevelStartStruct = 0x80380a60
                0x800ca684                        DrawTheFuckingHat = 0x800ca684
                0x800ca6b8                        DontDrawTheFuckingHat = 0x800ca6b8
                0x8004e0c0                        continueFromMpPauseFix1 = 0x8004e0c0
                0x80141970                        continueFromMpPauseFix2 = 0x80141970
                0x80141674                        continueFromMpPauseFix3 = 0x80141674
                0x800fcae0                        CheckIfSinglePlayer = 0x800fcae0
                0x800e598c                        TextWriterCrapContinue = 0x800e598c
                0x8092acf0                        StockWMInit_LoadEffects__FPv = 0x8092acf0
                0x80093660                        CleanUpEffectThings__Fv = 0x80093660
                0x80093610                        FreeEffects__Fi = 0x80093610
                0x800932b0                        FreeBreff__Fi = 0x800932b0
                0x800932f0                        FreeBreft__Fi = 0x800932f0
                0x80092f70                        __dt__18BGGMEffectRendererFv = 0x80092f70
                0x8031de48                        __vt__18BGGMEffectRenderer = 0x8031de48
                0x802dcee0                        __construct_array = 0x802dcee0
                0x800cdd70                        GetBMG__Fv = 0x800cdd70
                0x802d7da0                        findStringForMessageID__Q23EGG6MsgResCFii = 0x802d7da0
                0x800c9b70                        WriteBMGToTextBox__FPQ34nw4r3lyt7TextBoxPQ27dScript5Res_ciiie = 0x800c9b70
                0x801648f0                        m2d__Anm_c__Load = 0x801648f0
                0x801643a0                        m2d__AnmResHandler_c__Load = 0x801643a0
                0x80144bf0                        RealAcPyDtor = 0x80144bf0
                0x808c9780                        RealWm2dPlayerDtor = 0x808c9780
                0x800b3d60                        InsertIntIntoTextBox1 = 0x800b3d60
                0x800b3ce0                        WriteNumberToTextBox__FPiPCiPQ34nw4r3lyt7TextBoxb = 0x800b3ce0
                0x800b3d60                        WriteNumberToTextBox__FPiPQ34nw4r3lyt7TextBoxb = 0x800b3d60
                0x80814550                        __ct__20daJrClownForPlayer_cFv = 0x80814550
                0x80814610                        __dt__20daJrClownForPlayer_cFv = 0x80814610
                0x800a3780                        PClownCarExecute = 0x800a3780
                0x80095310                        PClownCarAfterCreate = 0x80095310
                0x80814c60                        PClownCarDraw = 0x80814c60
                0x80815f40                        PClownCarMove = 0x80815f40
                0x808161d4                        ContinueFromClownCarDetectAdjacent = 0x808161d4
                0x8043af78                        sAllocatorFunc__FrmHeap = 0x8043af78
                0x800600f0                        GetActivePlayerCount = 0x800600f0
                0x800600f0                        GetCountofActivePlayers = 0x800600f0
                0x80060030                        GetActiveLivingPlayerCount = 0x80060030
                0x80082380                        getEffectiveScreenLeft__19ClassWithCameraInfoFv = 0x80082380
                0x80436aa0                        instance__19ClassWithCameraInfo = 0x80436aa0
                0x8005b6b0                        BowserExitDemoState = 0x8005b6b0
                0x807d0ee0                        MagicEnd = 0x807d0ee0
                0x80808750                        KeyLoopSet = 0x80808750
                0x809b7dc0                        BigHanaPlayer = 0x809b7dc0
                0x809b7fd0                        BigHanaYoshi = 0x809b7fd0
                0x809b8280                        BigHanaWeirdGP = 0x809b8280
                0x809b81f0                        BigHanaGroundPound = 0x809b81f0
                0x809b8f50                        BigHanaFireball = 0x809b8f50
                0x809b8f20                        BigHanaIceball = 0x809b8f20
                0x80146600                        dAcPy_vf3F4 = 0x80146600
                0x801466e0                        dAcPy_vf3F8 = 0x801466e0
                0x80146de0                        dAcPy_vf3FC = 0x80146de0
                0x80047400                        dAcPy_vf294 = 0x80047400
                0x809e3080                        Cloud_death_execute = 0x809e3080
                0x809e5240                        Cloud_execute = 0x809e5240
                0x80437008                        GlobalTickCount = 0x80437008
                0x8005fa40                        GetSpecificPlayerActor = 0x8005fa40
                0x80163240                        Actor_SearchByID = 0x80163240
                0x8043699a                        TimeStopFlag = 0x8043699a
                0x800e3ad8                        TimerBranch = 0x800e3ad8
                0x80438504                        MarioDescentRate = 0x80438504
                0x802f5c74                        MarioJumpArc = 0x802f5c74
                0x804384e8                        MarioJumpMax = 0x804384e8
                0x802f5cbc                        MiniMarioJumpArc = 0x802f5cbc
                0x80438514                        MarioSize = 0x80438514
                0x80064680                        AlwaysDrawFlag = 0x80064680
                0x80064684                        AlwaysDrawBranch = 0x80064684
                0x800b3060                        GenerateRandomNumber = 0x800b3060
                0x800ce9d0                        OneofManySoundPlayers = 0x800ce9d0
                0x80b18068                        BombSleepState = 0x80b18068
                0x800a0c88                        NoFreezie = 0x800a0c88
                0x80436d10                        GameTimer = 0x80436d10
                0x80d2b1d8                        GameTimerB = 0x80d2b1d8
                0x80438428                        EightyPointZero = 0x80438428
                0x80439700                        OneHundredPointZero = 0x80439700
                0x800e1f70                        DoSceneChange__FUsUiUi = 0x800e1f70
                0x802380e0                        FrSqrt__Q24nw4r4mathFf = 0x802380e0
                0x80238110                        SinFIdx__Q24nw4r4mathFf = 0x80238110
                0x80238180                        CosFIdx__Q24nw4r4mathFf = 0x80238180
                0x802381e0                        SinCosFIdx__Q24nw4r4mathFPfPff = 0x802381e0
                0x804370ec                        archiveHeap__5mHeap = 0x804370ec
                0x804370f0                        commandHeap__5mHeap = 0x804370f0
                0x804370f4                        dylinkHeap__5mHeap = 0x804370f4
                0x804370f8                        assertHeap__5mHeap = 0x804370f8
                0x80384948                        gameHeaps__5mHeap = 0x80384948
                0x800db290                        init__18StandOnTopColliderFP13dStageActor_cfffffsUcP7Point2d = 0x800db290
                0x800db240                        __ct__18StandOnTopColliderFv = 0x800db240
                0x80044470                        __dt__18StandOnTopColliderFv = 0x80044470
                0x800daf10                        __dt__13BasicColliderFv = 0x800daf10
                0x80436cbc                        globalListHead__13BasicCollider = 0x80436cbc
                0x800daf90                        addToList__13BasicColliderFv = 0x800daf90
                0x800db560                        __ct__21RideableActorColliderFv = 0x800db560
                0x800db5b0                        init__21RideableActorColliderFP13dStageActor_cP7Point2dP7Point2d = 0x800db5b0
                0x800db640                        init__21RideableActorColliderFP13dStageActor_cffff = 0x800db640
                0x800db6a0                        setPosition__21RideableActorColliderFP7Point2dP7Point2d = 0x800db6a0
                0x800db700                        setPosition__21RideableActorColliderFffff = 0x800db700
                0x800bc7c0                        drawWithMatrix__21SomethingAboutShroomsFfP4mMtx = 0x800bc7c0
                0x80883b50                        original_onCreate__13daObjKinoko_cFv = 0x80883b50
                0x80436b38                        instance__13dCourseFull_c = 0x80436b38
                0x8008e9d0                        getRectByID__9dCourse_cFUcP5mRect = 0x8008e9d0
                0x8008e510                        getNextGotoByID__9dCourse_cFUc = 0x8008e510
                0x80057900                        modifyPlayerPropertiesWithRollingObject = 0x80057900
                0x80a5d870                        EN_LandbarrelPlayerCollision = 0x80a5d870
                0x804369e8                        instance__16dStageActorMgr_c = 0x804369e8
                0x807df4f0                        StartBGMMusic = 0x807df4f0
                0x807df500                        StopBGMMusic = 0x807df500
                0x80436bb0                        instance__11dStage32C_c = 0x80436bb0
                0x80436934                        instance__7WLClass = 0x80436934
                0x8005cb50                        disableDemoControl__7WLClassFb = 0x8005cb50
                0x8005ca30                        demoControlAllPlayers__7WLClassFv = 0x8005ca30
                0x800d8d70                        ShakeScreen = 0x800d8d70
                0x80436ca8                        StageScreen = 0x80436ca8
                0x80137a20                        stunPlayer = 0x80137a20
                0x80137b60                        unstunPlayer = 0x80137b60
                0x800647c0                        createChild__13dStageActor_cF6ActorsP13dStageActor_cUiP7Point3dP6S16VecUc = 0x800647c0
                0x8001ce20                        GameMgrBossEndFunc = 0x8001ce20
                0x807cc020                        MakeMarioEnterDemoMode = 0x807cc020
                0x8005cb50                        MakeMarioExitDemoMode = 0x8005cb50
                0x8005cb50                        ForceMarioExitDemoMode = 0x8005cb50
                0x80052240                        ResetPlayerState = 0x80052240
                0x8001ce20                        UpdateGameMgr = 0x8001ce20
                0x80056d90                        UnsetShit = 0x80056d90
                0x8099f104                        StateID_DemoSt2__12daKameckDemo = 0x8099f104
                0x8099f144                        StateID_DemoSt__12daKameckDemo = 0x8099f144
                0x8099f184                        StateID_DemoWait__12daKameckDemo = 0x8099f184
                0x80b9158c                        StateID_Fall__13daBossKoopa_c = 0x80b9158c
                0x809a248c                        StateID_DemoWait__9daNeedles = 0x809a248c
                0x809a24d0                        StateID_DemoAwake__9daNeedles = 0x809a24d0
                0x809a2510                        StateID_Idle__9daNeedles = 0x809a2510
                0x809a2550                        StateID_Die__9daNeedles = 0x809a2550
                0x80360f1c                        StateID_None__7dPlayer = 0x80360f1c
                0x80360f5c                        StateID_Walk__7dPlayer = 0x80360f5c
                0x80360f9c                        StateID_Jump__7dPlayer = 0x80360f9c
                0x8036139c                        StateID_DemoNone__7dPlayer = 0x8036139c
                0x8036141c                        StateID_DemoWait__7dPlayer = 0x8036141c
                0x803617dc                        StateID_DemoGoal__7dPlayer = 0x803617dc
                0x8036181c                        StateID_DemoControl__7dPlayer = 0x8036181c
                0x808ad740                        PlayWrenchSound = 0x808ad740
                0x80436da0                        WaterManager = 0x80436da0
                0x800eba40                        CheckforLiquid = 0x800eba40
                0x80b83e30                        BowserFireballCollision = 0x80b83e30
                0x80b447f0                        BowserDamageAnmClr = 0x80b447f0
                0x80b24eb0                        BowserDamageStepTwo = 0x80b24eb0
                0x80b24ed0                        BowserDamageNormal = 0x80b24ed0
                0x80098f00                        BowserDamageKill = 0x80098f00
                0x80b44b20                        BowserDamageEnd = 0x80b44b20
                0x8008c520                        ActivePhysics_InitWithStruct = 0x8008c520
                0x8008c470                        ActivePhysics_AddToList = 0x8008c470
                0x8008c340                        __ct__13ActivePhysicsFv = 0x8008c340
                0x8008c3a0                        __dt__13ActivePhysicsFv = 0x8008c3a0
                0x8006ced0                        HandleXSpeed = 0x8006ced0
                0x8006cf20                        HandleYSpeed = 0x8006cf20
                0x8006ce80                        UpdateObjectPosBasedOnSpeedValues_real = 0x8006ce80
                0x80096380                        dSprite_c__getXDirectionOfFurthestPlayerRelativeToVEC3 = 0x80096380
                0x80064880                        CalculateDistanceFromActorsNextPosToFurthestPlayer = 0x80064880
                0x80095730                        doSpriteMovement = 0x80095730
                0x80436b88                        instance__17dEffectBreakMgr_c = 0x80436b88
                0x80092730                        spawnTile__17dEffectBreakMgr_cFP7Point3dUic = 0x80092730
                0x80070df0                        CollidedWithTile = 0x80070df0
                0x80096fe0                        SomeStrangeModification = 0x80096fe0
                0x8006d010                        Actor_GetVec3WithValuesAdded = 0x8006d010
                0x8006a5f0                        ConvertStagePositionIntoScreenPosition__Maybe = 0x8006a5f0
                0x80198440                        AnotherSoundRelatedFunction = 0x80198440
                0x80199500                        YetAnotherSoundPlayer = 0x80199500
                0x80196b40                        CheckIfPlayingSound = 0x80196b40
                0x80105450                        RelatedToPlayingSoundsAlongsideAnims = 0x80105450
                0x80437128                        SoundRelatedClass = 0x80437128
                0x801958c0                        MapSoundPlayer = 0x801958c0
                0x801955d0                        PlaySoundWithFunctionB4 = 0x801955d0
                0x8006a5f0                        ConvertStagePositionToScreenPosition__FP7Point2dP7Point3d = 0x8006a5f0
                0x80199170                        PlaySoundAtPosition__17SoundPlayingClassFiP7Point2dUi = 0x80199170
                0x80436a00                        instance2__17SoundPlayingClass = 0x80436a00
                0x80102470                        ExitStage__Fiiii = 0x80102470
                0x80102474                        ExitStageRealRest = 0x80102474
                0x80435cec                        LastPowerupStoreType = 0x80435cec
                0x8016f690                        zero__4mMtxFv = 0x8016f690
                0x8016f130                        rotationX__4mMtxFPs = 0x8016f130
                0x8016f1f0                        applyRotationX__4mMtxFPs = 0x8016f1f0
                0x8016f250                        rotationY__4mMtxFPs = 0x8016f250
                0x8016f310                        applyRotationY__4mMtxFPs = 0x8016f310
                0x8016f370                        rotationZ__4mMtxFPs = 0x8016f370
                0x8016f430                        applyRotationZ__4mMtxFPs = 0x8016f430
                0x8016f490                        applyRotationYXZ__4mMtxFPsPsPs = 0x8016f490
                0x8016f510                        applyRotationZYX__4mMtxFPsPsPs = 0x8016f510
                0x802dd1e8                        _savefpr_14 = 0x802dd1e8
                0x802dd1ec                        _savefpr_15 = 0x802dd1ec
                0x802dd1f0                        _savefpr_16 = 0x802dd1f0
                0x802dd1f4                        _savefpr_17 = 0x802dd1f4
                0x802dd1f8                        _savefpr_18 = 0x802dd1f8
                0x802dd1fc                        _savefpr_19 = 0x802dd1fc
                0x802dd200                        _savefpr_20 = 0x802dd200
                0x802dd204                        _savefpr_21 = 0x802dd204
                0x802dd208                        _savefpr_22 = 0x802dd208
                0x802dd20c                        _savefpr_23 = 0x802dd20c
                0x802dd210                        _savefpr_24 = 0x802dd210
                0x802dd214                        _savefpr_25 = 0x802dd214
                0x802dd218                        _savefpr_26 = 0x802dd218
                0x802dd21c                        _savefpr_27 = 0x802dd21c
                0x802dd220                        _savefpr_28 = 0x802dd220
                0x802dd224                        _savefpr_29 = 0x802dd224
                0x802dd228                        _savefpr_30 = 0x802dd228
                0x802dd22c                        _savefpr_31 = 0x802dd22c
                0x802dd234                        _restfpr_14 = 0x802dd234
                0x802dd238                        _restfpr_15 = 0x802dd238
                0x802dd23c                        _restfpr_16 = 0x802dd23c
                0x802dd240                        _restfpr_17 = 0x802dd240
                0x802dd244                        _restfpr_18 = 0x802dd244
                0x802dd248                        _restfpr_19 = 0x802dd248
                0x802dd24c                        _restfpr_20 = 0x802dd24c
                0x802dd250                        _restfpr_21 = 0x802dd250
                0x802dd254                        _restfpr_22 = 0x802dd254
                0x802dd258                        _restfpr_23 = 0x802dd258
                0x802dd25c                        _restfpr_24 = 0x802dd25c
                0x802dd260                        _restfpr_25 = 0x802dd260
                0x802dd264                        _restfpr_26 = 0x802dd264
                0x802dd268                        _restfpr_27 = 0x802dd268
                0x802dd26c                        _restfpr_28 = 0x802dd26c
                0x802dd270                        _restfpr_29 = 0x802dd270
                0x802dd274                        _restfpr_30 = 0x802dd274
                0x802dd278                        _restfpr_31 = 0x802dd278
                0x802dd280                        _savegpr_14 = 0x802dd280
                0x802dd284                        _savegpr_15 = 0x802dd284
                0x802dd288                        _savegpr_16 = 0x802dd288
                0x802dd28c                        _savegpr_17 = 0x802dd28c
                0x802dd290                        _savegpr_18 = 0x802dd290
                0x802dd294                        _savegpr_19 = 0x802dd294
                0x802dd298                        _savegpr_20 = 0x802dd298
                0x802dd29c                        _savegpr_21 = 0x802dd29c
                0x802dd2a0                        _savegpr_22 = 0x802dd2a0
                0x802dd2a4                        _savegpr_23 = 0x802dd2a4
                0x802dd2a8                        _savegpr_24 = 0x802dd2a8
                0x802dd2ac                        _savegpr_25 = 0x802dd2ac
                0x802dd2b0                        _savegpr_26 = 0x802dd2b0
                0x802dd2b4                        _savegpr_27 = 0x802dd2b4
                0x802dd2b8                        _savegpr_28 = 0x802dd2b8
                0x802dd2bc                        _savegpr_29 = 0x802dd2bc
                0x802dd2c0                        _savegpr_30 = 0x802dd2c0
                0x802dd2c4                        _savegpr_31 = 0x802dd2c4
                0x802dd2cc                        _restgpr_14 = 0x802dd2cc
                0x802dd2d0                        _restgpr_15 = 0x802dd2d0
                0x802dd2d4                        _restgpr_16 = 0x802dd2d4
                0x802dd2d8                        _restgpr_17 = 0x802dd2d8
                0x802dd2dc                        _restgpr_18 = 0x802dd2dc
                0x802dd2e0                        _restgpr_19 = 0x802dd2e0
                0x802dd2e4                        _restgpr_20 = 0x802dd2e4
                0x802dd2e8                        _restgpr_21 = 0x802dd2e8
                0x802dd2ec                        _restgpr_22 = 0x802dd2ec
                0x802dd2f0                        _restgpr_23 = 0x802dd2f0
                0x802dd2f4                        _restgpr_24 = 0x802dd2f4
                0x802dd2f8                        _restgpr_25 = 0x802dd2f8
                0x802dd2fc                        _restgpr_26 = 0x802dd2fc
                0x802dd300                        _restgpr_27 = 0x802dd300
                0x802dd304                        _restgpr_28 = 0x802dd304
                0x802dd308                        _restgpr_29 = 0x802dd308
                0x802dd30c                        _restgpr_30 = 0x802dd30c
                0x802dd310                        _restgpr_31 = 0x802dd310
                0x802dd72c                        __shl2i = 0x802dd72c
                0x802b9750                        __nw__FUl = 0x802b9750
                0x802b97c0                        __dl__FPv = 0x802b97c0
                0x802b97d0                        __dla__FPv = 0x802b97d0
                0x802dcd20                        __construct_new_array = 0x802dcd20
                0x802dd050                        __destroy_new_array = 0x802dd050
                0x802dcfd8                        __destroy_arr = 0x802dcfd8
                0x80024c90                        sub_80024C20 = 0x80024c90
                0x802dccc0                        __register_global_object = 0x802dccc0
                0x802dd13c                        __ptmf_scall = 0x802dd13c
                0x8015fb40                        setup__13FunctionChainFPPFPv_bUs = 0x8015fb40
                0x8006d080                        __ct__14collisionMgr_c = 0x8006d080
                0x8006d080                        __dt__14collisionMgr_c = 0x8006d080
                0x8006d120                        clear1__14collisionMgr_cFv = 0x8006d120
                0x8006d140                        clear2__14collisionMgr_cFv = 0x8006d140
                0x8006d1d0                        init__14collisionMgr_cFP13dStageActor_cPC12sensorBase_sPC12sensorBase_sPC12sensorBase_s = 0x8006d1d0
                0x8006d580                        Clear3__14collisionMgr_cFv = 0x8006d580
                0x8006dc70                        calculateBelowCollision__14collisionMgr_cFv = 0x8006dc70
                0x80070df0                        isOnTopOfTile__14collisionMgr_cCFv = 0x80070df0
                0x8006f080                        calculateAboveCollision__14collisionMgr_cFUi = 0x8006f080
                0x80072d00                        calculateBelowCollisionWithSmokeEffect__14collisionMgr_cFv = 0x80072d00
                0x8006fb80                        calculateAdjacentCollision__14collisionMgr_cFPf = 0x8006fb80
                0x800708a0                        s_80070760__14collisionMgr_cFv = 0x800708a0
                0x80070920                        s_800707E0__14collisionMgr_cFv = 0x80070920
                0x80070ce0                        getTileBehaviour1At__14collisionMgr_cFffUc = 0x80070ce0
                0x80070d30                        getTileBehaviour2At__14collisionMgr_cFffUc = 0x80070d30
                0x800b8550                        __ct_11freezeMgr_c = 0x800b8550
                0x800b85f0                        __dt__11freezeMgr_cFv = 0x800b85f0
                0x800b8660                        doSomethingCool1__11freezeMgr_c = 0x800b8660
                0x800b8730                        doSomethingCool2__11freezeMgr_c = 0x800b8730
                0x800b8800                        setSomething__11freezeMgr_cFUiUiUi = 0x800b8800
                0x800b8810                        Create_ICEACTORs__11freezeMgr_cFPvi = 0x800b8810
                0x800b8960                        Delete_ICEACTORs__11freezeMgr_c = 0x800b8960
                0x800b89e0                        SetIceTimer_pt1__11freezeMgr_c = 0x800b89e0
                0x800b8a40                        SetIceTimer_pt2__11freezeMgr_c = 0x800b8a40
                0x800b8ac0                        CheckIceTimer_lte_Value__11freezeMgr_c = 0x800b8ac0
                0x800b8b30                        doSomethingCool3__11freezeMgr_c = 0x800b8b30
                0x800b8bc0                        doSomethingCool4__11freezeMgr_c = 0x800b8bc0
                0x800b8c40                        doSomethingCool5__11freezeMgr_c = 0x800b8c40
                0x800b8cc0                        doSomethingCool6__11freezeMgr_c = 0x800b8cc0
                0x800b8d40                        DoMeltNormal__11freezeMgr_c = 0x800b8d40
                0x800b8e00                        doSomethingCool7__11freezeMgr_c = 0x800b8e00
                0x800b8ff0                        CheckCountdownTimer__11freezeMgr_c = 0x800b8ff0
                0x80336140                        __vt__7fBase_c = 0x80336140
                0x801622c0                        onCreate__7fBase_cFv = 0x801622c0
                0x80162370                        onDelete__7fBase_cFv = 0x80162370
                0x80162610                        onExecute__7fBase_cFv = 0x80162610
                0x80162810                        willBeDeleted__7fBase_cFv = 0x80162810
                0x80162b30                        moreHeapShit__7fBase_cFUiPv = 0x80162b30
                0x80162d30                        createHeap__7fBase_cFUiPv = 0x80162d30
                0x80162df0                        heapCreated__7fBase_cFv = 0x80162df0
                0x80162a50                        Delete__7fBase_cFv = 0x80162a50
                0x80162ef0                        findNextUninitialisedProcess__7fBase_cFv = 0x80162ef0
                0x80162f60                        hasUninitialisedProcesses__7fBase_cFv = 0x80162f60
                0x80162710                        onDraw__7fBase_cFv = 0x80162710
                0x80162a50                        _Z15fBase_c__DeletePv = 0x80162a50
                0x80162a50                        fBase_c__Delete__FPv = 0x80162a50
                0x803240a0                        __vt__15StageActorLight = 0x803240a0
                0x800ccb90                        init__15StageActorLight_FPvi = 0x800ccb90
                0x800ccc50                        update__15StageActorLight = 0x800ccc50
                0x800ccd00                        draw__15StageActorLight = 0x800ccd00
                0x80041510                        __dt__15StageActorLight = 0x80041510
                0x8006c7a0                        GetExplanationString__7dBase_cFv = 0x8006c7a0
                0x8030e6e8                        __vt__15daEnBlockMain_c = 0x8030e6e8
                0x800233b0                        __dt__15daEnBlockMain_cFv = 0x800233b0
                0x80022ef0                        calledWhenUpMoveBegins__15daEnBlockMain_cFv = 0x80022ef0
                0x80022fd0                        calledWhenDownMoveBegins__15daEnBlockMain_cFv = 0x80022fd0
                0x80022fa0                        calledWhenUpMoveExecutes__15daEnBlockMain_cFv = 0x80022fa0
                0x80023210                        calledWhenUpMoveDiffExecutes__15daEnBlockMain_cFv = 0x80023210
                0x80023080                        calledWhenDownMoveExecutes__15daEnBlockMain_cFv = 0x80023080
                0x800230f0                        calledWhenDownMoveEndExecutes__15daEnBlockMain_cFv = 0x800230f0
                0x80023330                        calledWhenDownMoveDiffExecutes__15daEnBlockMain_cFv = 0x80023330
                0x800233a0                        calledWhenDownMoveDiffEndExecutes__15daEnBlockMain_cFv = 0x800233a0
                0x80022e30                        updateScale__15daEnBlockMain_cFb = 0x80022e30
                0x80022ed0                        upMove_Begin__15daEnBlockMain_cFv = 0x80022ed0
                0x80022f10                        upMove_Execute__15daEnBlockMain_cFv = 0x80022f10
                0x80022f00                        upMove_End__15daEnBlockMain_cFv = 0x80022f00
                0x80022fb0                        downMove_Begin__15daEnBlockMain_cFv = 0x80022fb0
                0x80022ff0                        downMove_Execute__15daEnBlockMain_cFv = 0x80022ff0
                0x80022fe0                        downMove_End__15daEnBlockMain_cFv = 0x80022fe0
                0x80023090                        downMoveEnd_Begin__15daEnBlockMain_cFv = 0x80023090
                0x800230b0                        downMoveEnd_Execute__15daEnBlockMain_cFv = 0x800230b0
                0x800230a0                        downMoveEnd_End__15daEnBlockMain_cFv = 0x800230a0
                0x80023100                        upMove_Diff_Begin__15daEnBlockMain_cFv = 0x80023100
                0x80023140                        upMove_Diff_Execute__15daEnBlockMain_cFv = 0x80023140
                0x80023130                        upMove_Diff_End__15daEnBlockMain_cFv = 0x80023130
                0x80023220                        downMove_Diff_Begin__15daEnBlockMain_cFv = 0x80023220
                0x80023260                        downMove_Diff_Execute__15daEnBlockMain_cFv = 0x80023260
                0x80023250                        downMove_Diff_End__15daEnBlockMain_cFv = 0x80023250
                0x80023340                        downMove_DiffEnd_Begin__15daEnBlockMain_cFv = 0x80023340
                0x80023360                        downMove_DiffEnd_Execute__15daEnBlockMain_cFv = 0x80023360
                0x80023350                        downMove_DiffEnd_End__15daEnBlockMain_cFv = 0x80023350
                0x80021700                        blockInit__15daEnBlockMain_cFf = 0x80021700
                0x80021820                        blockUpdate__15daEnBlockMain_cFv = 0x80021820
                0x80021330                        blockResult__15daEnBlockMain_cFv = 0x80021330
                0x800211f0                        PhysicsCallback1__15daEnBlockMain_c = 0x800211f0
                0x800211e0                        PhysicsCallback2__15daEnBlockMain_c = 0x800211e0
                0x80021210                        PhysicsCallback3__15daEnBlockMain_c = 0x80021210
                0x80020c60                        OPhysicsCallback1__15daEnBlockMain_c = 0x80020c60
                0x80020ee0                        OPhysicsCallback2__15daEnBlockMain_c = 0x80020ee0
                0x80021080                        OPhysicsCallback3__15daEnBlockMain_c = 0x80021080
                0x8035f734                        StateID_UpMove__15daEnBlockMain_c = 0x8035f734
                0x8035f774                        StateID_DownMove__15daEnBlockMain_c = 0x8035f774
                0x8035f7b4                        StateID_DownMoveEnd__15daEnBlockMain_c = 0x8035f7b4
                0x8035f7f4                        StateID_UpMove_Diff__15daEnBlockMain_c = 0x8035f7f4
                0x8035f834                        StateID_DownMove_Diff__15daEnBlockMain_c = 0x8035f834
                0x8035f874                        StateID_DownMove_DiffEnd__15daEnBlockMain_c = 0x8035f874
                0x80094fc0                        __ct__5dEn_cFv = 0x80094fc0
                0x80095270                        __dt__5dEn_cFv = 0x80095270
                0x80095310                        afterCreate__5dEn_cFi = 0x80095310
                0x80095380                        beforeExecute__5dEn_cFv = 0x80095380
                0x800955c0                        afterExecute__5dEn_cFi = 0x800955c0
                0x800955e0                        beforeDraw__5dEn_cFv = 0x800955e0
                0x800980f0                        kill__5dEn_cFv = 0x800980f0
                0x80097dc0                        eatIn__5dEn_cFv = 0x80097dc0
                0x80097e30                        disableEatIn__5dEn_cFv = 0x80097e30
                0x80097eb0                        _vf8C__5dEn_cFPv = 0x80097eb0
                0x80097570                        _vfCC__5dEn_cFP7Point2df = 0x80097570
                0x80097670                        _vfD0__5dEn_cFP7Point2df = 0x80097670
                0x800a7f70                        doStateChange__5dEn_cFP12dStateBase_c = 0x800a7f70
                0x80095a90                        collisionCallback__5dEn_cFP13ActivePhysicsP13ActivePhysics = 0x80095a90
                0x80095e20                        preSpriteCollision__5dEn_cFP13ActivePhysicsP13ActivePhysics = 0x80095e20
                0x80095e70                        prePlayerCollision__5dEn_cFP13ActivePhysicsP13ActivePhysics = 0x80095e70
                0x80096090                        preYoshiCollision__5dEn_cFP13ActivePhysicsP13ActivePhysics = 0x80096090
                0x800961a0                        stageActorCollision__5dEn_cFP13ActivePhysicsP13ActivePhysics = 0x800961a0
                0x80095d50                        spriteCollision__5dEn_cFP13ActivePhysicsP13ActivePhysics = 0x80095d50
                0x80095d60                        playerCollision__5dEn_cFP13ActivePhysicsP13ActivePhysics = 0x80095d60
                0x80095dc0                        yoshiCollision__5dEn_cFP13ActivePhysicsP13ActivePhysics = 0x80095dc0
                0x8009f9c0                        collisionCat3_StarPower__5dEn_cFP13ActivePhysicsP13ActivePhysics = 0x8009f9c0
                0x8009fcd0                        collisionCat5_Mario__5dEn_cFP13ActivePhysicsP13ActivePhysics = 0x8009fcd0
                0x8009ffc0                        _vf108__5dEn_cFP13ActivePhysicsP13ActivePhysics = 0x8009ffc0
                0x800a0150                        collisionCatD_Drill__5dEn_cFP13ActivePhysicsP13ActivePhysics = 0x800a0150
                0x800a0140                        _vf110__5dEn_cFP13ActivePhysicsP13ActivePhysics = 0x800a0140
                0x8009fe60                        collisionCat8_FencePunch__5dEn_cFP13ActivePhysicsP13ActivePhysics = 0x8009fe60
                0x800a02d0                        collisionCat7_GroundPound__5dEn_cFP13ActivePhysicsP13ActivePhysics = 0x800a02d0
                0x800a0450                        collisionCat7_GroundPoundYoshi__5dEn_cFP13ActivePhysicsP13ActivePhysics = 0x800a0450
                0x8009fe50                        _vf120__5dEn_cFP13ActivePhysicsP13ActivePhysics = 0x8009fe50
                0x8009fe40                        collisionCatA_PenguinMario__5dEn_cFP13ActivePhysicsP13ActivePhysics = 0x8009fe40
                0x8009fb50                        collisionCat11_PipeCannon__5dEn_cFP13ActivePhysicsP13ActivePhysics = 0x8009fb50
                0x800a0880                        collisionCat9_RollingObject__5dEn_cFP13ActivePhysicsP13ActivePhysics = 0x800a0880
                0x800a0a50                        collisionCat1_Fireball_E_Explosion__5dEn_cFP13ActivePhysicsP13ActivePhysics = 0x800a0a50
                0x800a0bb0                        collisionCat2_IceBall_15_YoshiIce__5dEn_cFP13ActivePhysicsP13ActivePhysics = 0x800a0bb0
                0x800a0540                        collisionCat13_Hammer__5dEn_cFP13ActivePhysicsP13ActivePhysics = 0x800a0540
                0x800a06d0                        collisionCat14_YoshiFire__5dEn_cFP13ActivePhysicsP13ActivePhysics = 0x800a06d0
                0x800a1020                        killWithSpecifiedState__5dEn_cFP13dStageActor_cP7Point2dP12dStateBase_cUi = 0x800a1020
                0x800a1230                        _vf140__5dEn_cFP13dStageActor_c = 0x800a1230
                0x800a0df0                        powBlockActivated__5dEn_cFb = 0x800a0df0
                0x800a1420                        _vf148__5dEn_cFv = 0x800a1420
                0x800a14f0                        _vf14C__5dEn_cFv = 0x800a14f0
                0x80020740                        canBePowed__5dEn_cFv = 0x80020740
                0x80096370                        eatenByYoshiProbably__5dEn_cFv = 0x80096370
                0x800a1310                        killByDieFall__5dEn_cFP13dStageActor_c = 0x800a1310
                0x800a1d80                        playHpdpSound1__5dEn_cFv = 0x800a1d80
                0x800a1d30                        playEnemyDownSound1__5dEn_cFv = 0x800a1d30
                0x800a1e00                        playEnemyDownComboSound__5dEn_cFPv = 0x800a1e00
                0x800a1f10                        playHpdpSound2__5dEn_cFv = 0x800a1f10
                0x800a1f90                        _vf168__5dEn_cFv = 0x800a1f90
                0x800a15f0                        dieFumi_Begin__5dEn_cFv = 0x800a15f0
                0x800a1780                        dieFumi_Execute__5dEn_cFv = 0x800a1780
                0x800a19a0                        dieFumi_End__5dEn_cFv = 0x800a19a0
                0x800a1820                        dieFall_Begin__5dEn_cFv = 0x800a1820
                0x800a19b0                        dieFall_Execute__5dEn_cFv = 0x800a19b0
                0x800a19a0                        dieFall_End__5dEn_cFv = 0x800a19a0
                0x800a1a90                        dieBigFall_Begin__5dEn_cFv = 0x800a1a90
                0x800a1ab0                        dieBigFall_Execute__5dEn_cFv = 0x800a1ab0
                0x800a1aa0                        dieBigFall_End__5dEn_cFv = 0x800a1aa0
                0x800a1b00                        dieSmoke_Begin__5dEn_cFv = 0x800a1b00
                0x800a1b80                        dieSmoke_Execute__5dEn_cFv = 0x800a1b80
                0x800a1b70                        dieSmoke_End__5dEn_cFv = 0x800a1b70
                0x800a1c40                        dieYoshiFumi_Begin__5dEn_cFv = 0x800a1c40
                0x800a1cc0                        dieYoshiFumi_Execute__5dEn_cFv = 0x800a1cc0
                0x800a1cb0                        dieYoshiFumi_End__5dEn_cFv = 0x800a1cb0
                0x800a1b90                        dieIceVanish_Begin__5dEn_cFv = 0x800a1b90
                0x800a1c30                        dieIceVanish_Execute__5dEn_cFv = 0x800a1c30
                0x800a1c20                        dieIceVanish_End__5dEn_cFv = 0x800a1c20
                0x800a1cd0                        dieGoal_Begin__5dEn_cFv = 0x800a1cd0
                0x800a1cf0                        dieGoal_Execute__5dEn_cFv = 0x800a1cf0
                0x800a1ce0                        dieGoal_End__5dEn_cFv = 0x800a1ce0
                0x800a1d00                        dieOther_Begin__5dEn_cFv = 0x800a1d00
                0x800a1d20                        dieOther_Execute__5dEn_cFv = 0x800a1d20
                0x800a1d10                        dieOther_End__5dEn_cFv = 0x800a1d10
                0x800a8340                        eatIn_Begin__5dEn_cFv = 0x800a8340
                0x800a8360                        eatIn_Execute__5dEn_cFv = 0x800a8360
                0x800a8350                        eatIn_End__5dEn_cFv = 0x800a8350
                0x800a83e0                        eatNow_Begin__5dEn_cFv = 0x800a83e0
                0x800a8400                        eatNow_Execute__5dEn_cFv = 0x800a8400
                0x800a83f0                        eatNow_End__5dEn_cFv = 0x800a83f0
                0x800a8410                        eatOut_Begin__5dEn_cFv = 0x800a8410
                0x800a8430                        eatOut_Execute__5dEn_cFv = 0x800a8430
                0x800a8420                        eatOut_End__5dEn_cFv = 0x800a8420
                0x800a8310                        hitSpin_Begin__5dEn_cFv = 0x800a8310
                0x800a8330                        hitSpin_Execute__5dEn_cFv = 0x800a8330
                0x800a8320                        hitSpin_End__5dEn_cFv = 0x800a8320
                0x800a8010                        ice_Begin__5dEn_cFv = 0x800a8010
                0x800a80c0                        ice_Execute__5dEn_cFv = 0x800a80c0
                0x800a80b0                        ice_End__5dEn_cFv = 0x800a80b0
                0x80095660                        spawnHitEffectAtPosition__5dEn_cF7Point2d = 0x80095660
                0x80095670                        doSomethingWithHardHitAndSoftHitEffects__5dEn_cF7Point3d = 0x80095670
                0x800956c0                        playEnemyDownSound2__5dEn_cFv = 0x800956c0
                0x80095710                        add2ToYSpeed__5dEn_cFv = 0x80095710
                0x800959d0                        _vf218__5dEn_cFv = 0x800959d0
                0x800978f0                        _vf21C__5dEn_cFv = 0x800978f0
                0x800980a0                        _vf220__5dEn_cFPv = 0x800980a0
                0x800980e0                        _vf224__5dEn_cFv = 0x800980e0
                0x80020730                        _vf228__5dEn_cFv = 0x80020730
                0x800a81e0                        CreateIceActors__5dEn_cFv = 0x800a81e0
                0x800a82d0                        _vf230__5dEn_cFv = 0x800a82d0
                0x800a82e0                        _vf234__5dEn_cFv = 0x800a82e0
                0x800a8300                        _vf238__5dEn_cFv = 0x800a8300
                0x80020720                        _vf23C__5dEn_cFv = 0x80020720
                0x80020710                        _vf240__5dEn_cFv = 0x80020710
                0x80020700                        _vf244__5dEn_cFv = 0x80020700
                0x80096a60                        _vf248__5dEn_cFi = 0x80096a60
                0x80096890                        bouncePlayerWhenJumpedOn__5dEn_cFPv = 0x80096890
                0x80096880                        addScoreWhenHit__5dEn_cFPv = 0x80096880
                0x800968a0                        _vf254__5dEn_cFPv = 0x800968a0
                0x800968e0                        _vf258__5dEn_cFPv = 0x800968e0
                0x800968f0                        _vf25C__5dEn_cFPv = 0x800968f0
                0x80096a90                        _vf260__5dEn_cFPv = 0x80096a90
                0x80096ee0                        _vf264__5dEn_cFP13dStageActor_c = 0x80096ee0
                0x80096ba0                        _vf268__5dEn_cFPv = 0x80096ba0
                0x80096f70                        spawnHitEffectAtPositionAgain__5dEn_cF7Point2d = 0x80096f70
                0x80096dc0                        playMameStepSound__5dEn_cFv = 0x80096dc0
                0x80096fd0                        _vf274__5dEn_cFv = 0x80096fd0
                0x80096cb0                        _vf278__5dEn_cFPv = 0x80096cb0
                0x80096fc0                        _vf27C__5dEn_cFv = 0x80096fc0
                0x803648b4                        StateID_DieFumi__5dEn_c = 0x803648b4
                0x803648f4                        StateID_DieFall__5dEn_c = 0x803648f4
                0x80364934                        StateID_DieBigFall__5dEn_c = 0x80364934
                0x80364974                        StateID_DieSmoke__5dEn_c = 0x80364974
                0x803649b4                        StateID_DieIceVanish__5dEn_c = 0x803649b4
                0x803649f4                        StateID_DieYoshiFumi__5dEn_c = 0x803649f4
                0x80364a34                        StateID_DieGoal__5dEn_c = 0x80364a34
                0x80364a74                        StateID_DieOther__5dEn_c = 0x80364a74
                0x80095730                        doSpriteMovement__5dEn_cFv = 0x80095730
                0x80097a40                        CheckIfPlayerBelow__5dEn_cFff = 0x80097a40
                0x800958f0                        stuffRelatingToCollisions__5dEn_cFfff = 0x800958f0
                0x800973d0                        checkLiquidImmersion__5dEn_cFP7Point2df = 0x800973d0
                0x80096920                        bouncePlayer__5dEn_cFPvf = 0x80096920
                0x80067100                        __ct__13dActorState_cFv = 0x80067100
                0x800672f0                        __dt__13dActorState_cFv = 0x800672f0
                0x80067370                        beginState_Gegneric__13dActorState_cFv = 0x80067370
                0x80067380                        endState_Gegneric__13dActorState_cFv = 0x80067380
                0x80067390                        executeState_Gegneric__13dActorState_cFv = 0x80067390
                0x800676d0                        _vfD8__18dActorMultiState_cFv = 0x800676d0
                0x800676f0                        _vfDC__18dActorMultiState_cFv = 0x800676f0
                0x800676e0                        _vfE0__18dActorMultiState_cFv = 0x800676e0
                0x80064250                        __ct__13dStageActor_cFv = 0x80064250
                0x800643f0                        __dt__13dStageActor_cFv = 0x800643f0
                0x80064490                        beforeCreate__13dStageActor_cFv = 0x80064490
                0x800644c0                        afterCreate__13dStageActor_cFi = 0x800644c0
                0x800644d0                        beforeDelete__13dStageActor_cFv = 0x800644d0
                0x80064520                        afterDelete__13dStageActor_cFi = 0x80064520
                0x80064530                        beforeExecute__13dStageActor_cFv = 0x80064530
                0x800645d0                        afterExecute__13dStageActor_cFi = 0x800645d0
                0x80064680                        beforeDraw__13dStageActor_cFv = 0x80064680
                0x80064720                        afterDraw__13dStageActor_cFi = 0x80064720
                0x80064730                        GetExplanationString__13dStageActor_cFv = 0x80064730
                0x800651c0                        isOutOfView__13dStageActor_cFv = 0x800651c0
                0x80065790                        kill__13dStageActor_cFv = 0x80065790
                0x8001d280                        _vf68__13dStageActor_cFv = 0x8001d280
                0x8001d270                        _vf6C__13dStageActor_cFv = 0x8001d270
                0x80065760                        _vf70__13dStageActor_cFv = 0x80065760
                0x8001d260                        _vf74__13dStageActor_cFv = 0x8001d260
                0x80065960                        itemPickedUp__13dStageActor_cFv = 0x80065960
                0x8001d250                        _vf7C__13dStageActor_cFv = 0x8001d250
                0x80065970                        eatIn__13dStageActor_cFv = 0x80065970
                0x80065990                        disableEatIn__13dStageActor_cFv = 0x80065990
                0x800659a0                        _vf88__13dStageActor_cFv = 0x800659a0
                0x800659b0                        _vf8C__13dStageActor_cFPv = 0x800659b0
                0x800659c0                        _vf90__13dStageActor_cFP13dStageActor_c = 0x800659c0
                0x80065c00                        _vf94__13dStageActor_cFPv = 0x80065c00
                0x800661c0                        removeMyActivePhysics__13dStageActor_cFv = 0x800661c0
                0x800661d0                        addMyActivePhysics__13dStageActor_cFv = 0x800661d0
                0x80065a90                        returnRegularScale__13dStageActor_cFv = 0x80065a90
                0x80065ab0                        _vfA4__13dStageActor_cFPv = 0x80065ab0
                0x80065b40                        _vfA8__13dStageActor_cFPv = 0x80065b40
                0x80065b80                        _vfAC__13dStageActor_cFPv = 0x80065b80
                0x800657a0                        killedByLevelClear__13dStageActor_cFv = 0x800657a0
                0x80065c80                        _vfB4__13dStageActor_cFv = 0x80065c80
                0x8001d240                        _vfB8__13dStageActor_cFv = 0x8001d240
                0x80065c90                        _vfBC__13dStageActor_cFv = 0x80065c90
                0x80065ca0                        _vfC0__13dStageActor_cFv = 0x80065ca0
                0x80065cb0                        _vfC4__13dStageActor_cFv = 0x80065cb0
                0x80065e00                        _vfC8__13dStageActor_cFP7Point2df = 0x80065e00
                0x80065f00                        _vfCC__13dStageActor_cFP7Point2df = 0x80065f00
                0x80066000                        _vfD0__13dStageActor_cFP7Point2df = 0x80066000
                0x80064ee0                        outOfZone__13dStageActor_cF7Point3dPfUc = 0x80064ee0
                0x80065090                        checkZoneBoundaries__13dStageActor_cFUi = 0x80065090
                0x80064750                        create__13dStageActor_cF6ActorsUiP7Point3dP6S16VecUc = 0x80064750
                0x80064e50                        Delete__13dStageActor_cFUc = 0x80064e50
                0x800e1ac0                        __ct__8dScene_cFv = 0x800e1ac0
                0x800e1b30                        __dt__8dScene_cFv = 0x800e1b30
                0x800e1bb0                        beforeCreate__8dScene_cFv = 0x800e1bb0
                0x800e1bf0                        afterCreate__8dScene_cFi = 0x800e1bf0
                0x800e1c60                        beforeDelete__8dScene_cFv = 0x800e1c60
                0x800e1c90                        afterDelete__8dScene_cFi = 0x800e1c90
                0x800e1cf0                        beforeExecute__8dScene_cFv = 0x800e1cf0
                0x800e1e30                        afterExecute__8dScene_cFi = 0x800e1e30
                0x800e1e80                        beforeDraw__8dScene_cFv = 0x800e1e80
                0x800e1eb0                        afterDraw__8dScene_cFi = 0x800e1eb0
                0x8006c810                        __ct__8dActor_cFv = 0x8006c810
                0x8006c930                        __dt__8dActor_cFv = 0x8006c930
                0x8006ce80                        UpdateObjectPosBasedOnSpeedValuesReal__8dActor_cFv = 0x8006ce80
                0x8006ced0                        HandleXSpeed__8dActor_cFv = 0x8006ced0
                0x8006cf20                        HandleYSpeed__8dActor_cFv = 0x8006cf20
                0x8006c560                        __ct__7dBase_cFv = 0x8006c560
                0x8006c5d0                        __dt__7dBase_cFv = 0x8006c5d0
                0x8006c680                        beforeCreate__7dBase_cFv = 0x8006c680
                0x8006c6b0                        afterCreate__7dBase_cFi = 0x8006c6b0
                0x8006c6c0                        beforeDelete__7dBase_cFv = 0x8006c6c0
                0x8006c6f0                        afterDelete__7dBase_cFi = 0x8006c6f0
                0x8006c700                        beforeExecute__7dBase_cFv = 0x8006c700
                0x8006c740                        afterExecute__7dBase_cFi = 0x8006c740
                0x8006c750                        beforeDraw__7dBase_cFv = 0x8006c750
                0x8006c790                        afterDraw__7dBase_cFi = 0x8006c790
                0x8006cb90                        specialDraw1__8dActor_cFv = 0x8006cb90
                0x8006cba0                        specialDraw2__8dActor_cFv = 0x8006cba0
                0x8001d230                        _vf58__8dActor_cFv = 0x8001d230
                0x8001d220                        _vf5C__8dActor_cFv = 0x8001d220
                0x8015fd00                        __ct__12dStateBase_cFPCc = 0x8015fd00
                0x8015fd40                        __dt__12dStateBase_cFv = 0x8015fd40
                0x8015fd80                        isInvalid__12dStateBase_cFv = 0x8015fd80
                0x8015fd90                        isEqualNotUsedForSomeReason__12dStateBase_cFP12dStateBase_c = 0x8015fd90
                0x8015fe00                        isEqual__12dStateBase_cFP12dStateBase_c = 0x8015fe00
                0x8015fe10                        isNotEqual__12dStateBase_cFP12dStateBase_c = 0x8015fe10
                0x8015fe60                        getName__12dStateBase_cFv = 0x8015fe60
                0x8015fe70                        getID__12dStateBase_cFv = 0x8015fe70
                0x80014310                        isSameStateName__12dStateBase_cFPCc = 0x80014310
                0x800129e0                        doBegin__12dStateBase_cFPv = 0x800129e0
                0x800129b0                        doExecute__12dStateBase_cFPv = 0x800129b0
                0x80012980                        doEnd__12dStateBase_cFPv = 0x80012980
                0x80384704                        mNoState__12dStateBase_c = 0x80384704
                0x8015ff30                        __dt__15dStateMgrBase_cFv = 0x8015ff30
                0x801601d0                        __ct__11dStateMgr_cFP17dStatePointless_cP20dStateExecutorBase_cP12dStateBase_c = 0x801601d0
                0x800e3bf0                        __ct__10dFlagMgr_c = 0x800e3bf0
                0x800e3cb0                        setup__10dFlagMgr_cFb = 0x800e3cb0
                0x800e4030                        applyAndClearAllTimedActions__10dFlagMgr_cFv = 0x800e4030
                0x800e4120                        execute__10dFlagMgr_cFv = 0x800e4120
                0x800e42d0                        set__10dFlagMgr_cFUcibbbUi = 0x800e42d0
                0x800e4580                        findLowestFlagInSet__10dFlagMgr_cFUiUl = 0x800e4580
                0x800e4660                        setSpecial__10dFlagMgr_cFUcffUcUiUl = 0x800e4660
                0x800e46a0                        get8__10dFlagMgr_cFUc = 0x800e46a0
                0x800e46b0                        get108__10dFlagMgr_cFUc = 0x800e46b0
                0x800e46c0                        get208__10dFlagMgr_cFUc = 0x800e46c0
                0x800e46d0                        get248__10dFlagMgr_cFUc = 0x800e46d0
                0x800e46f0                        get448__10dFlagMgr_cFUc = 0x800e46f0
                0x80436d18                        instance__10dFlagMgr_c = 0x80436d18
                0x8008c400                        clear__13ActivePhysicsFv = 0x8008c400
                0x8008c4c0                        removeFromList__13ActivePhysicsFv = 0x8008c4c0
                0x8008c470                        addToList__13ActivePhysicsFv = 0x8008c470
                0x8008c520                        initWithStruct__13ActivePhysicsFP8dActor_cPCQ213ActivePhysics4Info = 0x8008c520
                0x8008c630                        bottom__13ActivePhysicsFv = 0x8008c630
                0x80436b00                        globalListHead__13ActivePhysics = 0x80436b00
                0x8007f8e0                        __ct__7PhysicsFv = 0x8007f8e0
                0x8007f950                        __dt__7PhysicsFv = 0x8007f950
                0x8007faf0                        baseSetup__7PhysicsFP8dActor_cPvPvPvUcUc = 0x8007faf0
                0x8007fb80                        setup__7PhysicsFP8dActor_cffffPvPvPvUcUcP7Point2d = 0x8007fb80
                0x8007fc50                        setup__7PhysicsFP8dActor_cPQ27Physics4InfoUcUcP7Point2d = 0x8007fc50
                0x80436a80                        globalListHead__7Physics = 0x80436a80
                0x8007fec0                        setPtrToRotation__7PhysicsFPs = 0x8007fec0
                0x808a6600                        spinningPhysicsCallback = 0x808a6600
                0x8007fa40                        addToList__7PhysicsFv = 0x8007fa40
                0x8007fa90                        removeFromList__7PhysicsFv = 0x8007fa90
                0x8007fee0                        update__7PhysicsFv = 0x8007fee0
                0x80078660                        getTileRendererList__7dBgGm_cFi = 0x80078660
                0x80077660                        getPointerToTile__8BgGmBaseFiiiPib = 0x80077660
                0x800779a0                        placeTile__8BgGmBaseFUsUsii = 0x800779a0
                0x80078550                        makeSplash__8BgGmBaseFffi = 0x80078550
                0x80014890                        add__Q212TileRenderer4ListFP12TileRenderer = 0x80014890
                0x800148d0                        remove__Q212TileRenderer4ListFP12TileRenderer = 0x800148d0
                0x80014620                        __ct__12TileRendererFv = 0x80014620
                0x80014660                        __dt__12TileRendererFv = 0x80014660
                0x80014720                        setPosition__12TileRendererFfff = 0x80014720
                0x80014740                        setVars__12TileRendererFf = 0x80014740
                0x800d6dd0                        __ct__21dPlayerModelHandler_cFUc = 0x800d6dd0
                0x800d6f00                        loadModel__21dPlayerModelHandler_cFUcii = 0x800d6f00
                0x800d7050                        setSRT__21dPlayerModelHandler_cF7Point3d6S16Vec7Point3d = 0x800d7050
                0x800d7110                        callVF20__21dPlayerModelHandler_cFv = 0x800d7110
                0x800d7130                        draw__21dPlayerModelHandler_cFv = 0x800d7130
                0x800d6fa0                        update__21dPlayerModelHandler_cFv = 0x800d6fa0
                0x800d6fc0                        setMatrix__21dPlayerModelHandler_cFPA3_A4_f = 0x800d6fc0
                0x80163290                        _Z15FindActorByType6ActorsP5Actor = 0x80163290
                0x80163290                        FindActorByType__F6ActorsP5Actor = 0x80163290
                0x800df290                        _Z19RetrieveFileFromArcPvPcS0_ = 0x800df290
                0x8015fc70                        _Z8OSReportPKcz = 0x8015fc70
                0x8015fc70                        OSReport__FPCce = 0x8015fc70
                0x801afb10                        _Z7OSFatal7GXColorS_PKc = 0x801afb10
                0x800e2690                        GetSomeSizeRelatedBULLSHIT__Fv = 0x800e2690
                0x800e2800                        CalculateSomethingAboutRatio__Fffff = 0x800e2800
                0x800e28d0                        CalculateSomethingElseAboutRatio__Fv = 0x800e28d0
                0x80169760                        DoSomethingCameraRelatedWithEGGScreen__FiPQ23EGG6Screen = 0x80169760
                0x80436d8c                        GlobalScreenWidth = 0x80436d8c
                0x80436d90                        GlobalScreenHeight = 0x80436d90
                0x80437ba8                        currentScreenSizeID = 0x80437ba8
                0x8035d200                        ScreenSizesAndMultipliers = 0x8035d200
                0x802c7020                        setOrtho__Q23EGG7FrustumFffffff = 0x802c7020
                0x802d1200                        __ct__Q23EGG6ScreenFv = 0x802d1200
                0x802d0fe0                        __dt__Q23EGG6ScreenFv = 0x802d0fe0
                0x8035cd98                        __vt__Q23EGG12LookAtCamera = 0x8035cd98
                0x802bedc0                        assignToNW4RCamera__Q23EGG12LookAtCameraFRQ34nw4r3g3d6Camera = 0x802bedc0
                0x802bf910                        __ct__Q23EGG12ProjectOrthoFv = 0x802bf910
                0x802bf960                        setVolume__Q23EGG12ProjectOrthoFffff = 0x802bf960
                0x80165060                        GetCameraByID__Fi = 0x80165060
                0x80165080                        GetCurrentCameraID__Fv = 0x80165080
                0x80165090                        SetCurrentCameraID__Fi = 0x80165090
                0x80165150                        LinkScene__Fi = 0x80165150
                0x801650d0                        UnlinkScene__Fi = 0x801650d0
                0x80165210                        SceneCalcWorld__Fi = 0x80165210
                0x801652a0                        SceneCameraStuff__Fi = 0x801652a0
                0x80165290                        CalcMaterial__Fv = 0x80165290
                0x80165370                        DrawOpa__Fv = 0x80165370
                0x80165380                        DrawXlu__Fv = 0x80165380
                0x802d34c0                        ChangeAlphaUpdate__Fb = 0x802d34c0
                0x802d3460                        ChangeColorUpdate__Fb = 0x802d3460
                0x8006cc20                        DoSpecialDrawing1__Fv = 0x8006cc20
                0x8006cc80                        DoSpecialDrawing2__Fv = 0x8006cc80
                0x80163760                        SetupLYTDrawing__Fv = 0x80163760
                0x801636b0                        ClearLayoutDrawList__Fv = 0x801636b0
                0x800067a0                        RenderAllLayouts__Fv = 0x800067a0
                0x80163840                        DrawAllLayoutsBeforeX__Fi = 0x80163840
                0x801638d0                        DrawAllLayoutsAfterX__Fi = 0x801638d0
                0x80163960                        DrawAllLayoutsAfterXandBeforeY__Fii = 0x80163960
                0x80007300                        findPaneByName__Q23m2d17EmbedLayoutBase_cCFPCc = 0x80007300
                0x80007320                        findTextBoxByName__Q23m2d17EmbedLayoutBase_cCFPCc = 0x80007320
                0x800073d0                        findPictureByName__Q23m2d17EmbedLayoutBase_cCFPCc = 0x800073d0
                0x80007470                        findWindowByName__Q23m2d17EmbedLayoutBase_cCFPCc = 0x80007470
                0x800c8a60                        __ct__Q23m2d13EmbedLayout_cFv = 0x800c8a60
                0x800c8ab0                        __dt__Q23m2d13EmbedLayout_cFv = 0x800c8ab0
                0x800c8dc0                        loadArc__Q23m2d13EmbedLayout_cFPCcb = 0x800c8dc0
                0x800c8e70                        getPanes__Q23m2d13EmbedLayout_cCFPPCcPPQ34nw4r3lyt4Panei = 0x800c8e70
                0x800c8ee0                        getWindows__Q23m2d13EmbedLayout_cCFPPCcPPQ34nw4r3lyt6Windowi = 0x800c8ee0
                0x800c8f50                        getPictures__Q23m2d13EmbedLayout_cCFPPCcPPQ34nw4r3lyt7Picturei = 0x800c8f50
                0x800c8fc0                        getTextBoxes__Q23m2d13EmbedLayout_cCFPPCcPPQ34nw4r3lyt7TextBoxi = 0x800c8fc0
                0x800c9030                        setLangStrings__Q23m2d13EmbedLayout_cFPPCcPCiii = 0x800c9030
                0x800c90c0                        loadAnimations__Q23m2d13EmbedLayout_cFPPCci = 0x800c90c0
                0x800c9200                        loadGroups__Q23m2d13EmbedLayout_cFPPCcPCii = 0x800c9200
                0x800c9400                        enableNonLoopAnim__Q23m2d13EmbedLayout_cFib = 0x800c9400
                0x800c9490                        enableLoopAnim__Q23m2d13EmbedLayout_cFi = 0x800c9490
                0x800c94e0                        resetAnim__Q23m2d13EmbedLayout_cFib = 0x800c94e0
                0x800c9610                        disableAllAnimations__Q23m2d13EmbedLayout_cFv = 0x800c9610
                0x800c9720                        isAnimOn__Q23m2d13EmbedLayout_cFi = 0x800c9720
                0x800c9750                        isAnyAnimOn__Q23m2d13EmbedLayout_cFv = 0x800c9750
                0x800c9a40                        free__Q23m2d13EmbedLayout_cFv = 0x800c9a40
                0x800c9670                        execAnimations__Q23m2d13EmbedLayout_cFv = 0x800c9670
                0x80163ba0                        attachArc__Q23m2d8ResAcc_cFPvPCc = 0x80163ba0
                0x80163d20                        setSpeed__Q23m2d11FrameCtrl_cFf = 0x80163d20
                0x80163d90                        scheduleForDrawing__Q23m2d6Base_cFv = 0x80163d90
                0x80094050                        RenderEffects__Fii = 0x80094050
                0x801653b0                        RemoveAllFromScnRoot__Fv = 0x801653b0
                0x80165400                        Reset3DState__Fv = 0x80165400
                0x8024db10                        GetRenderModeObj__Q34nw4r3g3d8G3DStateFv = 0x8024db10
                0x80253d10                        __ct__Q34nw4r3g3d6CameraFPQ34nw4r3g3d10CameraData = 0x80253d10
                0x802541b0                        SetOrtho__Q34nw4r3g3d6CameraFffffff = 0x802541b0
                0x80254170                        SetPerspective__Q34nw4r3g3d6CameraFffff = 0x80254170
                0x80254360                        SetViewportJitter__Q34nw4r3g3d6CameraFUi = 0x80254360
                0x80253f00                        SetPosture__Q34nw4r3g3d6CameraFRCQ44nw4r3g3d6Camera11PostureInfo = 0x80253f00
                0x80253e90                        SetPosition__Q34nw4r3g3d6CameraFRC7Point3d = 0x80253e90
                0x80254120                        SetCameraMtxDirectly__Q34nw4r3g3d6CameraFRA3_A4_Cf = 0x80254120
                0x802545f0                        GetCameraMtx__Q34nw4r3g3d6CameraCFPA3_A4_f = 0x802545f0
                0x8023ada0                        CheckRevision__Q34nw4r3g3d7ResFileCFv = 0x8023ada0
                0x8023aad0                        Init__Q34nw4r3g3d7ResFileFv = 0x8023aad0
                0x8023a890                        Bind__Q34nw4r3g3d7ResFileFQ34nw4r3g3d7ResFile = 0x8023a890
                0x8023a370                        GetResMdl__Q34nw4r3g3d7ResFileCFPCc = 0x8023a370
                0x8023a460                        GetResTex__Q34nw4r3g3d7ResFileCFPCc = 0x8023a460
                0x80437068                        g3dMemAllocator__Q24nw4r3g3d = 0x80437068
                0x8025cf60                        __ScnMdl__Construct__Q24nw4r3g3dFPvPUiPvUii = 0x8025cf60
                0x8025a8c0                        __ScnMdlSimple__Construct__Q24nw4r3g3dFPvPUiPvi = 0x8025a8c0
                0x80165390                        InsertIntoScene__Q24nw4r3g3dFPv = 0x80165390
                0x8023bca0                        GetResMat__Q34nw4r3g3d6ResMdlCFPCc = 0x8023bca0
                0x8023b740                        GetResNode__Q34nw4r3g3d6ResMdlCFPCc = 0x8023b740
                0x80165490                        DisableIndirectTexturing__3m3dFv = 0x80165490
                0x802c81b0                        InitTexObjWithResTex__3m3dFP9_GXTexObjPvUiUiUiUi = 0x802c81b0
                0x80165510                        setup__Q23m3d6proc_cFPvPUi = 0x80165510
                0x8000f720                        returnUnknown__Q23m3d6proc_cFv = 0x8000f720
                0x8016a550                        __ct__Q23m3d9scnLeaf_cFv = 0x8016a550
                0x8016a570                        __dt__Q23m3d9scnLeaf_cFv = 0x8016a570
                0x8016a5d0                        free__Q23m3d9scnLeaf_cFv = 0x8016a5d0
                0x8016a620                        scheduleForDrawing__Q23m3d9scnLeaf_cFv = 0x8016a620
                0x8016a6d0                        getViewMatrix__Q23m3d9scnLeaf_cFPA3_A4_f = 0x8016a6d0
                0x8033636c                        __vt__Q23m3d5mdl_c = 0x8033636c
                0x8016a210                        __ct__Q23m3d5mdl_cFv = 0x8016a210
                0x8016a260                        __dt__Q23m3d5mdl_cFv = 0x8016a260
                0x8016a2d0                        setup__Q23m3d5mdl_cFQ34nw4r3g3d6ResMdlPvUiiPUi = 0x8016a2d0
                0x80064d50                        oneSetupType__Q23m3d5mdl_cFv = 0x80064d50
                0x80064d30                        sub_80064BF0__Q23m3d5mdl_cFv = 0x80064d30
                0x8016a6b0                        setDrawMatrix__Q23m3d5mdl_cFPA3_A4_Cf = 0x8016a6b0
                0x8016a670                        setScale__Q23m3d5mdl_cFfff = 0x8016a670
                0x8016a690                        setScale__Q23m3d5mdl_cFP7Point3d = 0x8016a690
                0x8016a6e0                        calcWorld__Q23m3d5mdl_cFb = 0x8016a6e0
                0x8016a4c0                        bindAnim__Q23m3d5mdl_cFPQ23m3d6banm_cf = 0x8016a4c0
                0x8016a480                        vf1C__Q3m3d5mdl_cFv = 0x8016a480
                0x801686c0                        getMatrixForNode__Q23m3d5mdl_cFUiPA3_A4_f = 0x801686c0
                0x8000d190                        SetCullModeForMaterial__FPQ23m3d5mdl_ciUi = 0x8000d190
                0x800b3fd0                        SetupTextures_Player__FPQ23m3d5mdl_ci = 0x800b3fd0
                0x800b40d0                        SetupTextures_Map__FPQ23m3d5mdl_ci = 0x800b40d0
                0x800b41d0                        SetupTextures_Boss__FPQ23m3d5mdl_ci = 0x800b41d0
                0x800b42f0                        SetupTextures_Enemy__FPQ23m3d5mdl_ci = 0x800b42f0
                0x800b4430                        SetupTextures_MapObj__FPQ23m3d5mdl_ci = 0x800b4430
                0x800b4550                        SetupTextures_Item__FPQ23m3d5mdl_ci = 0x800b4550
                0x80069160                        __ct__16mHeapAllocator_cFv = 0x80069160
                0x800691a0                        __dt__16mHeapAllocator_cFv = 0x800691a0
                0x80069200                        link__16mHeapAllocator_cFiPvPCci = 0x80069200
                0x80069220                        unlink__16mHeapAllocator_cFv = 0x80069220
                0x802c0f70                        __ct__10mTexture_cFv = 0x802c0f70
                0x802c0fc0                        __ct__10mTexture_cFUsUsUi = 0x802c0fc0
                0x802c1000                        __dt__10mTexture_cFv = 0x802c1000
                0x802c10a0                        load__10mTexture_cFUi = 0x802c10a0
                0x802c1160                        flushDC__10mTexture_cFv = 0x802c1160
                0x802c1370                        makeLinearGradient__10mTexture_cFicUsUs8_GXColor8_GXColorb = 0x802c1370
                0x802c1720                        allocateBuffer__10mTexture_cFPv = 0x802c1720
                0x802c17c0                        plotPixel__10mTexture_cFUsUs8_GXColor = 0x802c17c0
                0x8022d830                        SetFontSize__Q34nw4r2ut10CharWriterFff = 0x8022d830
                0x80230cc0                        __ct__Q34nw4r2ut10TextWriterFv = 0x80230cc0
                0x80230d20                        __dt__Q34nw4r2ut10TextWriterFv = 0x80230d20
                0x80231610                        CalcStringWidth__Q34nw4r2ut10TextWriterCFPCwi = 0x80231610
                0x80384948                        GameHeaps = 0x80384948
                0x80436a90                        BGDatClass = 0x80436a90
                0x80436a90                        instance__10BGDatClass = 0x80436a90
                0x80081530                        GetTilesetName__FPvii = 0x80081530
                0x800836a0                        OriginalTilesetLoadingThing = 0x800836a0
                0x80081530                        getTilesetName__10BGDatClassFii = 0x80081530
                0x80083c80                        getPointerToTile__12TilemapClassFiiPUib = 0x80083c80
                0x80085fc0                        randomiseNormalTerrain__FP12TilemapClassP8BGRenderi = 0x80085fc0
                0x80086130                        randomiseSubTerrain__FP12TilemapClassP8BGRenderi = 0x80086130
                0x800862a0                        randomiseNohara__FP12TilemapClassP8BGRenderi = 0x800862a0
                0x80086300                        randomiseSabaku__FP12TilemapClassP8BGRenderi = 0x80086300
                0x80086310                        randomiseGake__FP12TilemapClassP8BGRenderi = 0x80086310
                0x800864b0                        randomiseKaigan__FP12TilemapClassP8BGRenderi = 0x800864b0
                0x800867f0                        randomiseDoukutu__FP12TilemapClassP8BGRenderi = 0x800867f0
                0x80086800                        randomiseShiroBoss1__FP12TilemapClassP8BGRenderi = 0x80086800
                0x80086890                        randomiseObake__FP12TilemapClassP8BGRenderi = 0x80086890
                0x800868a0                        randomiseObakeSoto__FP12TilemapClassP8BGRenderi = 0x800868a0
                0x80086a20                        randomiseKoriChika__FP12TilemapClassP8BGRenderi = 0x80086a20
                0x80086ba0                        randomisePa2Kori__FP12TilemapClassP8BGRenderi = 0x80086ba0
                0x800b55c0                        IsWideScreen__Fv = 0x800b55c0
                0x80361b50                        Player_Active = 0x80361b50
                0x80361b60                        Player_ID = 0x80361b60
                0x80361b70                        Player_Powerup = 0x80361b70
                0x80361b80                        Player_Flags = 0x80361b80
                0x80361b90                        Player_Lives = 0x80361b90
                0x80361ba0                        Player_Coins = 0x80361ba0
                0x80162e00                        AllocateMemoryBlock = 0x80162e00
                0x800df5f0                        EnsureAllArcsAreLoaded = 0x800df5f0
                0x8002ac70                        FindRotationController = 0x8002ac70
                0x801019c0                        GetObjectName = 0x801019c0
                0x80162ad0                        GetObjectParent = 0x80162ad0
                0x8015fc70                        OSReport = 0x8015fc70
                0x80436e68                        StagePtr = 0x80436e68
                0x80163040                        _Z20CreateParentedObjectsPvic = 0x80163040
                0x800b54b0                        _Z47CheckIfMenuShouldBeCancelledForSpecifiedWiimotei = 0x800b54b0
                0x801019e0                        _Z21StartTitleScreenStagebi = 0x801019e0
                0x8006cce0                        _Z17CreateChildObjectsPviii = 0x8006cce0
                0x80163040                        CreateParentedObject__FsPvic = 0x80163040
                0x800b54b0                        CheckIfMenuShouldBeCancelledForSpecifiedWiimote__Fi = 0x800b54b0
                0x801019e0                        StartTitleScreenStage__Fbi = 0x801019e0
                0x8006cce0                        CreateChildObject__FsPviii = 0x8006cce0
                0x80163040                        ObjCreate1 = 0x80163040
                0x80163060                        ObjCreate2 = 0x80163060
                0x800b1150                        RestoreObjectState = 0x800b1150
                0x800df950                        QueueArcLoad = 0x800df950
                0x800df290                        RetrieveFileFromArc = 0x800df290
                0x800df4d0                        RetrieveFileFromArcAlt = 0x800df4d0
                0x80064750                        SpawnSprite = 0x80064750
                0x800b1280                        StoreObjectState = 0x800b1280
                0x800e4b40                        TriggerEventFlag = 0x800e4b40
                0x800e0560                        _ZN8SaveFile14CheckIfWritingEv = 0x800e0560
                0x809337d0                        _Z8SaveGamePvb = 0x809337d0
                0x800e0560                        CheckIfWriting__8SaveFileFv = 0x800e0560
                0x809337d0                        SaveGame__FPvb = 0x809337d0
                0x8006a830                        _Z9DVD_Startv = 0x8006a830
                0x800df5f0                        _Z16DVD_StillLoadingPv = 0x800df5f0
                0x8006a8a0                        _Z7DVD_Endv = 0x8006a8a0
                0x8006a830                        DVD_Start__Fv = 0x8006a830
                0x800df950                        DVD_LoadFile__FPvPcPcPv = 0x800df950
                0x800df240                        DVD_FreeFile__FPvPc = 0x800df240
                0x800df5f0                        DVD_StillLoading__FPv = 0x800df5f0
                0x8006a8a0                        DVD_End__Fv = 0x8006a8a0
                0x800df290                        DVD_GetFile__FPvPCcPCc = 0x800df290
                0x800df2f0                        DVD_GetFile__FPvPCcPCcPUi = 0x800df2f0
                0x8008f280                        __ct__12dDvdLoader_cFv = 0x8008f280
                0x8008f2b0                        __dt__12dDvdLoader_cFv = 0x8008f2b0
                0x8008f2f0                        load__12dDvdLoader_cFPCcUcPv = 0x8008f2f0
                0x8008f450                        unload__12dDvdLoader_cFv = 0x8008f450
                0x803847e4                        SZSDecompClass = 0x803847e4
                0x803847f0                        LZDecompClass = 0x803847f0
                0x803847fc                        LHDecompClass = 0x803847fc
                0x80384808                        LRCDecompClass = 0x80384808
                0x80384814                        RLDecompClass = 0x80384814
                0x8016b5d0                        StoreCompressionClassList = 0x8016b5d0
                0x80436118                        DecompBufferPointer = 0x80436118
                0x8016bfe0                        TryAndFindCompressedFile = 0x8016bfe0
                0x80087ca0                        _Z22BgTexMng__LoadAnimTilePvisPcS0_c = 0x80087ca0
                0x80087ca0                        BgTexMng__LoadAnimTile__FPvisPcPcc = 0x80087ca0
                0x800b0f30                        _Z12ActivateWipei = 0x800b0f30
                0x800b0f30                        ActivateWipe__Fi = 0x800b0f30
                0x80436bf8                        CurrentDrawFunc = 0x80436bf8
                0x80437ab0                        currentHeap = 0x80437ab0
                0x8091d720                        _Z20GameSetup__LoadScenePv = 0x8091d720
                0x80164df0                        _Z9FreeScenei = 0x80164df0
                0x8091bb50                        _Z17GameSetupDrawFuncv = 0x8091bb50
                0x8092a950                        _Z16WorldMapDrawFuncv = 0x8092a950
                0x8091d720                        GameSetup__LoadScene__FPv = 0x8091d720
                0x80164df0                        FreeScene__Fi = 0x80164df0
                0x8091bb50                        GameSetupDrawFunc__Fv = 0x8091bb50
                0x8092a950                        WorldMapDrawFunc__Fv = 0x8092a950
                0x80004364                        memcpy = 0x80004364
                0x800046b4                        memset = 0x800046b4
                0x802e1fa8                        strncat = 0x802e1fa8
                0x802e1f38                        strncpy = 0x802e1f38
                0x802e1ff4                        strcmp = 0x802e1ff4
                0x802e1d1c                        sprintf = 0x802e1d1c
                0x802e2180                        strrchr = 0x802e2180
                0x802e4a54                        wcslen = 0x802e4a54
                0x802e4a70                        wcscpy = 0x802e4a70
                0x802251b0                        IOS_Open = 0x802251b0
                0x802253a0                        IOS_Close = 0x802253a0
                0x80225950                        IOS_Seek = 0x80225950
                0x80225550                        IOS_Read = 0x80225550
                0x80225760                        IOS_Write = 0x80225760
                0x804370ec                        ArchiveHeap = 0x804370ec
                0x80436cd8                        DVDClass = 0x80436cd8
                0x80436c1c                        GameMgrP = 0x80436c1c
                0x8036a9c0                        SaveFileBuffer = 0x8036a9c0
                0x80436ce0                        SaveFileInstance = 0x80436ce0
                0x80436c58                        SaveHandlerInstance = 0x80436c58
                0x80436bf0                        RemoconMng = 0x80436bf0
                0x80437104                        ActiveWiimoteID = 0x80437104
                0x80437108                        ActiveWiimote = 0x80437108
                0x80007610                        MakeScene = 0x80007610
                0x800df290                        GetRes = 0x800df290
                0x801650b0                        GetSceneLightInfo = 0x801650b0
                0x8023a820                        GetAnmScn = 0x8023a820
                0x80242c10                        BindAnmScn = 0x80242c10
                0x802c8d80                        AssignAnmScnToLightInfo = 0x802c8d80
                0x8091dab0                        LoadBlight = 0x8091dab0
                0x8091daa0                        LoadBlmap = 0x8091daa0
                0x800b4820                        _Z23QueryPlayerAvailabilityi = 0x800b4820
                0x800bb890                        _Z12DoStartLevelPvP10StartLevel = 0x800bb890
                0x801028e0                        _Z20SetSomeConditionShitiij = 0x801028e0
                0x8016fb80                        _Z8WpadShiti = 0x8016fb80
                0x800b5400                        _Z32CheckIfContinueShouldBeActivatedv = 0x800b5400
                0x80060250                        _Z24SearchForIndexOfPlayerIDi = 0x80060250
                0x800b4820                        QueryPlayerAvailability__Fi = 0x800b4820
                0x800bb890                        DoStartLevel__FPvP14StartLevelInfo = 0x800bb890
                0x801028e0                        SetSomeConditionShit__FiiUi = 0x801028e0
                0x8016fb80                        WpadShit__Fi = 0x8016fb80
                0x800b5400                        CheckIfContinueShouldBeActivated__Fv = 0x800b5400
                0x80060250                        SearchForIndexOfPlayerID__Fi = 0x80060250
                0x80162e00                        _Z18AllocFromGameHeap1j = 0x80162e00
                0x80162e60                        _Z17FreeFromGameHeap1Pv = 0x80162e60
                0x80162e00                        AllocFromGameHeap1__FUi = 0x80162e00
                0x80162e60                        FreeFromGameHeap1__FPv = 0x80162e60
                0x80162e00                        AllocFromGameHeap1 = 0x80162e00
                0x802ad080                        _Z19lyt__Layout__LayoutPv = 0x802ad080
                0x802ad0c0                        _Z15lyt__Layout__dtPvi = 0x802ad0c0
                0x802ad1f0                        _Z18lyt__Layout__BuildPvPKvS_ = 0x802ad1f0
                0x802b51a0                        ReplaceImage__Q34nw4r3lyt6TexMapFP10TPLPaletteUl = 0x802b51a0
                0x802b6b60                        _Z47nsmbw__ArcResourceAccessor__ArcResourceAccessorPv = 0x802b6b60
                0x80006930                        _Z30nsmbw__ArcResourceAccessor__dtPvi = 0x80006930
                0x802b6bc0                        _Z31nsmbw__ArcResourceAccessor__SetPvS_PKc = 0x802b6bc0
                0x80006a50                        _Z39nsmbw__ArcResourceAccessor__GetResourcePvmPKcPm = 0x80006a50
                0x802b5270                        _Z23lyt__DrawInfo__DrawInfoPv = 0x802b5270
                0x802b52f0                        _Z17lyt__DrawInfo__dtPvi = 0x802b52f0
                0x801c1150                        _Z15PSMTXTransApplyPA4_fS0_fff = 0x801c1150
                0x8008f2f0                        _Z13NSMBWLoadFileP15NSMBWFileHandlePciPv = 0x8008f2f0
                0x8008f450                        _Z13NSMBWFreeFileP15NSMBWFileHandle = 0x8008f450
                0x801643a0                        _Z16NSMBWBrlan__LoadPvPKcS_S_b = 0x801643a0
                0x801644f0                        _Z16NSMBWBrlan__FreePv = 0x801644f0
                0x801cabc0                        _Z24DVDConvertPathToEntrynumPKc = 0x801cabc0
                0x801caed0                        _Z11DVDFastOpeniP9DVDHandle = 0x801caed0
                0x801cb060                        _Z11DVDReadPrioP9DVDHandlePviii = 0x801cb060
                0x801caf40                        _Z8DVDCloseP9DVDHandle = 0x801caf40
                0x801cabc0                        DVDConvertPathToEntrynum__FPCc = 0x801cabc0
                0x801caed0                        DVDFastOpen__FiP9DVDHandle = 0x801caed0
                0x801cb060                        DVDReadPrio__FP9DVDHandlePviii = 0x801cb060
                0x801caf40                        DVDClose__FP9DVDHandle = 0x801caf40
                0x801cf910                        DVDCancel = 0x801cf910
                0x801cabc0                        DVDConvertPathToEntrynum = 0x801cabc0
                0x800e0490                        _ZN8SaveFile8GetBlockEi = 0x800e0490
                0x800e04c0                        _ZN8SaveFile10GetQSBlockEi = 0x800e04c0
                0x800e0490                        GetBlock__8SaveFileFi = 0x800e0490
                0x800e04c0                        GetQSBlock__8SaveFileFi = 0x800e04c0
                0x800ce4b0                        _ZN9SaveBlock17GetLevelConditionEii = 0x800ce4b0
                0x800ce4b0                        GetLevelCondition__9SaveBlockFii = 0x800ce4b0
                0x800ce4d0                        CheckLevelCondition__9SaveBlockFiii = 0x800ce4d0
                0x800ce500                        SetLevelCondition__9SaveBlockFiii = 0x800ce500
                0x800ce520                        UnsetLevelCondition__9SaveBlockFiii = 0x800ce520
                0x8076db90                        _Z20CheckIfWeCantDoStuffv = 0x8076db90
                0x800b3cd0                        _Z15QueryGlobal5758j = 0x800b3cd0
                0x800e05c0                        UpdateSavefileChecksums = 0x800e05c0
                0x8076db90                        CheckIfWeCantDoStuff__Fv = 0x8076db90
                0x800b3cd0                        QueryGlobal5758__FUi = 0x800b3cd0
                0x802b9200                        _Z16EGG__Heap__allocmiPv = 0x802b9200
                0x802b94b0                        _Z15EGG__Heap__freePvS_ = 0x802b94b0
                0x802b9200                        EGG__Heap__alloc__FUliPv = 0x802b9200
                0x802b94b0                        EGG__Heap__free__FPvPv = 0x802b94b0
                0x802b9790                        _Z5__nwam = 0x802b9790
                0x802dcd20                        _Z19construct_new_arrayPvS_S_ii = 0x802dcd20
                0x802dd050                        _Z11DeleteArrayPvS_ = 0x802dd050
                0x801c1890                        _Z8MTXOrthoPA4_fffffff = 0x801c1890
                0x801c9d80                        _Z15GXSetProjectionPA4_fh = 0x801c9d80
                0x802251b0                        _Z8IOS_OpenPKcj = 0x802251b0
                0x80225760                        _Z9IOS_WriteiPKvi = 0x80225760
                0x802253a0                        _Z9IOS_Closei = 0x802253a0
                0x802dcbdc                        _Z6strlenPKc = 0x802dcbdc
                0x802dcbdc                        strlen__FPCc = 0x802dcbdc
                0x802dcbdc                        strlen = 0x802dcbdc
                0x802e1e78                        strcpy = 0x802e1e78
                0x802e2110                        strncmp = 0x802e2110
                0x802e824c                        atan = 0x802e824c
                0x802e8c48                        atan2 = 0x802e8c48
                0x802e85f4                        cos = 0x802e85f4
                0x802e8afc                        sin = 0x802e8afc
                0x802e847c                        ceil = 0x802e847c
                0x802e86bc                        floor = 0x802e86bc
                0x80163ba0                        LayoutHelper_Link = 0x80163ba0
                0x802b9790                        __nwa__FUl = 0x802b9790
                0x800c8a60                        _Z19EmbeddedLayout_ctorP6Layout = 0x800c8a60
                0x800c8ab0                        _Z19EmbeddedLayout_dtorP6Layoutb = 0x800c8ab0
                0x800c9a40                        _Z19EmbeddedLayout_FreeP6Layout = 0x800c9a40
                0x800c8dc0                        _Z25EmbeddedLayout_LoadArcOldP6LayoutPKcb = 0x800c8dc0
                0x800c90c0                        _Z25EmbeddedLayout_LoadBrlansP6LayoutPPKci = 0x800c90c0
                0x800c9200                        _Z25EmbeddedLayout_LoadGroupsP6LayoutPPKcPii = 0x800c9200
                0x800c94e0                        _Z38EmbeddedLayout_ResetAnimToInitialStateP6Layoutib = 0x800c94e0
                0x800c9670                        _Z22EmbeddedLayout_ProcessP6Layout = 0x800c9670
                0x80163d90                        _Z28EmbeddedLayout_AddToDrawListP6Layout = 0x80163d90
                0x800c9400                        _Z32EmbeddedLayout_EnableNonLoopAnimP6Layoutib = 0x800c9400
                0x800c9490                        _Z29EmbeddedLayout_EnableLoopAnimP6Layouti = 0x800c9490
                0x800c9610                        _Z30EmbeddedLayout_DisableAllAnimsP6Layout = 0x800c9610
                0x800c9720                        _Z35EmbeddedLayout_CheckIfAnimationIsOnP6Layouti = 0x800c9720
                0x80007300                        _Z29EmbeddedLayout_FindPaneByNameP6LayoutPKc = 0x80007300
                0x80007320                        _Z32EmbeddedLayout_FindTextBoxByNameP6LayoutPKc = 0x80007320
                0x800c8a60                        EmbeddedLayout_ctor__FP6Layout = 0x800c8a60
                0x800c8ab0                        EmbeddedLayout_dtor__FP6Layoutb = 0x800c8ab0
                0x800c9a40                        EmbeddedLayout_Free__FP6Layout = 0x800c9a40
                0x800c8dc0                        EmbeddedLayout_LoadArcOld__FP6LayoutPKcb = 0x800c8dc0
                0x800c90c0                        EmbeddedLayout_LoadBrlans__FP6LayoutPPCci = 0x800c90c0
                0x800c9200                        EmbeddedLayout_LoadGroups__FP6LayoutPPCcPii = 0x800c9200
                0x800c94e0                        EmbeddedLayout_ResetAnimToInitialState__FP6Layoutib = 0x800c94e0
                0x800c9670                        EmbeddedLayout_Process__FP6Layout = 0x800c9670
                0x80163d90                        EmbeddedLayout_AddToDrawList__FP6Layout = 0x80163d90
                0x800c9400                        EmbeddedLayout_EnableNonLoopAnim__FP6Layoutib = 0x800c9400
                0x800c9490                        EmbeddedLayout_EnableLoopAnim__FP6Layouti = 0x800c9490
                0x800c9610                        EmbeddedLayout_DisableAllAnims__FP6Layout = 0x800c9610
                0x800c9720                        EmbeddedLayout_CheckIfAnimationIsOn__FP6Layouti = 0x800c9720
                0x80007300                        EmbeddedLayout_FindPaneByName__FP6LayoutPCc = 0x80007300
                0x80007320                        EmbeddedLayout_FindTextBoxByName__FP6LayoutPCc = 0x80007320
                0x800046b4                        _Z6memsetPvij = 0x800046b4
                0x802e1d1c                        _Z7sprintfPcPKcz = 0x802e1d1c
                0x802e1c28                        _Z8snprintfPciPKcz = 0x802e1c28
                0x802e1f7c                        _Z6strcatPKcS0_ = 0x802e1f7c
                0x800046b4                        _Z6memsetPvij = 0x800046b4
                0x802e1d1c                        sprintf__FPcPCce = 0x802e1d1c
                0x802e1c28                        snprintf__FPcUlPCce = 0x802e1c28
                0x802df5d8                        memcmp__FPCvPCvUi = 0x802df5d8
                0x802e1f7c                        _Z6strcatPKcS0_ = 0x802e1f7c
                0x802b9750                        _Znaj = 0x802b9750
                0x8024db10                        _Z23Hook_GetGXRenderModeObjv = 0x8024db10
                0x8024db10                        Hook_GetGXRenderModeObj__Fv = 0x8024db10
                0x802e8afc                        _Z3sinf = 0x802e8afc
                0x802e85f4                        _Z3cosf = 0x802e85f4
                0x8019fba0                        ARCInitHandle = 0x8019fba0
                0x8019fc40                        ARCOpen = 0x8019fc40
                0x8019fef0                        ARCFastOpen = 0x8019fef0
                0x8019ff40                        ARCConvertPathToEntrynum = 0x8019ff40
                0x801a0390                        ARCGetStartAddrInMem = 0x801a0390
                0x801a03b0                        ARCGetStartOffset = 0x801a03b0
                0x801a03c0                        ARCGetLength = 0x801a03c0
                0x801a03d0                        ARCClose = 0x801a03d0
                0x801a03e0                        ARCChangeDir = 0x801a03e0
                0x801a0440                        ARCOpenDir = 0x801a0440
                0x801a04c0                        ARCReadDir = 0x801a04c0
                0x801a0580                        ARCCloseDir = 0x801a0580
                0x801c70e0                        GXGetTexBufferSize = 0x801c70e0
                0x801ac9b0                        DCFlushRange = 0x801ac9b0
                0x801aca40                        DCStoreRangeNoSync = 0x801aca40
                0x801be420                        VIGetNextField = 0x801be420
                0x801c0a10                        PSMTXIdentity = 0x801c0a10
                0x801c0a40                        PSMTXCopy = 0x801c0a40
                0x801c0a80                        PSMTXConcat = 0x801c0a80
                0x801c0ce0                        PSMTXInverse = 0x801c0ce0
                0x801c0eb0                        PSMTXRotRad = 0x801c0eb0
                0x801c1090                        PSMTXRotAxisRad = 0x801c1090
                0x801c1110                        PSMTXTrans = 0x801c1110
                0x801c1150                        PSMTXTransApply = 0x801c1150
                0x801c11a0                        PSMTXScale = 0x801c11a0
                0x801c11d0                        PSMTXScaleApply = 0x801c11d0
                0x801c16a0                        PSMTXMultVec = 0x801c16a0
                0x801c1930                        PSVECAdd = 0x801c1930
                0x801c1960                        PSVECSubtract = 0x801c1960
                0x801c1990                        PSVECScale = 0x801c1990
                0x801c19b0                        PSVECNormalize = 0x801c19b0
                0x801c1a00                        PSVECMag = 0x801c1a00
                0x801c1a50                        PSVECDotProduct = 0x801c1a50
                0x801c1a70                        PSVECCrossProduct = 0x801c1a70
                0x801c1ab0                        PSVECSquareDistance = 0x801c1ab0
                0x801c1b90                        PSVECDistance = 0x801c1b90
                0x801c12e0                        C_MTXLookAt = 0x801c12e0
                0x801c1700                        C_MTXFrustum = 0x801c1700
                0x801c17a0                        C_MTXPerspective = 0x801c17a0
                0x801c1890                        C_MTXOrtho = 0x801c1890
                0x801c54b0                        GXPixModeSync = 0x801c54b0
                0x801c5ea0                        GXSetTexCopySrc = 0x801c5ea0
                0x801c5f10                        GXSetTexCopyDst = 0x801c5f10
                0x801c6480                        GXSetCopyFilter = 0x801c6480
                0x801c67d0                        GXCopyTex = 0x801c67d0
                0x801c3d00                        GXSetVtxDesc = 0x801c3d00
                0x801c45b0                        GXClearVtxDesc = 0x801c45b0
                0x801c45f0                        GXSetVtxAttrFmt = 0x801c45f0
                0x801c4cc0                        GXSetArray = 0x801c4cc0
                0x801c4d00                        GXInvalidateVtxCache = 0x801c4d00
                0x801c4d10                        GXSetTexCoordGen2 = 0x801c4d10
                0x801c4f60                        GXSetNumTexGens = 0x801c4f60
                0x801c5ab0                        GXBegin = 0x801c5ab0
                0x801c5ce0                        GXSetLineWidth = 0x801c5ce0
                0x801c5da0                        GXSetCullMode = 0x801c5da0
                0x801c6970                        GXInitLightAttn = 0x801c6970
                0x801c69b0                        GXInitLightSpot = 0x801c69b0
                0x801c6b50                        GXInitLightDistAttn = 0x801c6b50
                0x801c6c20                        GXInitLightPos = 0x801c6c20
                0x801c6c50                        GXInitLightDir = 0x801c6c50
                0x801c6ca0                        GXInitSpecularDir = 0x801c6ca0
                0x801c6db0                        GXInitLightColor = 0x801c6db0
                0x801c6dc0                        GXLoadLightObjImm = 0x801c6dc0
                0x801c6e40                        GXSetChanAmbColor = 0x801c6e40
                0x801c6f20                        GXSetChanMatColor = 0x801c6f20
                0x801c7000                        GXSetNumChans = 0x801c7000
                0x801c7030                        GXSetChanCtrl = 0x801c7030
                0x801c72d0                        GXInitTexObj = 0x801c72d0
                0x801c74e0                        GXInitTexObjCI = 0x801c74e0
                0x801c7530                        GXInitTexObjLOD = 0x801c7530
                0x801c7660                        GXInitTexObjTlut = 0x801c7660
                0x801c7640                        GXInitTexObjWrapMode = 0x801c7640
                0x801c7a00                        GXLoadTexObj = 0x801c7a00
                0x801c7c00                        GXInvalidateTexAll = 0x801c7c00
                0x801c8650                        GXSetNumIndStages = 0x801c8650
                0x801c8670                        GXSetTevDirect = 0x801c8670
                0x801c8790                        GXSetTevOp = 0x801c8790
                0x801c8830                        GXSetTevColorIn = 0x801c8830
                0x801c8870                        GXSetTevAlphaIn = 0x801c8870
                0x801c88b0                        GXSetTevColorOp = 0x801c88b0
                0x801c8910                        GXSetTevAlphaOp = 0x801c8910
                0x801c8970                        GXSetTevColor = 0x801c8970
                0x801c89d0                        GXSetTevColorS10 = 0x801c89d0
                0x801c8a40                        GXSetTevKColor = 0x801c8a40
                0x801c8aa0                        GXSetTevKColorSel = 0x801c8aa0
                0x801c8af0                        GXSetTevKAlphaSel = 0x801c8af0
                0x801c8b40                        GXSetTevSwapMode = 0x801c8b40
                0x801c8b80                        GXSetTevSwapModeTable = 0x801c8b80
                0x801c8c00                        GXSetAlphaCompare = 0x801c8c00
                0x801c8cd0                        GXSetTevOrder = 0x801c8cd0
                0x801c8e30                        GXSetNumTevStages = 0x801c8e30
                0x801c8e60                        GXSetFog = 0x801c8e60
                0x801c91f0                        GXSetFogRangeAdj = 0x801c91f0
                0x801c9300                        GXSetBlendMode = 0x801c9300
                0x801c9350                        GXSetColorUpdate = 0x801c9350
                0x801c9380                        GXSetAlphaUpdate = 0x801c9380
                0x801c93b0                        GXSetZMode = 0x801c93b0
                0x801c93f0                        GXSetZCompLoc = 0x801c93f0
                0x801c94d0                        GXSetDither = 0x801c94d0
                0x801c9500                        GXSetDstAlpha = 0x801c9500
                0x801c9b20                        GXCallDisplayList = 0x801c9b20
                0x801c9d80                        GXSetProjection = 0x801c9d80
                0x801c9e80                        GXLoadPosMtxImm = 0x801c9e80
                0x801c9f00                        GXLoadNrmMtxImm = 0x801c9f00
                0x801c9fa0                        GXSetCurrentMtx = 0x801c9fa0
                0x801ca110                        GXSetViewportJitter = 0x801ca110
                0x801ca150                        GXSetViewport = 0x801ca150
                0x801c53e0                        GXDrawDone = 0x801c53e0
                0xcc008000                        wgPipe = 0xcc008000
                0x80228710                        TPLBind = 0x80228710
                0x80228830                        TPLGet = 0x80228830
                0x801d7460                        CXInitUncompContextLH = 0x801d7460
                0x801d74a0                        CXReadUncompLH = 0x801d74a0
                0x801d8690                        CXGetUncompressedSize = 0x801d8690
                0x801d86d0                        CXUncompressLZ = 0x801d86d0
                0x80069200                        mHeapAllocatorSubclass_Link = 0x80069200
                0x80069220                        mHeapAllocatorSubclass_UnLink = 0x80069220
                0x8023a370                        GetResMdl = 0x8023a370
                0x8023a5f0                        GetResAnmChr = 0x8023a5f0
                0x8023a660                        GetResAnmVis = 0x8023a660
                0x8023a6d0                        GetResAnmClr = 0x8023a6d0
                0x8023a740                        GetResAnmTexPat = 0x8023a740
                0x8023a7b0                        GetResAnmTexSrt = 0x8023a7b0
                0x8023a5f0                        GetResAnmChr__Q34nw4r3g3d7ResFileCFPCc = 0x8023a5f0
                0x8023a660                        GetResAnmVis__Q34nw4r3g3d7ResFileCFPCc = 0x8023a660
                0x8023a6d0                        GetResAnmClr__Q34nw4r3g3d7ResFileCFPCc = 0x8023a6d0
                0x8023a740                        GetResAnmTexPat__Q34nw4r3g3d7ResFileCFPCc = 0x8023a740
                0x8023a7b0                        GetResAnmTexSrt__Q34nw4r3g3d7ResFileCFPCc = 0x8023a7b0
                0x8035c9a0                        __vt__Q23EGG9Allocator = 0x8035c9a0
                0x8016ab20                        __ct__12mAllocator_cFv = 0x8016ab20
                0x803363ec                        __vt__12mAllocator_c = 0x803363ec
                0x8016ab70                        __dt__12mAllocator_cFv = 0x8016ab70
                0x8016abd0                        setup__12mAllocator_cFPvi = 0x8016abd0
                0x80336308                        __vt__Q23m3d6banm_c = 0x80336308
                0x80168400                        __dt__Q23m3d6banm_cFv = 0x80168400
                0x80168470                        detach__Q23m3d6banm_cFv = 0x80168470
                0x8002a260                        process__Q23m3d6banm_cFv = 0x8002a260
                0x801684e0                        setupHeap__Q23m3d6banm_cFv = 0x801684e0
                0x801685a0                        testAnmFlag__Q23m3d6banm_cFv = 0x801685a0
                0x801685c0                        getCurrentFrame__Q23m3d6banm_cFv = 0x801685c0
                0x801685e0                        setCurrentFrame__Q23m3d6banm_cFf = 0x801685e0
                0x80168600                        getUpdateRate__Q23m3d6banm_cFv = 0x80168600
                0x80168620                        setUpdateRate__Q23m3d6banm_cFf = 0x80168620
                0x80169250                        __ct__Q23m3d6fanm_cFv = 0x80169250
                0x80336350                        __vt__Q23m3d6fanm_c = 0x80336350
                0x801692c0                        __dt__Q23m3d6fanm_cFv = 0x801692c0
                0x80169320                        process__Q23m3d6fanm_cFv = 0x80169320
                0x80169520                        setCurrentFrame__Q23m3d6fanm_cFf = 0x80169520
                0x80169560                        isAnimationDone__Q23m3d6fanm_cFv = 0x80169560
                0x80169620                        querySomething__Q23m3d6fanm_cFv = 0x80169620
                0x8030fc48                        __vt__Q23m3d8anmChr_c = 0x8030fc48
                0x80026130                        __dt__Q23m3d8anmChr_cFv = 0x80026130
                0x8002a280                        vf0C__Q23m3d8anmChr_cFv = 0x8002a280
                0x80165610                        setup__Q23m3d8anmChr_cFQ34nw4r3g3d6ResMdlQ34nw4r3g3d9ResAnmChrP12mAllocator_cPUi = 0x80165610
                0x80165730                        bind__Q23m3d8anmChr_cFPQ23m3d5mdl_cQ34nw4r3g3d9ResAnmChrb = 0x80165730
                0x801657c0                        internalBind__Q23m3d8anmChr_cFv = 0x801657c0
                0x80add728                        __vt__Q23m3d8anmVis_c = 0x80add728
                0x809b7590                        __dt__Q23m3d8anmVis_cFv = 0x809b7590
                0x809b9120                        vf0C__Q23m3d8anmVis_cFv = 0x809b9120
                0x80168180                        setup__Q23m3d8anmVis_cFQ34nw4r3g3d6ResMdlQ34nw4r3g3d9ResAnmVisP12mAllocator_cPUi = 0x80168180
                0x801682a0                        bind__Q23m3d8anmVis_cFPQ23m3d5mdl_cQ34nw4r3g3d9ResAnmVisb = 0x801682a0
                0x80168390                        internalBind__Q23m3d8anmVis_cFv = 0x80168390
                0x80336248                        __vt__Q23m3d8anmClr_c = 0x80336248
                0x801663b0                        __dt__Q23m3d8anmClr_cFv = 0x801663b0
                0x801668e0                        vf0C__Q23m3d8anmClr_cFv = 0x801668e0
                0x80166170                        setup__Q23m3d8anmClr_cFQ34nw4r3g3d6ResMdlQ34nw4r3g3d9ResAnmClrP12mAllocator_cPUii = 0x80166170
                0x80166510                        bind__Q23m3d8anmClr_cFPQ23m3d5mdl_cQ34nw4r3g3d9ResAnmClrii = 0x80166510
                0x80166820                        getFrameForEntry__Q23m3d8anmClrFv = 0x80166820
                0x80166830                        setFrameForEntry__Q23m3d8anmClrFfi = 0x80166830
                0x80166840                        getUpdateRateForEntry__Q23m3d8anmClrFv = 0x80166840
                0x80166850                        setUpdateRateForEntry__Q23m3d8anmClrFfi = 0x80166850
                0x80166860                        isEntryAnimationDone__Q23m3d8anmClrFv = 0x80166860
                0x80166870                        queryEntrySomething__Q23m3d8anmClrFv = 0x80166870
                0x80166880                        setEntryByte34__Q23m3d8anmClrFUci = 0x80166880
                0x801668a0                        getEntryField28__Q23m3d8anmClrFv = 0x801668a0
                0x80336278                        __vt__Q23m3d11anmTexPat_c = 0x80336278
                0x80166fb0                        __dt__Q23m3d11anmTexPat_cFv = 0x80166fb0
                0x80167020                        detach__Q23m3d11anmTexPat_cFv = 0x80167020
                0x80166d70                        setup__Q23m3d11anmTexPat_cFQ34nw4r3g3d6ResMdlQ34nw4r3g3d12ResAnmTexPatP12mAllocator_cPUii = 0x80166d70
                0x80167110                        bindEntry__Q23m3d11anmTexPat_cFv = 0x80167110
                0x80167110                        bindEntry__Q23m3d11anmTexPat_cFPQ23m3d5mdl_cPQ34nw4r3g3d12ResAnmTexPatii = 0x80167110
                0x80167310                        process__Q23m3d11anmTexPat_cFv = 0x80167310
                0x801673c0                        processOneEntry__Q23m3d11anmTexPat_cFv = 0x801673c0
                0x80167420                        getFrameForEntry__Q23m3d11anmTexPat_cFi = 0x80167420
                0x80167430                        setFrameForEntry__Q23m3d11anmTexPat_cFfi = 0x80167430
                0x80167440                        getUpdateRateForEntry__Q23m3d11anmTexPat_cFv = 0x80167440
                0x80167450                        setUpdateRateForEntry__Q23m3d11anmTexPat_cFfi = 0x80167450
                0x80167460                        isEntryAnimationDone__Q23m3d11anmTexPat_cFv = 0x80167460
                0x80167470                        queryEntrySomething__Q23m3d11anmTexPat_cFv = 0x80167470
                0x80167480                        setEntryByte34__Q23m3d11anmTexPat_cFUci = 0x80167480
                0x801674a0                        getEntryField28__Q23m3d11anmTexPat_cFv = 0x801674a0
                0x801674c0                        vf0C__Q23m3d11anmTexPat_cFv = 0x801674c0
                0x80167880                        AllocSizeForAnmTexSrt = 0x80167880
                0x80167960                        setup__Q23m3d11anmTexSrt_cFQ34nw4r3g3d6ResMdlQ34nw4r3g3d12ResAnmTexSrtP12mAllocator_cPUii = 0x80167960
                0x803362a8                        __vt__Q23m3d11anmTexSrt_c = 0x803362a8
                0x80167be0                        __dt__Q23m3d11anmTexSrt_cFv = 0x80167be0
                0x80167c50                        detach__Q23m3d11anmTexSrt_cFv = 0x80167c50
                0x80167d40                        bindEntry__Q23m3d11anmTexSrt_cFPQ23m3d5mdl_cQ34nw4r3g3d12ResAnmTexSrtii = 0x80167d40
                0x80167e80                        sub80167a80__Q23m3d11anmTexSrt_cFv = 0x80167e80
                0x80167f40                        process__Q23m3d11anmTexSrt_cFv = 0x80167f40
                0x80167ff0                        processOneEntry__Q23m3d11anmTexSrt_cFi = 0x80167ff0
                0x80168050                        getFrameForEntry__Q23m3d11anmTexSrt_cFi = 0x80168050
                0x80168060                        setFrameForEntry__Q23m3d11anmTexSrt_cFfi = 0x80168060
                0x80168070                        getUpdateRateForEntry__Q23m3d11anmTexSrt_cFi = 0x80168070
                0x80168080                        setUpdateRateForEntry__Q23m3d11anmTexSrt_cFfi = 0x80168080
                0x80168090                        isEntryAnimationDone__Q23m3d11anmTexSrt_cFi = 0x80168090
                0x801680a0                        setEntryByte34__Q23m3d11anmTexSrt_cFUci = 0x801680a0
                0x801680c0                        getEntryField28__Q23m3d11anmTexSrt_cFi = 0x801680c0
                0x801680e0                        getEntryField2C__Q23m3d11anmTexSrt_cFi = 0x801680e0
                0x80168100                        vf0C__Q23m3d11anmTexSrt_cFv = 0x80168100
                0x8016a2d0                        m3d__mdl_c__DoStuff = 0x8016a2d0
                0x802dd72c                        __ashldi3 = 0x802dd72c
                0x80163240                        _Z13FindActorByIDj = 0x80163240
                0x80163240                        FindActorByID__FUi = 0x80163240
                0x80436d18                        EventTable = 0x80436d18
                0x80436a78                        dBgActorManager = 0x80436a78
                0x8007ebdc                        ContinueBgActorSpawn = 0x8007ebdc
                0x80165610                        SomeModelAnimationClass_Setup = 0x80165610
                0x80436d2c                        EGGTSystem_Pointer = 0x80436d2c
                0x80436d30                        dSys_c__RootHeapMEM1 = 0x80436d30
                0x80436d34                        dSys_c__RootHeapMEM2 = 0x80436d34
                0x80436a70                        BG_GM_ptr = 0x80436a70
                0x80436a70                        instance__7dBgGm_c = 0x80436a70
                0x80436a7c                        BgActorDefs = 0x80436a7c
                0x80077660                        _Z16GetPointerToTileP9BG_GM_haxtttPsb = 0x80077660
                0x80077660                        GetPointerToTile__FP9BG_GM_haxUsUsUsPsb = 0x80077660
                0x8038494c                        GameHeap1 = 0x8038494c
                0x80384950                        GameHeap2 = 0x80384950
                0x80384988                        WiimotePtr1 = 0x80384988
                0x807efd34                        continueFromFlagObjCheck = 0x807efd34
                0x807efd4c                        returnFromFlagObjCheck = 0x807efd4c
                0x80436be8                        Global5758 = 0x80436be8
                0x8043699a                        GlobalEnableFlag = 0x8043699a
                0x80436bf0                        EggControllerClassPtrMaybe = 0x80436bf0
                0x801d4d20                        MEMGetTotalFreeSizeForExpHeap = 0x801d4d20
                0x80064d10                        sub_80064BD0 = 0x80064d10
                0x80166d70                        sub_80166970 = 0x80166d70
                0x80167110                        sub_80166D10 = 0x80167110
                0x80b1a1a0                        daEnGakeNoko_c__StateID_FoolMove = 0x80b1a1a0
                0x80a2e784                        EnItem_BindAnimation_Continued = 0x80a2e784
                0x80145fd0                        dAcPy_c__ChangePowerupWithAnimation = 0x80145fd0
                0x8013c0a0                        PlayerProjectileShooting = 0x8013c0a0
                0x80057f50                        PlayPlayerSound = 0x80057f50
                0x80064750                        CreateActor = 0x80064750
                0x80163290                        Actor_SearchByName = 0x80163290
                0x80a31400                        daEnItem_c__GetWhetherPlayerCanGetPowerupOrNot = 0x80a31400
                0x801423c8                        returnFromGPSFASixth = 0x801423c8
                0x800ca73c                        continuePlumberSetPowerupTexture = 0x800ca73c
                0x800d485c                        doneSettingThePowerupTexture = 0x800d485c
                0x80141944                        doneSettingThePowerupTexture2 = 0x80141944
                0x800bd094                        continueToadPowerupSet = 0x800bd094
                0x800ca6d4                        continuePlumberSetPowerupTextureDebug = 0x800ca6d4
                0x8014180c                        returnFromPowerupSoundChange = 0x8014180c
                0x807e5754                        ExitFromTileGodHack = 0x807e5754
                0x802f5798                        SomeTable_802F5440 = 0x802f5798
                0x802f58d8                        SomeTable_802F5580 = 0x802f58d8
                0x802f5a18                        SomeTable_802F56C0 = 0x802f5a18
                0x80331f88                        BlahTable = 0x80331f88
                0x802efff8                        TileTable = 0x802efff8
                0x803223dd                        CurrentLevel = 0x803223dd
                0x803223dc                        CurrentWorld = 0x803223dc
                0x803223d6                        CurrentStartedArea = 0x803223d6
                0x803223d7                        CurrentStartedEntrance = 0x803223d7
                0x800b3040                        GetRandomSeed = 0x800b3040
                0x80436be4                        RandomSeed = 0x80436be4
                0x800b3060                        MakeRandomNumber__Fi = 0x800b3060
                0x801618e0                        MakeRandomNumberForTiles__Fi = 0x801618e0
                0x8043462e                        StrangeReplayValue1 = 0x8043462e
                0x80436a09                        StrangeReplayValue2 = 0x80436a09
                0x80436a0a                        StrangeReplayValue3 = 0x80436a0a
                0x801b64c0                        OSGetTime = 0x801b64c0
                0x801b65c0                        OSTicksToCalendarTime = 0x801b65c0
                0x802e1c28                        snprintf = 0x802e1c28
                0x809288c4                        continueFromReplayHookStart = 0x809288c4
                0x8010233c                        continueFromReplayEndHook = 0x8010233c
                0x800b6180                        returnFromRecorder = 0x800b6180
                0x809238cc                        dontSkipReplayPrepare = 0x809238cc
                0x80923aec                        doSkipReplayPrepare = 0x80923aec
                0x801099a0                        GetSomeGlobalClass = 0x801099a0
                0x80436f38                        SomeUnknownClass5408 = 0x80436f38
                0x804370e0                        SomeWipeClass = 0x804370e0
                0x800b3cd0                        QueryGlobal5758 = 0x800b3cd0
                0x809a72a8                        Crsin_EffectResWaitProc = 0x809a72a8
                0x809a7268                        Crsin_ReplayResWaitProc = 0x809a7268
                0x804369fc                        SoundClassRelated = 0x804369fc
                0x80437128                        BufferToCheckIfPlaying = 0x80437128
                0x801959e0                        StopSoundBasic = 0x801959e0
                0x80196450                        StopSoundRelated = 0x80196450
                0x8017da60                        GetHermiteCurveValue = 0x8017da60
                0x8017da60                        GetHermiteCurveValue__FfP10HermiteKeyUi = 0x8017da60
                0x8016cdd0                        SpawnEffect = 0x8016cdd0
                0x802d7fe0                        __ct__Q23EGG6EffectFv = 0x802d7fe0
                0x80336750                        __vt__Q23mEf8effect_c = 0x80336750
                0x80336688                        __vt__Q23mEf3es2 = 0x80336688
                0x80025fd0                        __dt__Q23mEf3es2Fv = 0x80025fd0
                0x800b3280                        RectanglesOverlap__FP7Point3dP7Point3dP7Point3dP7Point3d = 0x800b3280
                0x802e8c4c                        fmod = 0x802e8c4c
                0x80096620                        usedForDeterminingStatePress_or_playerCollision = 0x80096620
                0x800972f0                        DoStuffAndMarkDead = 0x800972f0
                0x8015fa30                        SmoothRotation = 0x8015fa30
                0x8006d1d0                        ClassAt1EC_Init = 0x8006d1d0
                0x8009ebd0                        HandlesOverallScale = 0x8009ebd0
                0x800b57f0                        posIsInZone = 0x800b57f0
                0x80436ca8                        ScreenPositionClass = 0x80436ca8
                0x800d8d70                        ShakeScreen = 0x800d8d70
                0x80aed838                        //__vt__9daEnemy_c = 0x80aed838
                0x809aa9a0                        _vf58__9daEnemy_cFv = 0x809aa9a0
                0x809aa990                        _vf5C__9daEnemy_cFv = 0x809aa990
                0x809aa9e0                        _vf68__9daEnemy_cFv = 0x809aa9e0
                0x809a8a10                        ptrToWhichPlayer__9daEnemy_cFv = 0x809a8a10
                0x809aa9d0                        _vf74__9daEnemy_cFv = 0x809aa9d0
                0x809aa9c0                        _vf7C__9daEnemy_cFv = 0x809aa9c0
                0x809aa9b0                        _vfB8__9daEnemy_cFv = 0x809aa9b0
                0x809aaa20                        _vf228__9daEnemy_cFv = 0x809aaa20
                0x809aaa10                        _vf23C__9daEnemy_cFv = 0x809aaa10
                0x809aaa00                        _vf240__9daEnemy_cFv = 0x809aaa00
                0x809aa9f0                        _vf244__9daEnemy_cFv = 0x809aa9f0
                0x809faf90                        __ct_11daEnDosun_cFv = 0x809faf90
                0x809fb020                        __ct_14daEnBigDosun_cFv = 0x809fb020
                0x80aed7f8                        __vt__11daEnDosun_c = 0x80aed7f8
                0x809fb0b0                        onCreate__11daEnDosun_cFv = 0x809fb0b0
                0x809fb490                        onDelete__11daEnDosun_cFv = 0x809fb490
                0x809fb310                        onExecute__11daEnDosun_cFv = 0x809fb310
                0x809fb360                        onDraw__11daEnDosun_cFv = 0x809fb360
                0x809fc600                        __dt_11daEnDosun_cFv = 0x809fc600
                0x809fc5d0                        kill__11daEnDosun_cFv = 0x809fc5d0
                0x809fbcd0                        killedByLevelClear__11daEnDosun_cFv = 0x809fbcd0
                0x809fb510                        collisionCat3_StarPower__11daEnDosun_cFP13ActivePhysicsP13ActivePhysics = 0x809fb510
                0x809fb4a0                        _vf108__11daEnDosun_cFP13ActivePhysicsP13ActivePhysics = 0x809fb4a0
                0x809fc5f0                        collisionCatD_Drill__11daEnDosun_cFP13ActivePhysicsP13ActivePhysics = 0x809fc5f0
                0x809fb550                        _vf110__11daEnDosun_cFP13ActivePhysicsP13ActivePhysics = 0x809fb550
                0x809fc5e0                        collisionCat7_GroundPound__11daEnDosun_cFP13ActivePhysicsP13ActivePhysics = 0x809fc5e0
                0x809fc560                        collisionCat9_RollingObject__11daEnDosun_cFP13ActivePhysicsP13ActivePhysics = 0x809fc560
                0x809fc5a0                        collisionCat1_Fireball_E_Explosion__11daEnDosun_cFP13ActivePhysicsP13ActivePhysics = 0x809fc5a0
                0x809fc570                        collisionCat2_IceBall_15_YoshiIce__11daEnDosun_cFP13ActivePhysicsP13ActivePhysics = 0x809fc570
                0x809fb5e0                        _vf144__11daEnDosun_cFi = 0x809fb5e0
                0x809fc2c0                        DieFall_Begin__11daEnDosun_cFv = 0x809fc2c0
                0x809fc3d0                        DieFall_Execute__11daEnDosun_cFv = 0x809fc3d0
                0x809fc3c0                        DieFall_End__11daEnDosun_cFv = 0x809fc3c0
                0x809fc4e0                        Ice_Begin__11daEnDosun_cFv = 0x809fc4e0
                0x809fc550                        Ice_Execute__11daEnDosun_cFv = 0x809fc550
                0x809fc540                        Ice_End__11daEnDosun_cFv = 0x809fc540
                0x809fb720                        CreateIceActors__11daEnDosun_cFv = 0x809fb720
                0x809fb8b0                        setupBodyModel__11daEnDosun_cFv = 0x809fb8b0
                0x809fb9f0                        s_809F6530__11daEnDosun_cFv = 0x809fb9f0
                0x809fbb60                        spawnEffects__11daEnDosun_cFv = 0x809fbb60
                0x80b19930                        StateID_UpWait__11daEnDosun_c = 0x80b19930
                0x80b19970                        StateID_DownMoveWait__11daEnDosun_c = 0x80b19970
                0x80b199b0                        StateID_PuruMove__11daEnDosun_c = 0x80b199b0
                0x80b199f0                        StateID_DownMove_Kameck__11daEnDosun_c = 0x80b199f0
                0x80b19a30                        StateID_DownMove__11daEnDosun_c = 0x80b19a30
                0x80b19a70                        StateID_DownWait__11daEnDosun_c = 0x80b19a70
                0x80b19ab0                        StateID_UpMove__11daEnDosun_c = 0x80b19ab0
                0x80b19aec                        StateID_DieFall__11daEnDosun_c = 0x80b19aec
                0x80b19b2c                        StateID_Ice__11daEnDosun_c = 0x80b19b2c
                0x809fbb60                        SpawnThwompEffects = 0x809fbb60
                0x80056450                        HurtMarioBecauseOfBeingSquashed = 0x80056450
                0x804369e0                        instance__7StageE4 = 0x804369e0
                0x80066b80                        killAllEnemiesAtLevelEnd__7StageE4Fi = 0x80066b80
                0x8099ee88                        JrClownEndDemoState = 0x8099ee88
                0x8099ed84                        JrClownDemoWaitState = 0x8099ed84
                0x80364adc                        ClownDemoWaitState = 0x80364adc
                0x80066770                        spawnCoinJump__7StageE4FRC7Point3diii = 0x80066770
                0x800758f0                        sub_800757B0__14collisionMgr_cFP7Point3dPfUcic = 0x800758f0
                0x803e7260                        sException__Q24nw4r2dbFv = 0x803e7260

.text           0x00000000    0x7548c
 FILL mask 0x00000000
                0x00000000                        __text_start = .
 *(.init)
 *(.text)
 .text          0x00000000       0x98 tmp\1.o
                0x00000000                Prolog
 .text          0x00000098       0xc0 tmp\2.o
                0x00000098                GenericCorseClear
 .text          0x00000158       0x5c tmp\4.o
                0x00000158                TimerAdjustments
                0x0000018c                OneHitKill
 .text          0x000001b4       0xf4 tmp\6.o
                0x000001b4                StaffCreditsAddAllCoins
                0x000001d4                StaffCreditsNoScore
                0x000001f0                AutoScrollInjector
                0x00000230                PlayerRotInjector
                0x00000258                PlayerRotInjector2
                0x00000280                PlayerRotInjector3
 .text          0x000002a8      0x2e8 tmp\10.o
                0x000002a8                FSShowCD
                0x000002b4                FSHideCD
                0x000002c0                FSShowCD_OpenWait
                0x000002e0                DFNiceTitle
                0x00000310                DFNiceWorldName
                0x00000454                FSDebugStates
                0x000004b4                DefaultSavefileInfo
                0x000004e4                FixUpExistingSavefile
 .text          0x00000590      0x4dc tmp\15.o
                0x00000590                IcicleFix
                0x000005a0                JrFloorFireHax
                0x000005c8                TryAndFixScoreGlitch
                0x000005ec                ThwompNewAutoDestruction
                0x00000628                TitleScreenFucker
                0x000006bc                mpPauseFix3
                0x000006dc                mpPauseFix1
                0x000006e8                mpPauseFix2
                0x000006f4                mpPauseFix4
                0x00000748                newClimbSounds
                0x00000750                newClimbSoundsJump
                0x00000758                newClimbSoundsJumpS
                0x00000760                newClimbSoundsJumpSS
                0x00000768                newClimbSoundsLand
                0x00000770                newClimbSoundsAttack
                0x000007b8                TextWriterCrap
                0x000007f4                HeapChangeAttempt
                0x00000804                UniversalFunctionLog
                0x00000884                EndSCM
                0x000008ac                PowEvent
                0x000008e4                GiganticBackgrounds
                0x0000092c                ExitStageReal
                0x00000934                FixFireballSensorSetup
                0x00000950                BigMetSlidingFix
                0x00000984                FuckLineLiftWithARake
                0x000009a0                AlsoFuckTheLineLiftActivation
                0x00000a4c                RedRingEventControl
                0x00000a60                EFB_Crap
 .text          0x00000a6c       0x30 tmp\17.o
                0x00000a6c                fix38WithJumpCoin
                0x00000a94                PreventW5Vine
 .text          0x00000a9c       0x14 tmp\18.o
                0x00000a9c                ReturnNone
                0x00000aa0                ReturnTrue
                0x00000aa8                ReturnFalse
 .text          0x00000ab0       0x14 tmp\20.o
                0x00000ab0                ClearLastPowerupStoreTypeAfterGameOver
 .text          0x00000ac4      0x11c tmp\23.o
                0x00000ac4                LoadMapScene
 .text          0x00000be0        0x0 tmp\36.o
 .text          0x00000be0      0x158 tmp\40.o
                0x00000be0                PlaySound
                0x00000c68                PlaySoundAsync
                0x00000ccc                StopSound
                0x00000cf0                KnockMarioBack
 .text          0x00000d38      0xdf4 tmp\45.o
                0x00000d38                BigBlockSound
                0x00000d90                BigBlockLeapingItem
                0x00000d98                BooZOrder
                0x00000dc4                GetTexFilenameForR5
                0x00000e30                TEX_YoshiEggSetColour
                0x00000e80                TEX_YoshiEggSetBrres
                0x00000eb0                TEX_YoshiEggSetFrame
                0x00000ebc                TEX_YoshiEggEffect
                0x00000ec8                TEX_YoshiSetColour
                0x00000ed4                TEX_YoshiHack
                0x00000f50                TEX_WoodBox
                0x00000f5c                TEX_Bush
                0x00000f64                TEX_TobiPuku
                0x00000f70                TobiPukuBypass
                0x00000f84                TobiPukuEffectChange
                0x00000fa0                TobiPukuSoundChange
                0x00000fbc                IgaPukuBypass
                0x00000fcc                IgaPukuNoEffect1
                0x00000fe0                IgaPukuChangeEffect2
                0x00000ffc                IgaPukuSoundChange
                0x00001018                TEX_Coaster
                0x00001018                TEX_Goomba
                0x00001018                TEX_SpinyShell
                0x00001018                TEX_BuzzyShell
                0x00001028                TEX_BigBoo
                0x00001038                TEX_GabonRock
                0x00001038                TEX_CloudBounce
                0x00001038                TEX_BigBlock
                0x00001038                TEX_BlockSlide
                0x00001038                TEX_Manta
                0x00001048                TEX_Huckit
                0x00001048                TEX_PokeyB
                0x00001048                TEX_CheepChomp
                0x00001048                TEX_ParaBomb
                0x00001048                TEX_ChainChomp
                0x00001048                TEX_Monty
                0x00001048                TEX_GiantBuzzy
                0x00001048                TEX_Bramball
                0x00001048                TEX_IgaPuku
                0x00001048                TEX_Buzzy
                0x00001048                TEX_Gabon
                0x00001048                TEX_SpikeTop
                0x00001048                TEX_Koopa
                0x00001048                TEX_Bomb
                0x00001048                TEX_Thwomp
                0x00001048                TEX_Parabeetle
                0x00001058                TEX_StretchMush
                0x00001058                TEX_BigShell
                0x00001058                TEX_Spiny
                0x00001058                TEX_Boo
                0x00001058                TEX_SpringBlock
                0x00001058                TEX_PokeyA
                0x00001058                TEX_Barrel
                0x00001058                HammerColour
                0x00001058                TEX_Blooper
                0x00001058                TEX_HuckitBalls
                0x00001058                TEX_SpikeBall
                0x00001058                TEX_LightBlock
                0x00001058                TEX_Goal
                0x00001058                TEX_AirshipGear
                0x00001058                TEX_Spinner
                0x00001058                TEX_BigGoomba
                0x00001068                TEX_Podoboo
                0x00001078                TEX_BigIcicle
                0x00001088                TEX_MushroomPlatform
                0x00001098                TEX_RollingHills
                0x000010b4                TEX_Gabon_Spike
                0x000010bc                TEX_Switch
                0x000010cc                TEX_WiggleShroom
                0x000010dc                TEX_MantaInherit
                0x000010f0                TEX_CheepA
                0x00001100                TEX_CheepB
                0x00001110                TEX_CheepC
                0x00001120                TEX_Midway
                0x00001130                TEX_ColorBlock
                0x0000114c                TEX_Platforms
                0x00001164                TEX_Platform_ShifterH
                0x00001174                TEX_Platform_ShifterF
                0x00001184                TEX_Platform_ShifterL
                0x00001194                TEX_Platform_ShifterR
                0x000011a4                TEX_Platform_ShifterS
                0x000011b4                TEX_Platform_ShifterK
                0x000011c4                TEX_Platform_ShifterW
                0x000011d4                TEX_Platform_ShifterSL
                0x000011e4                TEX_SnowmanSandToSnow
                0x0000120c                TEX_SnowmanSandToSnowB
                0x0000123c                TEX_PokeySnowmanRotate
                0x00001260                TEX_PokeySnowmanImmuneToIce
                0x00001280                TEX_PokeySnowman
                0x000012ec                TEX_PokeySnowmanPos
                0x00001354                TEX_PokeyC
                0x00001374                TEX_PokeyNoSand
                0x0000137c                TEX_HuckitBallsInherit
                0x00001390                BomheiForceFacingDirection
                0x000013b0                BomheiCollisionCallback
                0x000013cc                JustOneBomb
                0x000013e8                HammerTime
                0x000014dc                HammerLaunch
                0x00001654                HammerDontTrashEn450
                0x00001674                HammerDontTrashEn420
                0x00001688                HammerIgnoreEn420
                0x000016a0                HammerSpin
                0x000016b8                HammerLeft
                0x000016f0                TEX_BlackFlakes
                0x0000185c                TEX_Flakes
                0x00001904                TEX_CrabBallBurst
                0x00001930                TEX_CrabBallSmoke
                0x0000195c                ChangeWindyColour
                0x00001988                GLOW_LightBlock
                0x000019a8                CloudLT_Execute
                0x00001a18                TEX_CloudLT_A
                0x00001a3c                TEX_CloudLT_B
                0x00001a60                TEX_CloudLT_C
                0x00001a84                BigMetPowFix
                0x00001a94                TogeMetPowFix
                0x00001aa8                TogeMetHammerFix
                0x00001ac4                TogeMetIceFix
                0x00001ae0                NoteBlockTex
                0x00001af0                TEX_RollingBarrel
                0x00001b00                IceAshibaRail_ZOrder
 .text          0x00001b2c      0xc40 tmp\46.o
                0x00001b2c                DisableHatForHammer
                0x00001b4c                GetInfoFromDumbTable
                0x00001b68                FukidashiFix
                0x00001b9c                PlayerGetHeight
                0x00001bd4                WtfEver
                0x00001be4                YetAnother
                0x00001bf4                GetWeirdScaleTable
                0x00001c04                GetAsdfTable
                0x00001c2c                GetBlahTableOffset
                0x00001c3c                DealWithBlahTable
                0x00001c9c                GetPowerupScaleFloatAddr_r6_trash_r0_valshl2_r4_dest
                0x00001cac                GetPowerupScaleFloatAddr_r6_trash_r0_valshl2_r3_dest
                0x00001cbc                GetPowerupScaleFloatAddr_r8_trash_r0_valshl2_r7_dest
                0x00001ccc                GetPowerupScaleFloatAddr_fixForSixth
                0x00001cdc                PlumberSetPowerupFix
                0x00001d2c                PlumberSetPowerupFix2
                0x00001d78                PlumberSetPowerupTextureFix
                0x00001d90                SetHammerToEnItemDCA
                0x00001db8                SetHammerToEnItemDCASpecial
                0x00001ddc                FixPowerupSound
                0x00001e28                WeirdAnimLoadHack
                0x00001e40                TryToGiveMarioHammerSuit
                0x00001e94                ThrowHammer
                0x00001f30                MoreProjectileStuff_Fix
                0x00001f5c                ProjectileShootCheck_Fix
                0x00001fa4                CheckHammerLimit
                0x0000201c                ToadPowerupFix
                0x00002050                CheckExistingPowerup
                0x00002058                AcPyCtorHS
                0x0000208c                AcPyDtorHS
                0x000020e0                AcPySetMeUpHS
                0x00002104                AcPyDrawHS
                0x00002124                Wm2dPlayerCtorHS
                0x00002158                Wm2dPlayerDtorHS
                0x000021ac                Wm2dPlayerSetMeUpHS
                0x000021d4                Wm2dPlayerDrawHS
                0x00002218                WmPlayerCtorHS
                0x0000224c                WmPlayerDtorHS
                0x000022a0                WmPlayerSetMeUpHS
                0x000022c4                WmPlayerDrawHS
                0x000022e4                HammerGabonRock
                0x0000233c                HammerCallbackGabonRockOverride
                0x00002360                AddHSToBattleItem_FixWait2Anim
                0x0000236c                InsertLostG3D
                0x00002378                InsertLostBRRES
                0x00002384                InsertLostG3DModel
                0x00002390                StrongboxInit
                0x000023a4                StrongboxGiveBattleItem
                0x00002410                SILayoutGroupParams
                0x00002428                SILayoutExtraStuffs
                0x0000249c                HideItemsByDefault
                0x000024dc                AddHammerPowerupFinalValue
                0x000024ec                FixStockItemEffectPlayer
                0x00002500                FixStockItemEffectPlayer2
                0x0000250c                FixMoreSIEffectRelatedCrap
                0x00002520                AddHammerSuitAddSound
                0x00002530                ResetHammerAnimOnOpen
                0x00002548                PickHammerAsPossibleStartChoice
                0x00002578                ChooseOldButtonOffAnim
                0x00002590                ChooseOldButtonOffAnim2
                0x000025a8                ChooseButtonOnAnim
                0x000025c0                DoSISelectCursor
                0x000025d8                ChooseHitButtonAnim
                0x000025f0                UpdateCalcPowerupResult
                0x00002604                FixCalcPowerupResultForMushroom
                0x00002610                SISLayoutExtraStuffs
                0x00002654                UpdateSIS
                0x00002730                WMItem_AddBrres
                0x0000274c                WMItem_AddMdl0
                0x00002768                HammerFoo
 .text          0x0000276c       0x30 tmp\48.o
                0x0000276c                StockItemHack
                0x00002778                StockItemHackR3
                0x00002784                ItemNamesHack
                0x00002790                ItemNamesHackR26
 .text          0x0000279c      0x20d tmp\49.o
                0x0000279c                LoadThisShit
                0x000028b1                aI_kinoko_3
                0x000028ba                aI_fireflower_2
                0x000028c7                aI_iceflower_0
                0x000028d3                aI_star_0
                0x000028da                aI_propeller_0
                0x000028e6                aI_penguin
                0x00002993                aI_hammer_0
 *fill*         0x000029a9        0x3 00000000
 .text          0x000029ac       0x68 tmp\52.o
                0x000029ac                NEW_GetTileFromTileTable
                0x000029d4                TileGodHack
 .text          0x00002a14       0x48 tmp\55.o
                0x00002a14                BgActorSpawnFix
                0x00002a40                BgActorSetInfoFix
 .text          0x00002a5c      0x148 tmp\57.o
                0x00002a5c                BG_GM_InitRedSwitchFlag_Patch
                0x00002a78                CheckBehaviourOverride_EndPatch
                0x00002b14                ProcessTileNum_EndPatch
 .text          0x00002ba4       0x30 tmp\60.o
                0x00002ba4                Query5758Replacement
 .text          0x00002bd4      0x6cc tmp\62.o
                0x00002bd4                getAndSaveRandomSeed
                0x00002c10                replayStart
                0x00002f70                replayEnd
                0x000030ac                replayRecord
                0x00003254                ChooseReplayStateIfNeeded
                0x00003280                SkipReplayPrepareIfNeeded
 .text          0x000032a0      0xcf0 tmp\63.o
                0x000033c0                ModifyGlobalSizes
                0x000034b8                ModifySpeedUpdatesB
                0x000035b0                ModifySpeedUpdatesA
                0x00003630                TooBigToBurn
                0x000036c4                TooBigToFreeze
                0x000037b8                ModifyCollision
                0x00003868                ModifyStandOnTopInitA
                0x000038b4                ModifyStandOnTopInitB
                0x0000391c                ModifyStandOnTopInitC
                0x00003934                ModifyStandOnTopInitD
                0x000039d4                ModifyRiderInitA
                0x00003a64                ModifyRiderInitB
                0x00003ae4                ModifyRiderInitC
                0x00003b54                ModifyRiderInitD
                0x00003bb0                InheritSettings
                0x00003bbc                InheritSettings_B
                0x00003bc8                InheritSettings_C
                0x00003bd4                InheritSettings_D
                0x00003be4                InheritSettings_D_r31
                0x00003bf4                AlwaysVisible
                0x00003c88                ModifyLoadSize
                0x00003dcc                PiranhaFireType
                0x00003dd4                PiranhaFirePos
                0x00003dfc                PipeGeneratorSpawn
                0x00003e08                LakituBomb
                0x00003e10                GlobalZOrderDeath
                0x00003e50                PokeyZOrderDeath
                0x00003e84                PokeyZOrderDeathFreeze
                0x00003eb8                PokeyZOrderDamage
                0x00003eec                GabonRockZOrderDeath
                0x00003f20                GabonRockZOrderDeathDrop
                0x00003f5c                BooZOrderHack
 .text          0x00003f90       0xa8 tmp\67.o
                0x00003f90                InitCompression
                0x00003fd8                GetFileEntrynumNew
 .text          0x00004038      0x210 tmp\68.o
                0x00004038                waggleAdjust
                0x00004058                _switch_buttons
 .text          0x00004248       0x54 tmp\80.o
                0x00004248                ClownCarDetectAdjacents
 .text          0x0000429c    0x576bc tmp\fasthack.o
                0x0000429c                APDebugDraw__Fv
                0x000042d8                __ct__13APDebugDrawerFv
                0x00004344                __dt__Q23m3d6proc_cFv
                0x000043a0                setMeUp__13APDebugDrawerFv
                0x000043ec                drawMe__13APDebugDrawerFv
                0x00004444                drawOpa__13APDebugDrawerFv
                0x00004478                drawXlu__13APDebugDrawerFv
                0x00005a8c                build__13dCreditsMgr_cFv
                0x00005b10                onCreate__13dCreditsMgr_cFv
                0x00005c00                onDelete__13dCreditsMgr_cFv
                0x00005c7c                onExecute__13dCreditsMgr_cFv
                0x00006340                onDraw__13dCreditsMgr_cFv
                0x0000639c                loadLayout__13dCreditsMgr_cFv
                0x000064b0                loadTitleLayout__13dCreditsMgr_cFv
                0x000065e8                doAutoscroll__13dCreditsMgr_cFi
                0x00006870                animComplete__13dCreditsMgr_cFv
                0x00006898                positionPlayers__13dCreditsMgr_cFv
                0x00006bc0                enableZoom__13dCreditsMgr_cFv
                0x00006c4c                disableZoom__13dCreditsMgr_cFv
                0x00006c78                playerWinAnim__13dCreditsMgr_cFv
                0x00006df8                playerLookUp__13dCreditsMgr_cFv
                0x00006e10                theEnd__13dCreditsMgr_cFv
                0x00006e50                exitStage__13dCreditsMgr_cFv
                0x00006eec                _vf70__13dCreditsMgr_cFv
                0x00006f50                EFBMagic2__Fv
                0x000070d4                execute__19dFlipbookRenderer_cFv
                0x0000756c                drawXlu__19dFlipbookRenderer_cFv
                0x00007d4c                drawOpa__19dFlipbookRenderer_cFv
                0x00007f08                loadNewBG__19dFlipbookRenderer_cFib
                0x000081a4                __ct__19dFlipbookRenderer_cFv
                0x00008210                __dt__19dFlipbookRenderer_cFv
                0x00008310                LoadDanceValues__Fv
                0x000083e0                build__12dEndingMgr_cFv
                0x00008458                __dt__12daBossDemo_cFv
                0x000084b4                onCreate__12dEndingMgr_cFv
                0x00008554                onDelete__12dEndingMgr_cFv
                0x000085d0                init__12dEndingMgr_cFv
                0x00008618                beginState_DemoSt__12dEndingMgr_cFv
                0x00008624                endState_DemoSt__12dEndingMgr_cFv
                0x00008628                executeState_DemoSt__12dEndingMgr_cFv
                0x00008710                beginState_GoRight__12dEndingMgr_cFv
                0x00008840                endState_GoRight__12dEndingMgr_cFv
                0x00008844                executeState_GoRight__12dEndingMgr_cFv
                0x0000893c                beginState_LookUp__12dEndingMgr_cFv
                0x0000895c                endState_LookUp__12dEndingMgr_cFv
                0x00008960                executeState_LookUp__12dEndingMgr_cFv
                0x000089d4                beginState_JumpOntoSwitch__12dEndingMgr_cFv
                0x00008a80                endState_JumpOntoSwitch__12dEndingMgr_cFv
                0x00008a84                executeState_JumpOntoSwitch__12dEndingMgr_cFv
                0x00008b6c                beginState_ThanksPeach__12dEndingMgr_cFv
                0x00008bb8                endState_ThanksPeach__12dEndingMgr_cFv
                0x00008bbc                executeState_ThanksPeach__12dEndingMgr_cFv
                0x00009000                _vf70__12dEndingMgr_cFv
                0x00009064                build__14daEnChestnut_cFv
                0x00009124                onCreate__14daEnChestnut_cFv
                0x000093e8                playAnimation__14daEnChestnut_cFPCcb
                0x00009480                onDelete__14daEnChestnut_cFv
                0x000094b0                onExecute__14daEnChestnut_cFv
                0x0000956c                onDraw__14daEnChestnut_cFv
                0x000095a8                nearestPlayerDistance__14daEnChestnut_cFv
                0x00009698                beginState_Idle__14daEnChestnut_cFv
                0x000096d8                endState_Idle__14daEnChestnut_cFv
                0x000096dc                executeState_Idle__14daEnChestnut_cFv
                0x00009778                beginState_Shake__14daEnChestnut_cFv
                0x00009800                endState_Shake__14daEnChestnut_cFv
                0x00009804                executeState_Shake__14daEnChestnut_cFv
                0x00009898                beginState_Fall__14daEnChestnut_cFv
                0x0000999c                endState_Fall__14daEnChestnut_cFv
                0x000099a0                executeState_Fall__14daEnChestnut_cFv
                0x00009a10                beginState_Explode__14daEnChestnut_cFv
                0x00009aa4                endState_Explode__14daEnChestnut_cFv
                0x00009aa8                executeState_Explode__14daEnChestnut_cFv
                0x00009b4c                CreateIceActors__14daEnChestnut_cFv
                0x00009c28                canBePowed__14daEnChestnut_cFv
                0x00009c30                powBlockActivated__14daEnChestnut_cFb
                0x00009cc8                collisionCat1_Fireball_E_Explosion__14daEnChestnut_cFP13ActivePhysicsP13ActivePhysics
                0x00009d50                collisionCat5_Mario__14daEnChestnut_cFP13ActivePhysicsP13ActivePhysics
                0x00009d98                spawnObject__14daEnChestnut_cFv
                0x00009ee4                onCreate__15daEnFlipBlock_cFv
                0x0000a07c                onDelete__15daEnFlipBlock_cFv
                0x0000a0ac                onExecute__15daEnFlipBlock_cFv
                0x0000a13c                onDraw__15daEnFlipBlock_cFv
                0x0000a1f8                build__15daEnFlipBlock_cFv
                0x0000a29c                blockWasHit__15daEnFlipBlock_cFb
                0x0000a2e8                calledWhenUpMoveExecutes__15daEnFlipBlock_cFv
                0x0000a330                calledWhenDownMoveExecutes__15daEnFlipBlock_cFv
                0x0000a378                beginState_Wait__15daEnFlipBlock_cFv
                0x0000a37c                endState_Wait__15daEnFlipBlock_cFv
                0x0000a380                executeState_Wait__15daEnFlipBlock_cFv
                0x0000a428                beginState_Flipping__15daEnFlipBlock_cFv
                0x0000a460                executeState_Flipping__15daEnFlipBlock_cFv
                0x0000a500                endState_Flipping__15daEnFlipBlock_cFv
                0x0000a550                playerOverlaps__15daEnFlipBlock_cFv
                0x0000a6dc                build__19daEnMagicPlatform_cFv
                0x0000aa08                onCreate__19daEnMagicPlatform_cFv
                0x0000ad88                onDelete__19daEnMagicPlatform_cFv
                0x0000ade8                onExecute__19daEnMagicPlatform_cFv
                0x0000ae78                setupMovement__19daEnMagicPlatform_cFv
                0x0000afec                handleMovement__19daEnMagicPlatform_cFv
                0x0000b1e4                findSourceArea__19daEnMagicPlatform_cFv
                0x0000b350                createTiles__19daEnMagicPlatform_cFv
                0x0000b478                deleteTiles__19daEnMagicPlatform_cFv
                0x0000b4d0                updateTilePositions__19daEnMagicPlatform_cFv
                0x0000b57c                checkVisibility__19daEnMagicPlatform_cFv
                0x0000b6b0                setVisible__19daEnMagicPlatform_cFb
                0x0000b770                build__13dScCutScene_cFv
                0x0000b7e4                __ct__13dScCutScene_cFv
                0x0000b8c0                __dt__13dScCutScene_cFv
                0x0000b9a8                onCreate__13dScCutScene_cFv
                0x0000bb30                onDelete__13dScCutScene_cFv
                0x0000bbc4                onExecute__13dScCutScene_cFv
                0x0000c650                onDraw__13dScCutScene_cFv
                0x0000c690                CutSceneDrawFunc__Fv
                0x0000c770                goToNextScene__13dScCutScene_cFv
                0x0000c88c                ExitStageWrapper
                0x0000c8cc                EnterOpeningLevel
                0x0000c988                build__13daBonePiece_cFv
                0x0000ca14                onCreate__13daBonePiece_cFv
                0x0000cbe8                onDelete__13daBonePiece_cFv
                0x0000cbf0                onExecute__13daBonePiece_cFv
                0x0000ccb8                onDraw__13daBonePiece_cFv
                0x0000ccf4                hijackMusicWithSongName__FPCcibiiPi
                0x0000cf30                FixFilesize__FUi
                0x0000cfe4                after_course_getMusicForZone
                0x0000d0b0                WriteAsciiToTextBox__FPQ34nw4r3lyt7TextBoxPCc
                0x0000d14c                getNewerLevelNumberString__FiiPw
                0x0000d21c                getUnspentStarCoinCount__Fv
                0x0000d274                getStarCoinCount__Fv
                0x0000d334                GrabExitInfoForFileSelect
                0x0000d4c8                DamagePlayer__FP5dEn_cP13ActivePhysicsP13ActivePhysics
                0x0000d588                SetupKameck__FP6daBossP12daKameckDemo
                0x0000d6dc                CleanupKameck__FP6daBossP12daKameckDemo
                0x0000d73c                GrowBoss__FP6daBossP12daKameckDemofffi
                0x0000db8c                OutroSetup__FP6daBoss
                0x0000dc24                ShrinkBoss__FP6daBossP7Point3dfi
                0x0000ddc4                BossExplode__FP6daBossP7Point3d
                0x0000deb8                BossGoalForAllPlayers__Fv
                0x0000df2c                PlayerVictoryCries__FP6daBoss
                0x0000df4c                LoadFile__FP10FileHandlePCc
                0x0000e014                FreeFile__FP10FileHandle
                0x0000e088                __ct__4FileFv
                0x0000e094                __dt__4FileFv
                0x0000e0e8                open__4FileFPCc
                0x0000e15c                close__4FileFv
                0x0000e1a0                isOpen__4FileFv
                0x0000e1a8                ptr__4FileFv
                0x0000e1c4                length__4FileFv
                0x0000e1e0                LoadLevelInfo__Fv
                0x0000e270                load__12dLevelInfo_cFPv
                0x0000e370                searchBySlot__12dLevelInfo_cFii
                0x0000e420                searchByDisplayNum__12dLevelInfo_cFii
                0x0000e4d0                UpdateFSStars__Fv
                0x0000e804                beginState_Limbo__14dScKoopatlas_cFv
                0x0000e808                endState_Limbo__14dScKoopatlas_cFv
                0x0000e80c                beginState_Normal__14dScKoopatlas_cFv
                0x0000e810                endState_Normal__14dScKoopatlas_cFv
                0x0000e814                beginState_CompletionMsgHideWait__14dScKoopatlas_cFv
                0x0000e818                endState_CompletionMsgHideWait__14dScKoopatlas_cFv
                0x0000e81c                beginState_CSMenu__14dScKoopatlas_cFv
                0x0000e820                endState_CSMenu__14dScKoopatlas_cFv
                0x0000e824                beginState_TitleConfirmOpenWait__14dScKoopatlas_cFv
                0x0000e828                endState_TitleConfirmOpenWait__14dScKoopatlas_cFv
                0x0000e82c                beginState_TitleConfirmSelect__14dScKoopatlas_cFv
                0x0000e830                endState_TitleConfirmSelect__14dScKoopatlas_cFv
                0x0000e834                beginState_TitleConfirmHitWait__14dScKoopatlas_cFv
                0x0000e838                endState_TitleConfirmHitWait__14dScKoopatlas_cFv
                0x0000e83c                beginState_PlayerChangeWait__14dScKoopatlas_cFv
                0x0000e840                endState_PlayerChangeWait__14dScKoopatlas_cFv
                0x0000e844                beginState_EasyPairingWait__14dScKoopatlas_cFv
                0x0000e848                endState_EasyPairingWait__14dScKoopatlas_cFv
                0x0000e84c                beginState_PowerupsWait__14dScKoopatlas_cFv
                0x0000e850                endState_PowerupsWait__14dScKoopatlas_cFv
                0x0000e854                beginState_ShopWait__14dScKoopatlas_cFv
                0x0000e858                endState_ShopWait__14dScKoopatlas_cFv
                0x0000e85c                beginState_CoinsWait__14dScKoopatlas_cFv
                0x0000e860                endState_CoinsWait__14dScKoopatlas_cFv
                0x0000e864                beginState_SaveOpen__14dScKoopatlas_cFv
                0x0000e868                endState_SaveOpen__14dScKoopatlas_cFv
                0x0000e86c                beginState_SaveSelect__14dScKoopatlas_cFv
                0x0000e870                endState_SaveSelect__14dScKoopatlas_cFv
                0x0000e874                beginState_SaveWindowClose__14dScKoopatlas_cFv
                0x0000e878                endState_SaveWindowClose__14dScKoopatlas_cFv
                0x0000e87c                beginState_SaveDo__14dScKoopatlas_cFv
                0x0000e880                endState_SaveDo__14dScKoopatlas_cFv
                0x0000e884                beginState_SaveEndWindow__14dScKoopatlas_cFv
                0x0000e888                endState_SaveEndWindow__14dScKoopatlas_cFv
                0x0000e88c                beginState_SaveEndCloseWait__14dScKoopatlas_cFv
                0x0000e890                endState_SaveEndCloseWait__14dScKoopatlas_cFv
                0x0000e894                beginState_SaveError__14dScKoopatlas_cFv
                0x0000e898                endState_SaveError__14dScKoopatlas_cFv
                0x0000e89c                build__14dScKoopatlas_cFv
                0x0000e934                __ct__14dScKoopatlas_cFv
                0x0000ea5c                WMInit_StartLoading__FPv
                0x0000ea80                WMInit_LoadStaticFiles__FPv
                0x0000eaa0                WMInit_LoadSIAnims__FPv
                0x0000ec50                WMInit_EndLoading__FPv
                0x0000eca8                WMInit_LoadResources1__FPv
                0x0000ecfc                WMInit_LoadResources2__FPv
                0x0000edc0                WMInit_SetupWait__FPv
                0x0000eea8                WMInit_SetupExtra__FPv
                0x0000f1e0                WMInit_SetupWipe__FPv
                0x0000f228                startMusic__14dScKoopatlas_cFv
                0x0000f268                onCreate__14dScKoopatlas_cFv
                0x0000f700                onDelete__14dScKoopatlas_cFv
                0x0000f934                canDoStuff__14dScKoopatlas_cFv
                0x0000f9b4                mapIsRunning__14dScKoopatlas_cFv
                0x0000fa34                onExecute__14dScKoopatlas_cFv
                0x0000fa90                executeState_Limbo__14dScKoopatlas_cFv
                0x0000fa94                beginState_ContinueWait__14dScKoopatlas_cFv
                0x0000facc                executeState_ContinueWait__14dScKoopatlas_cFv
                0x0000fbc4                endState_ContinueWait__14dScKoopatlas_cFv
                0x0000fbd8                executeState_Normal__14dScKoopatlas_cFv
                0x0000fd18                executeState_CSMenu__14dScKoopatlas_cFv
                0x0000fec4                executeState_TitleConfirmOpenWait__14dScKoopatlas_cFv
                0x0000ff18                executeState_TitleConfirmSelect__14dScKoopatlas_cFv
                0x00010074                executeState_TitleConfirmHitWait__14dScKoopatlas_cFv
                0x0001010c                executeState_PlayerChangeWait__14dScKoopatlas_cFv
                0x00010334                executeState_EasyPairingWait__14dScKoopatlas_cFv
                0x00010404                executeState_PowerupsWait__14dScKoopatlas_cFv
                0x00010490                executeState_ShopWait__14dScKoopatlas_cFv
                0x000104ec                executeState_CoinsWait__14dScKoopatlas_cFv
                0x00010548                executeState_SaveOpen__14dScKoopatlas_cFv
                0x0001059c                executeState_SaveSelect__14dScKoopatlas_cFv
                0x000106f8                executeState_SaveWindowClose__14dScKoopatlas_cFv
                0x00010790                executeState_SaveDo__14dScKoopatlas_cFv
                0x00010848                executeState_SaveEndWindow__14dScKoopatlas_cFv
                0x000108ec                executeState_SaveEndCloseWait__14dScKoopatlas_cFv
                0x00010948                executeState_SaveError__14dScKoopatlas_cFv
                0x0001094c                startLevel__14dScKoopatlas_cFPQ212dLevelInfo_c7entry_s
                0x000109e0                iterateMapList__14dScKoopatlas_cFPFUiPCcii_UiUiPi
                0x00010b68                getMapNameForIndex__14dScKoopatlas_cFi
                0x00010ba4                getIndexForMapName__14dScKoopatlas_cFPCc
                0x00010be4                showSaveWindow__14dScKoopatlas_cFv
                0x00010c48                beginState_CompletionMsg__14dScKoopatlas_cFv
                0x00010cb4                endState_CompletionMsg__14dScKoopatlas_cFv
                0x00010cc8                executeState_CompletionMsg__14dScKoopatlas_cFv
                0x00010f54                executeState_CompletionMsgHideWait__14dScKoopatlas_cFv
                0x00010fa8                NewerMapDrawFunc__Fv
                0x00011100                onCreate__12daWMPlayer_cFv
                0x000114b0                onDelete__12daWMPlayer_cFv
                0x0001150c                onExecute__12daWMPlayer_cFv
                0x000117f0                onDraw__12daWMPlayer_cFv
                0x0001185c                startAnimation__12daWMPlayer_cFifff
                0x00011960                bindPats__12daWMPlayer_cFv
                0x00011aa4                build__12daWMPlayer_cFv
                0x00011b74                __ct__Q23m3d11anmTexPat_cFv
                0x00011bd0                build__8dWMHud_cFv
                0x00011c44                __ct__8dWMHud_cFv
                0x00011cb4                onCreate__8dWMHud_cFv
                0x00011f40                loadInitially__8dWMHud_cFv
                0x00011ff4                onDelete__8dWMHud_cFv
                0x00012044                onExecute__8dWMHud_cFv
                0x00012148                onDraw__8dWMHud_cFv
                0x00012190                hideAll__8dWMHud_cFv
                0x000121e8                unhideAll__8dWMHud_cFv
                0x00012240                playShowAnim__8dWMHud_cFi
                0x00012294                playHideAnim__8dWMHud_cFi
                0x00012328                loadHeaderInfo__8dWMHud_cFv
                0x00012a9c                loadFooterInfo__8dWMHud_cFv
                0x00012e8c                enteredNode__8dWMHud_cFP9dKPNode_s
                0x00012ec8                leftNode__8dWMHud_cFv
                0x00012f50                hideFooter__8dWMHud_cFv
                0x00012f90                showFooter__8dWMHud_cFv
                0x00012fe4                setupLives__8dWMHud_cFv
                0x00013200                updatePressableButtonThingies__8dWMHud_cFv
                0x000132ac                build__14dWorldCamera_cFv
                0x00013320                __ct__14dWorldCamera_cFv
                0x000135b8                onCreate__14dWorldCamera_cFv
                0x000136bc                onDelete__14dWorldCamera_cFv
                0x000136c4                onExecute__14dWorldCamera_cFv
                0x00013878                panToBounds__14dWorldCamera_cFffff
                0x000139fc                panToPosition__14dWorldCamera_cFfff
                0x00013b70                onDraw__14dWorldCamera_cFv
                0x00013bf4                calculateScreenGeometry__14dWorldCamera_cFv
                0x00013c78                doStuff__14dWorldCamera_cFf
                0x00013d48                generateCameraMatrices__14dWorldCamera_cFv
                0x00013fb8                updateCameras__14dWorldCamera_cFv
                0x00014064                build__8dWMMap_cFv
                0x000140d8                __ct__8dWMMap_cFv
                0x00014204                __dt__Q28dWMMap_c10renderer_cFv
                0x00014288                __ct__Q23mEf3es2Fv
                0x000142e4                __ct__18BGGMEffectRendererFv
                0x00014340                onCreate__8dWMMap_cFv
                0x0001478c                onDelete__8dWMMap_cFv
                0x00014794                onExecute__8dWMMap_cFv
                0x00014898                onDraw__8dWMMap_cFv
                0x00014978                drawOpa__Q28dWMMap_c10renderer_cFv
                0x0001497c                drawXlu__Q28dWMMap_c10renderer_cFv
                0x000149a4                drawLayers__Q28dWMMap_c10renderer_cFv
                0x00014ba8                beginRendering__Q28dWMMap_c10renderer_cFv
                0x0001505c                renderTileLayer__Q28dWMMap_c10renderer_cFP10dKPLayer_sPA16_A16_Us
                0x00015664                renderDoodadLayer__Q28dWMMap_c10renderer_cFP10dKPLayer_s
                0x00015d5c                renderPathLayer__8dWMMap_cFP10dKPLayer_s
                0x00015f34                endRendering__Q28dWMMap_c10renderer_cFv
                0x00015f38                loadTexture__Q28dWMMap_c10renderer_cFP10_gx_texobj
                0x00015f8c                loadCamera__Q28dWMMap_c10renderer_cFv
                0x00015fbc                loadCamera__Q28dWMMap_c10renderer_cFPA4_f
                0x00015fe8                doEffects__8dWMMap_cFv
                0x00016370                spinLaunchStar__8dWMMap_cFv
                0x0001641c                getOppositeExitTo__9dKPNode_sFP9dKPPath_sb
                0x000164b4                getExitCount__9dKPNode_sFb
                0x00016538                isUnlocked__9dKPNode_sFv
                0x000165b4                setupNodeExtra__9dKPNode_sFv
                0x000168dc                setLayerAlpha__9dKPNode_sFUc
                0x00016908                setLayerAlpha__9dKPPath_sFUc
                0x00016934                findNodeID__10dKPLayer_sFP9dKPNode_s
                0x000169a4                __ct__12dKPMapData_cFv
                0x00016a08                __dt__12dKPMapData_cFv
                0x00016aa0                __dt__14dKPNodeExtra_cFv
                0x00016b1c                load__12dKPMapData_cFPCc
                0x00016bf8                loadTilesets__12dKPMapData_cFv
                0x00016d84                unloadTilesets__12dKPMapData_cFv
                0x00016e18                fixup__12dKPMapData_cFv
                0x00017a1c                __ct__14dKPNodeExtra_cFv
                0x00017aa4                findWorldDef__12dKPMapData_cCFi
                0x00017b2c                ResetAllCompletionCandidates__Fv
                0x00017ba0                getPressedDir__Fi
                0x00017bf8                setup__16dWMPathManager_cFv
                0x000185f0                ClearOldPathAvailabilityData__Fv
                0x0001865c                __dt__16dWMPathManager_cFv
                0x00018d8c                unlockPaths__16dWMPathManager_cFv
                0x00019518                finalisePathUnlocks__16dWMPathManager_cFv
                0x00019570                evaluateUnlockCondition__16dWMPathManager_cFRPUcP9SaveBlocki
                0x000198ec                doingThings__16dWMPathManager_cFv
                0x000199a8                execute__16dWMPathManager_cFv
                0x0001a604                startMovementTo__16dWMPathManager_cFP9dKPPath_s
                0x0001ace0                moveThroughPath__16dWMPathManager_cFi
                0x0001bef8                copyWorldDefToSave__16dWMPathManager_cFPC13dKPWorldDef_s
                0x0001c148                activatePoint__16dWMPathManager_cFv
                0x0001c360                unlockAllPaths__16dWMPathManager_cFc
                0x0001c4a8                findCameraBoundsForUnlockedPaths__16dWMPathManager_cFv
                0x0001c58c                visitNodeForCamCheck__16dWMPathManager_cFP9dKPNode_s
                0x0001c6f8                addNodeToCameraBounds__16dWMPathManager_cFP9dKPNode_s
                0x0001c7b0                setupItem__Q29dWMShop_c11ShopModel_cFffQ29dWMShop_c9ItemTypes
                0x0001c950                setupLakitu__Q29dWMShop_c11ShopModel_cFi
                0x0001cab0                playAnim__Q29dWMShop_c11ShopModel_cFPCcfc
                0x0001cb58                execute__Q29dWMShop_c11ShopModel_cFv
                0x0001cc24                draw__Q29dWMShop_c11ShopModel_cFv
                0x0001ccd4                build__9dWMShop_cFv
                0x0001cd48                __ct__9dWMShop_cFv
                0x0001ce58                onCreate__9dWMShop_cFv
                0x0001d1f0                onDelete__9dWMShop_cFv
                0x0001d228                onExecute__9dWMShop_cFv
                0x0001d2d8                onDraw__9dWMShop_cFv
                0x0001d318                specialDraw1__9dWMShop_cFv
                0x0001d3b4                show__9dWMShop_cFi
                0x0001d404                beginState_Hidden__9dWMShop_cFv
                0x0001d408                executeState_Hidden__9dWMShop_cFv
                0x0001d40c                endState_Hidden__9dWMShop_cFv
                0x0001d410                beginState_ShowWait__9dWMShop_cFv
                0x0001d488                executeState_ShowWait__9dWMShop_cFv
                0x0001d4f8                endState_ShowWait__9dWMShop_cFv
                0x0001d53c                beginState_ButtonActivateWait__9dWMShop_cFv
                0x0001d540                executeState_ButtonActivateWait__9dWMShop_cFv
                0x0001d594                endState_ButtonActivateWait__9dWMShop_cFv
                0x0001d598                beginState_Wait__9dWMShop_cFv
                0x0001d5c0                executeState_Wait__9dWMShop_cFv
                0x0001d848                endState_Wait__9dWMShop_cFv
                0x0001d84c                beginState_HideWait__9dWMShop_cFv
                0x0001d8d8                executeState_HideWait__9dWMShop_cFv
                0x0001d9f0                endState_HideWait__9dWMShop_cFv
                0x0001da28                loadModels__9dWMShop_cFv
                0x0001dc90                __dt__Q29dWMShop_c11ShopModel_cFv
                0x0001dd0c                __ct__Q29dWMShop_c11ShopModel_cFv
                0x0001dd80                deleteModels__9dWMShop_cFv
                0x0001de30                loadInfo__9dWMShop_cFv
                0x0001dfec                buyItem__9dWMShop_cFi
                0x0001e304                beginState_CoinCountdown__9dWMShop_cFv
                0x0001e310                endState_CoinCountdown__9dWMShop_cFv
                0x0001e314                executeState_CoinCountdown__9dWMShop_cFv
                0x0001e560                showSelectCursor__9dWMShop_cFv
                0x0001e5e8                build__13dWMStarCoin_cFv
                0x0001e65c                __ct__13dWMStarCoin_cFv
                0x0001e770                onCreate__13dWMStarCoin_cFv
                0x0001eb28                onDelete__13dWMStarCoin_cFv
                0x0001eb54                show__13dWMStarCoin_cFv
                0x0001ebbc                onExecute__13dWMStarCoin_cFv
                0x0001ec24                onDraw__13dWMStarCoin_cFv
                0x0001ec64                showLeftArrow__13dWMStarCoin_cFv
                0x0001ecc8                showRightArrow__13dWMStarCoin_cFv
                0x0001ed2c                hideLeftArrow__13dWMStarCoin_cFv
                0x0001ed90                hideRightArrow__13dWMStarCoin_cFv
                0x0001edf4                setLeftArrowVisible__13dWMStarCoin_cFb
                0x0001ee40                setRightArrowVisible__13dWMStarCoin_cFb
                0x0001ee8c                canScrollLeft__13dWMStarCoin_cCFv
                0x0001eea0                canScrollRight__13dWMStarCoin_cCFv
                0x0001eec4                loadInfo__13dWMStarCoin_cFv
                0x0001f094                loadSectionInfo__13dWMStarCoin_cFv
                0x0001f838                beginState_Hidden__13dWMStarCoin_cFv
                0x0001f83c                executeState_Hidden__13dWMStarCoin_cFv
                0x0001f840                endState_Hidden__13dWMStarCoin_cFv
                0x0001f844                beginState_ShowWait__13dWMStarCoin_cFv
                0x0001f8d4                executeState_ShowWait__13dWMStarCoin_cFv
                0x0001f92c                endState_ShowWait__13dWMStarCoin_cFv
                0x0001f930                beginState_ShowSectionWait__13dWMStarCoin_cFv
                0x0001f9a0                executeState_ShowSectionWait__13dWMStarCoin_cFv
                0x0001f9f8                endState_ShowSectionWait__13dWMStarCoin_cFv
                0x0001f9fc                showSecretMessage__13dWMStarCoin_cFPCwPPCwiPPCwi
                0x0001fc78                beginState_Wait__13dWMStarCoin_cFv
                0x0001fc7c                executeState_Wait__13dWMStarCoin_cFv
                0x00020084                endState_Wait__13dWMStarCoin_cFv
                0x00020088                beginState_HideSectionWait__13dWMStarCoin_cFv
                0x00020108                executeState_HideSectionWait__13dWMStarCoin_cFv
                0x0002018c                endState_HideSectionWait__13dWMStarCoin_cFv
                0x00020190                beginState_HideWait__13dWMStarCoin_cFv
                0x000201d4                executeState_HideWait__13dWMStarCoin_cFv
                0x0002022c                endState_HideWait__13dWMStarCoin_cFv
                0x00020238                play__8dKPMusicFi
                0x000203c8                loadInfo__8dKPMusicFv
                0x00020410                execute__8dKPMusicFv
                0x00020798                stop__8dKPMusicFv
                0x0002086c                playStarMusic__8dKPMusicFv
                0x000208c0                __ct__19dTexMapColouriser_cFv
                0x000208dc                __dt__19dTexMapColouriser_cFv
                0x00020930                resetAndClear__19dTexMapColouriser_cFv
                0x00020980                setTexMap__19dTexMapColouriser_cFPQ34nw4r3lyt6TexMap
                0x00020a6c                applyAlso__19dTexMapColouriser_cFPQ34nw4r3lyt6TexMap
                0x00020ad4                colourise__19dTexMapColouriser_cFiii
                0x00021038                LoadPregameStyleNameAndNumber__FPQ23m2d13EmbedLayout_c
                0x00021288                hijack_loadLevelNumber__17PregameLytHandlerFv
                0x0002137c                InsertPauseWindowText
                0x000213b4                DoTiles__FPv
                0x000214dc                DestroyTiles__FPv
                0x00021504                CopyAnimTile
                0x000215b4                endKeyLevel__FP13dStageActor_c
                0x00021638                startEndKeyLevel__FP13dStageActor_c
                0x0002169c                soundsEndKeyLevel__FP13dStageActor_c
                0x0002175c                MarioStateChanger__FPvP12dStateBase_cUi
                0x000217d4                ResetAfterLevel__Fb
                0x000218b8                FuckinBubbles__Fv
                0x00021a3c                LevelSpecial_Create__FP12LevelSpecial
                0x00021adc                LevelSpecial_Execute__FP12LevelSpecial
                0x00021b2c                LevelSpecial_Update__FP12LevelSpecial
                0x00021f2c                build__9daMrSun_cFv
                0x00021fa8                playerCollision__9daMrSun_cFP13ActivePhysicsP13ActivePhysics
                0x00021fe0                collisionCat1_Fireball_E_Explosion__9daMrSun_cFP13ActivePhysicsP13ActivePhysics
                0x00021fe8                collisionCat2_IceBall_15_YoshiIce__9daMrSun_cFP13ActivePhysicsP13ActivePhysics
                0x00022014                collisionCat9_RollingObject__9daMrSun_cFP13ActivePhysicsP13ActivePhysics
                0x00022070                collisionCat13_Hammer__9daMrSun_cFP13ActivePhysicsP13ActivePhysics
                0x000220cc                collisionCat3_StarPower__9daMrSun_cFP13ActivePhysicsP13ActivePhysics
                0x00022128                collisionCatD_Drill__9daMrSun_cFP13ActivePhysicsP13ActivePhysics
                0x00022164                collisionCat7_GroundPound__9daMrSun_cFP13ActivePhysicsP13ActivePhysics
                0x000221a0                collisionCat7_GroundPoundYoshi__9daMrSun_cFP13ActivePhysicsP13ActivePhysics
                0x000221dc                collisionCatA_PenguinMario__9daMrSun_cFP13ActivePhysicsP13ActivePhysics
                0x00022218                collisionCat5_Mario__9daMrSun_cFP13ActivePhysicsP13ActivePhysics
                0x00022254                dieFall_Execute__9daMrSun_cFv
                0x00022464                onCreate__9daMrSun_cFv
                0x00022810                onDelete__9daMrSun_cFv
                0x00022818                onExecute__9daMrSun_cFv
                0x00022930                onDraw__9daMrSun_cFv
                0x00022990                updateModelMatrices__9daMrSun_cFv
                0x00022b18                beginState_Follow__9daMrSun_cFv
                0x00022b3c                executeState_Follow__9daMrSun_cFv
                0x00022ce0                endState_Follow__9daMrSun_cFv
                0x00022cf0                beginState_Swoop__9daMrSun_cFv
                0x00022ef4                executeState_Swoop__9daMrSun_cFv
                0x00022fa8                endState_Swoop__9daMrSun_cFv
                0x00022fb8                beginState_Spiral__9daMrSun_cFv
                0x00023008                executeState_Spiral__9daMrSun_cFv
                0x000230f8                endState_Spiral__9daMrSun_cFv
                0x000230fc                beginState_Spit__9daMrSun_cFv
                0x00023114                executeState_Spit__9daMrSun_cFv
                0x00023474                endState_Spit__9daMrSun_cFv
                0x00023484                beginState_Spin__9daMrSun_cFv
                0x00023498                executeState_Spin__9daMrSun_cFv
                0x000238bc                endState_Spin__9daMrSun_cFv
                0x000238e4                beginState_Wait__9daMrSun_cFv
                0x000239b8                executeState_Wait__9daMrSun_cFv
                0x00023ae8                endState_Wait__9daMrSun_cFv
                0x00023af4                build__13daFireLaser_cFv
                0x00023b58                onCreate__13daFireLaser_cFv
                0x00023c08                onDelete__13daFireLaser_cFv
                0x00023c10                onExecute__13daFireLaser_cFv
                0x00023c4c                onDraw__13daFireLaser_cFv
                0x00023c54                beginState_pewpewpew__13daFireLaser_cFv
                0x00023c60                executeState_pewpewpew__13daFireLaser_cFv
                0x00023e80                endState_pewpewpew__13daFireLaser_cFv
                0x00023e84                ThwompHammer__FP5dEn_cP13ActivePhysicsP13ActivePhysics
                0x00023ed0                BooHammer__FP5dEn_cP13ActivePhysicsP13ActivePhysics
                0x00023f1c                UrchinHammer__FP5dEn_cP13ActivePhysicsP13ActivePhysics
                0x00023f20                build__21dHammerSuitRenderer_cFv
                0x00023f68                __ct__21dHammerSuitRenderer_cFv
                0x00023fac                __dt__21dHammerSuitRenderer_cFv
                0x00024028                setup__21dHammerSuitRenderer_cFP21dPlayerModelHandler_c
                0x0002405c                setup__21dHammerSuitRenderer_cFP21dPlayerModelHandler_ci
                0x000242d4                draw__21dHammerSuitRenderer_cFv
                0x0002440c                setScalesOfSomeThings__12dStockItem_cFv
                0x00024790                getSection__14RandomTileDataFPCc
                0x00024868                RandTileLoadHook
                0x000248dc                IdentifyTilesets
                0x00024978                TryAndRandomise
                0x00024c9c                creationHook__13daObjKinoko_cFv
                0x00024f80                drawHook__13daObjKinoko_cFv
                0x0002501c                doStuff__15daChengeBlock_cFQ215daChengeBlock_c6Actionb
                0x00025460                LineGod_Create__FP7LineGod
                0x00025504                LineGod_Execute__FP7LineGod
                0x00025530                LineGod_BuildList__FP7LineGod
                0x0002588c                LineGod_AppendToList__FP7LineGodP7BgActor
                0x00025904                LineGod_Update__FP7LineGod
                0x00025b40                TilesetFixerHack__FPvPvii
                0x00025bd4                DoFixes__Fii
                0x00025d1c                SwapObjData__FPUci
                0x00025dbc                build__13dPalaceDude_cFv
                0x00025e24                onExecute__13dPalaceDude_cFv
                0x00025f9c                onCreate__16daEnEventBlock_cFv
                0x00026128                onDelete__16daEnEventBlock_cFv
                0x00026184                onExecute__16daEnEventBlock_cFv
                0x000262cc                build__16daEnEventBlock_cFv
                0x00026358                equaliseEvents__16daEnEventBlock_cFv
                0x000264cc                blockWasHit__16daEnEventBlock_cFb
                0x000266ec                calledWhenUpMoveExecutes__16daEnEventBlock_cFv
                0x00026734                calledWhenDownMoveExecutes__16daEnEventBlock_cFv
                0x0002677c                beginState_Wait__16daEnEventBlock_cFv
                0x00026780                endState_Wait__16daEnEventBlock_cFv
                0x00026784                executeState_Wait__16daEnEventBlock_cFv
                0x0002682c                build__16dMsgBoxManager_cFv
                0x00026984                onCreate__16dMsgBoxManager_cFv
                0x00026a8c                onExecute__16dMsgBoxManager_cFv
                0x00026ae8                onDraw__16dMsgBoxManager_cFv
                0x00026b28                onDelete__16dMsgBoxManager_cFv
                0x00026ba4                beginState_LoadRes__16dMsgBoxManager_cFv
                0x00026ba8                endState_LoadRes__16dMsgBoxManager_cFv
                0x00026bac                executeState_LoadRes__16dMsgBoxManager_cFv
                0x00026c14                beginState_Wait__16dMsgBoxManager_cFv
                0x00026c18                endState_Wait__16dMsgBoxManager_cFv
                0x00026c1c                executeState_Wait__16dMsgBoxManager_cFv
                0x00026c20                showMessage__16dMsgBoxManager_cFibi
                0x00026da4                beginState_BoxAppearWait__16dMsgBoxManager_cFv
                0x00026e30                executeState_BoxAppearWait__16dMsgBoxManager_cFv
                0x00026e88                endState_BoxAppearWait__16dMsgBoxManager_cFv
                0x00026e8c                beginState_ShownWait__16dMsgBoxManager_cFv
                0x00026e90                executeState_ShownWait__16dMsgBoxManager_cFv
                0x00026f64                endState_ShownWait__16dMsgBoxManager_cFv
                0x00026f68                beginState_BoxDisappearWait__16dMsgBoxManager_cFv
                0x00026fcc                executeState_BoxDisappearWait__16dMsgBoxManager_cFv
                0x0002706c                endState_BoxDisappearWait__16dMsgBoxManager_cFv
                0x000270b0                onCreate__14daEnMsgBlock_cFv
                0x00027200                onDelete__14daEnMsgBlock_cFv
                0x0002725c                onExecute__14daEnMsgBlock_cFv
                0x00027328                build__14daEnMsgBlock_cFv
                0x000273b0                blockWasHit__14daEnMsgBlock_cFb
                0x00027460                calledWhenUpMoveExecutes__14daEnMsgBlock_cFv
                0x000274a8                calledWhenDownMoveExecutes__14daEnMsgBlock_cFv
                0x000274f0                beginState_Wait__14daEnMsgBlock_cFv
                0x000274f4                endState_Wait__14daEnMsgBlock_cFv
                0x000274f8                executeState_Wait__14daEnMsgBlock_cFv
                0x000275a0                EventLooper_Create__FP11EventLooper
                0x00027720                EventLooper_Execute__FP11EventLooper
                0x0002774c                EventLooper_Update__FP11EventLooper
                0x000278f0                build__16dSpriteSpawner_cFv
                0x00027958                onCreate__16dSpriteSpawner_cFv
                0x00027a74                onExecute__16dSpriteSpawner_cFv
                0x00027bec                build__18SpriteSpawnerTimedFv
                0x00027c50                onCreate__18SpriteSpawnerTimedFv
                0x00027d50                onExecute__18SpriteSpawnerTimedFv
                0x00027e28                build__8daTopmanFv
                0x00027ec4                playerCollision__8daTopmanFP13ActivePhysicsP13ActivePhysics
                0x0002800c                yoshiCollision__8daTopmanFP13ActivePhysicsP13ActivePhysics
                0x00028050                collisionCatD_Drill__8daTopmanFP13ActivePhysicsP13ActivePhysics
                0x000280e0                collisionCat7_GroundPound__8daTopmanFP13ActivePhysicsP13ActivePhysics
                0x00028128                collisionCat7_GroundPoundYoshi__8daTopmanFP13ActivePhysicsP13ActivePhysics
                0x00028170                collisionCat9_RollingObject__8daTopmanFP13ActivePhysicsP13ActivePhysics
                0x000281d8                collisionCat3_StarPower__8daTopmanFP13ActivePhysicsP13ActivePhysics
                0x00028218                collisionCat13_Hammer__8daTopmanFP13ActivePhysicsP13ActivePhysics
                0x00028258                collisionCatA_PenguinMario__8daTopmanFP13ActivePhysicsP13ActivePhysics
                0x000282c0                collisionCat14_YoshiFire__8daTopmanFP13ActivePhysicsP13ActivePhysics
                0x00028328                collisionCat1_Fireball_E_Explosion__8daTopmanFP13ActivePhysicsP13ActivePhysics
                0x00028390                _vf148__8daTopmanFv
                0x000283dc                _vf14C__8daTopmanFv
                0x00028428                CreateIceActors__8daTopmanFv
                0x0002852c                addScoreWhenHit__8daTopmanFPv
                0x00028530                calculateTileCollisions__8daTopmanFv
                0x00028784                bindAnimChr_and_setUpdateRate__8daTopmanFPCciff
                0x00028828                onCreate__8daTopmanFv
                0x00028c58                onDelete__8daTopmanFv
                0x00028c60                onExecute__8daTopmanFv
                0x00028d2c                onDraw__8daTopmanFv
                0x00028d68                updateModelMatrices__8daTopmanFv
                0x00028e1c                beginState_Walk__8daTopmanFv
                0x00028f00                executeState_Walk__8daTopmanFv
                0x00028ff8                endState_Walk__8daTopmanFv
                0x00029008                beginState_Turn__8daTopmanFv
                0x00029024                executeState_Turn__8daTopmanFv
                0x000290f0                endState_Turn__8daTopmanFv
                0x000290f4                beginState_Wait__8daTopmanFv
                0x000291a4                executeState_Wait__8daTopmanFv
                0x0002929c                endState_Wait__8daTopmanFv
                0x000292a0                beginState_Die__8daTopmanFv
                0x000292fc                executeState_Die__8daTopmanFv
                0x00029374                endState_Die__8daTopmanFv
                0x00029378                beginState_KnockBack__8daTopmanFv
                0x00029414                executeState_KnockBack__8daTopmanFv
                0x000294f8                endState_KnockBack__8daTopmanFv
                0x00029550                build__14daMegaGoomba_cFv
                0x00029630                removeMyActivePhysics__14daMegaGoomba_cFv
                0x00029678                addMyActivePhysics__14daMegaGoomba_cFv
                0x000296c0                setNewActivePhysicsRect__FP14daMegaGoomba_cP7Point3d
                0x00029b20                powBlockActivated__14daMegaGoomba_cFb
                0x00029b24                takeHit__14daMegaGoomba_cFc
                0x00029c34                spriteCollision__14daMegaGoomba_cFP13ActivePhysicsP13ActivePhysics
                0x00029c38                playerCollision__14daMegaGoomba_cFP13ActivePhysicsP13ActivePhysics
                0x00029cf0                tryHandleJumpedOn__14daMegaGoomba_cFP13ActivePhysicsP13ActivePhysics
                0x00029df0                collisionCat7_GroundPound__14daMegaGoomba_cFP13ActivePhysicsP13ActivePhysics
                0x00029e78                collisionCat7_GroundPoundYoshi__14daMegaGoomba_cFP13ActivePhysicsP13ActivePhysics
                0x00029ebc                collisionCat1_Fireball_E_Explosion__14daMegaGoomba_cFP13ActivePhysicsP13ActivePhysics
                0x00029ec4                collisionCat2_IceBall_15_YoshiIce__14daMegaGoomba_cFP13ActivePhysicsP13ActivePhysics
                0x00029ecc                collisionCat3_StarPower__14daMegaGoomba_cFP13ActivePhysicsP13ActivePhysics
                0x00029f48                collisionCat9_RollingObject__14daMegaGoomba_cFP13ActivePhysicsP13ActivePhysics
                0x00029fa8                collisionCatA_PenguinMario__14daMegaGoomba_cFP13ActivePhysicsP13ActivePhysics
                0x0002a008                collisionCatD_Drill__14daMegaGoomba_cFP13ActivePhysicsP13ActivePhysics
                0x0002a04c                collisionCat11_PipeCannon__14daMegaGoomba_cFP13ActivePhysicsP13ActivePhysics
                0x0002a054                collisionCat13_Hammer__14daMegaGoomba_cFP13ActivePhysicsP13ActivePhysics
                0x0002a05c                collisionCat14_YoshiFire__14daMegaGoomba_cFP13ActivePhysicsP13ActivePhysics
                0x0002a0bc                addScoreWhenHit__14daMegaGoomba_cFPv
                0x0002a0c0                _vf120__14daMegaGoomba_cFP13ActivePhysicsP13ActivePhysics
                0x0002a0c8                _vf110__14daMegaGoomba_cFP13ActivePhysicsP13ActivePhysics
                0x0002a0d0                _vf108__14daMegaGoomba_cFP13ActivePhysicsP13ActivePhysics
                0x0002a0d8                bindAnimChr_and_setUpdateRate__14daMegaGoomba_cFPCciff
                0x0002a17c                dieFall_Begin__14daMegaGoomba_cFv
                0x0002a1b8                dieFall_Execute__14daMegaGoomba_cFv
                0x0002a260                setupBodyModel__14daMegaGoomba_cFv
                0x0002a390                setupCollision__14daMegaGoomba_cFv
                0x0002a448                onCreate__14daMegaGoomba_cFv
                0x0002a610                onDelete__14daMegaGoomba_cFv
                0x0002a63c                onExecute__14daMegaGoomba_cFv
                0x0002a6a8                onDraw__14daMegaGoomba_cFv
                0x0002a6e4                updateModelMatrices__14daMegaGoomba_cFv
                0x0002a788                beginState_Shrink__14daMegaGoomba_cFv
                0x0002a9b0                executeState_Shrink__14daMegaGoomba_cFv
                0x0002aa8c                endState_Shrink__14daMegaGoomba_cFv
                0x0002aac8                beginState_Turn__14daMegaGoomba_cFv
                0x0002aae4                executeState_Turn__14daMegaGoomba_cFv
                0x0002acc8                endState_Turn__14daMegaGoomba_cFv
                0x0002acfc                beginState_Walk__14daMegaGoomba_cFv
                0x0002ad5c                executeState_Walk__14daMegaGoomba_cFv
                0x0002afc8                endState_Walk__14daMegaGoomba_cFv
                0x0002afcc                stunPlayers__14daMegaGoomba_cFv
                0x0002b088                unstunPlayers__14daMegaGoomba_cFv
                0x0002b114                dieOther_Begin__14daMegaGoomba_cFv
                0x0002b1d4                dieOther_End__14daMegaGoomba_cFv
                0x0002b1fc                dieOther_Execute__14daMegaGoomba_cFv
                0x0002b2b4                build__13daFuzzyBear_cFv
                0x0002b368                __dt__6daBossFv
                0x0002b3c4                playerCollision__13daFuzzyBear_cFP13ActivePhysicsP13ActivePhysics
                0x0002b3fc                yoshiCollision__13daFuzzyBear_cFP13ActivePhysicsP13ActivePhysics
                0x0002b434                collisionCat1_Fireball_E_Explosion__13daFuzzyBear_cFP13ActivePhysicsP13ActivePhysics
                0x0002b43c                collisionCat7_GroundPound__13daFuzzyBear_cFP13ActivePhysicsP13ActivePhysics
                0x0002b4e0                collisionCat7_GroundPoundYoshi__13daFuzzyBear_cFP13ActivePhysicsP13ActivePhysics
                0x0002b54c                collisionCat9_RollingObject__13daFuzzyBear_cFP13ActivePhysicsP13ActivePhysics
                0x0002b784                collisionCat13_Hammer__13daFuzzyBear_cFP13ActivePhysicsP13ActivePhysics
                0x0002b8c4                collisionCat2_IceBall_15_YoshiIce__13daFuzzyBear_cFP13ActivePhysicsP13ActivePhysics
                0x0002b8cc                collisionCat14_YoshiFire__13daFuzzyBear_cFP13ActivePhysicsP13ActivePhysics
                0x0002b8d4                collisionCatA_PenguinMario__13daFuzzyBear_cFP13ActivePhysicsP13ActivePhysics
                0x0002b910                bindAnimChr_and_setUpdateRate__13daFuzzyBear_cFPCciff
                0x0002b9b4                setupBodyModel__13daFuzzyBear_cFv
                0x0002bac4                onCreate__13daFuzzyBear_cFv
                0x0002bd7c                onDelete__13daFuzzyBear_cFv
                0x0002bd84                onExecute__13daFuzzyBear_cFv
                0x0002bdec                onDraw__13daFuzzyBear_cFv
                0x0002be40                updateModelMatrices__13daFuzzyBear_cFv
                0x0002bee4                beginState_Grow__13daFuzzyBear_cFv
                0x0002bf64                executeState_Grow__13daFuzzyBear_cFv
                0x0002c028                endState_Grow__13daFuzzyBear_cFv
                0x0002c064                beginState_Bounce__13daFuzzyBear_cFv
                0x0002c0c0                executeState_Bounce__13daFuzzyBear_cFv
                0x0002c4dc                endState_Bounce__13daFuzzyBear_cFv
                0x0002c4e0                beginState_RolyPoly__13daFuzzyBear_cFv
                0x0002c610                executeState_RolyPoly__13daFuzzyBear_cFv
                0x0002c918                endState_RolyPoly__13daFuzzyBear_cFv
                0x0002c934                beginState_Wait__13daFuzzyBear_cFv
                0x0002c940                executeState_Wait__13daFuzzyBear_cFv
                0x0002c99c                endState_Wait__13daFuzzyBear_cFv
                0x0002c9a0                beginState_Outro__13daFuzzyBear_cFv
                0x0002c9c8                executeState_Outro__13daFuzzyBear_cFv
                0x0002ca98                endState_Outro__13daFuzzyBear_cFv
                0x0002ca9c                build__15daEnMegaDosun_cFv
                0x0002cb58                powBlockActivated__15daEnMegaDosun_cFb
                0x0002cb5c                playerCollision__15daEnMegaDosun_cFP13ActivePhysicsP13ActivePhysics
                0x0002cb94                collisionCat1_Fireball_E_Explosion__15daEnMegaDosun_cFP13ActivePhysicsP13ActivePhysics
                0x0002cb9c                collisionCat2_IceBall_15_YoshiIce__15daEnMegaDosun_cFP13ActivePhysicsP13ActivePhysics
                0x0002cba4                collisionCat7_GroundPound__15daEnMegaDosun_cFP13ActivePhysicsP13ActivePhysics
                0x0002cbe0                collisionCat9_RollingObject__15daEnMegaDosun_cFP13ActivePhysicsP13ActivePhysics
                0x0002cbe8                collisionCat13_Hammer__15daEnMegaDosun_cFP13ActivePhysicsP13ActivePhysics
                0x0002cbf0                collisionCat14_YoshiFire__15daEnMegaDosun_cFP13ActivePhysicsP13ActivePhysics
                0x0002cbf8                collisionCatA_PenguinMario__15daEnMegaDosun_cFP13ActivePhysicsP13ActivePhysics
                0x0002cc34                setupBodyModel__15daEnMegaDosun_cFv
                0x0002cd60                onCreate__15daEnMegaDosun_cFv
                0x0002d044                onExecute__15daEnMegaDosun_cFv
                0x0002d138                onDraw__15daEnMegaDosun_cFv
                0x0002d1f4                onDelete__15daEnMegaDosun_cFv
                0x0002d1fc                beginState_Grow__15daEnMegaDosun_cFv
                0x0002d27c                executeState_Grow__15daEnMegaDosun_cFv
                0x0002d318                endState_Grow__15daEnMegaDosun_cFv
                0x0002d34c                beginState_UpWait__15daEnMegaDosun_cFv
                0x0002d364                executeState_UpWait__15daEnMegaDosun_cFv
                0x0002d5d4                endState_UpWait__15daEnMegaDosun_cFv
                0x0002d5e0                beginState_DownMoveWait__15daEnMegaDosun_cFv
                0x0002d624                executeState_DownMoveWait__15daEnMegaDosun_cFv
                0x0002d68c                endState_DownMoveWait__15daEnMegaDosun_cFv
                0x0002d690                beginState_PuruMove__15daEnMegaDosun_cFv
                0x0002d6a4                executeState_PuruMove__15daEnMegaDosun_cFv
                0x0002d758                endState_PuruMove__15daEnMegaDosun_cFv
                0x0002d75c                beginState_DownMove__15daEnMegaDosun_cFv
                0x0002d76c                executeState_DownMove__15daEnMegaDosun_cFv
                0x0002d8f8                endState_DownMove__15daEnMegaDosun_cFv
                0x0002d8fc                beginState_DownWait__15daEnMegaDosun_cFv
                0x0002d900                executeState_DownWait__15daEnMegaDosun_cFv
                0x0002d988                endState_DownWait__15daEnMegaDosun_cFv
                0x0002d98c                beginState_UpMove__15daEnMegaDosun_cFv
                0x0002d9b8                executeState_UpMove__15daEnMegaDosun_cFv
                0x0002da3c                endState_UpMove__15daEnMegaDosun_cFv
                0x0002da40                beginState_Outro__15daEnMegaDosun_cFv
                0x0002da90                executeState_Outro__15daEnMegaDosun_cFv
                0x0002dc3c                endState_Outro__15daEnMegaDosun_cFv
                0x0002dc40                build__10daRamboo_cFv
                0x0002ddd0                playerCollision__10daRamboo_cFP13ActivePhysicsP13ActivePhysics
                0x0002de54                collisionCat1_Fireball_E_Explosion__10daRamboo_cFP13ActivePhysicsP13ActivePhysics
                0x0002dee4                collisionCat2_IceBall_15_YoshiIce__10daRamboo_cFP13ActivePhysicsP13ActivePhysics
                0x0002deec                collisionCat9_RollingObject__10daRamboo_cFP13ActivePhysicsP13ActivePhysics
                0x0002e06c                collisionCat13_Hammer__10daRamboo_cFP13ActivePhysicsP13ActivePhysics
                0x0002e0b0                collisionCat7_GroundPound__10daRamboo_cFP13ActivePhysicsP13ActivePhysics
                0x0002e0ec                collisionCatA_PenguinMario__10daRamboo_cFP13ActivePhysicsP13ActivePhysics
                0x0002e128                bindAnimChr_and_setUpdateRates__10daRamboo_cFPCcRQ23m3d8anmChr_cRQ23m3d5mdl_cf
                0x0002e1d0                setupModels__10daRamboo_cFv
                0x0002e4d0                onCreate__10daRamboo_cFv
                0x0002e728                onDelete__10daRamboo_cFv
                0x0002e730                onExecute__10daRamboo_cFv
                0x0002e8b4                onDraw__10daRamboo_cFv
                0x0002e930                updateModelMatrices__10daRamboo_cFv
                0x0002ea9c                beginState_Grow__10daRamboo_cFv
                0x0002eb04                executeState_Grow__10daRamboo_cFv
                0x0002ec5c                endState_Grow__10daRamboo_cFv
                0x0002ec98                RightmostPlayerPos__Fv
                0x0002ed30                beginState_Advance__10daRamboo_cFv
                0x0002ed98                executeState_Advance__10daRamboo_cFv
                0x0002ef08                endState_Advance__10daRamboo_cFv
                0x0002ef0c                beginState_Wait__10daRamboo_cFv
                0x0002ef48                executeState_Wait__10daRamboo_cFv
                0x0002f054                endState_Wait__10daRamboo_cFv
                0x0002f0a4                beginState_Flee__10daRamboo_cFv
                0x0002f0b0                executeState_Flee__10daRamboo_cFv
                0x0002f1bc                endState_Flee__10daRamboo_cFv
                0x0002f1c0                beginState_Outro__10daRamboo_cFv
                0x0002f238                executeState_Outro__10daRamboo_cFv
                0x0002f414                endState_Outro__10daRamboo_cFv
                0x0002f418                build__10daBalboa_cFv
                0x0002f4dc                balbieCollisionCallback__FP13ActivePhysicsP13ActivePhysics
                0x0002f524                addScoreWhenHit__10daBalboa_cFPv
                0x0002f528                prePlayerCollision__10daBalboa_cFP13ActivePhysicsP13ActivePhysics
                0x0002f5c0                playerCollision__10daBalboa_cFP13ActivePhysicsP13ActivePhysics
                0x0002f680                collisionCat7_GroundPound__10daBalboa_cFP13ActivePhysicsP13ActivePhysics
                0x0002f7c8                collisionCatD_Drill__10daBalboa_cFP13ActivePhysicsP13ActivePhysics
                0x0002f80c                collisionCat1_Fireball_E_Explosion__10daBalboa_cFP13ActivePhysicsP13ActivePhysics
                0x0002f814                collisionCat2_IceBall_15_YoshiIce__10daBalboa_cFP13ActivePhysicsP13ActivePhysics
                0x0002f81c                collisionCat9_RollingObject__10daBalboa_cFP13ActivePhysicsP13ActivePhysics
                0x0002f824                collisionCat13_Hammer__10daBalboa_cFP13ActivePhysicsP13ActivePhysics
                0x0002f82c                collisionCatA_PenguinMario__10daBalboa_cFP13ActivePhysicsP13ActivePhysics
                0x0002f86c                setupModels__10daBalboa_cFv
                0x0002fa54                bindAnimChr_and_setUpdateRate__10daBalboa_cFPCciff
                0x0002faf8                onCreate__10daBalboa_cFv
                0x0002fe98                onDelete__10daBalboa_cFv
                0x0002fea0                onExecute__10daBalboa_cFv
                0x0002ffa0                onDraw__10daBalboa_cFv
                0x00030008                updateModelMatrices__10daBalboa_cFv
                0x00030110                beginState_Grow__10daBalboa_cFv
                0x00030170                executeState_Grow__10daBalboa_cFv
                0x00030228                endState_Grow__10daBalboa_cFv
                0x0003025c                beginState_ManholeUp__10daBalboa_cFv
                0x000303c0                executeState_ManholeUp__10daBalboa_cFv
                0x00030440                endState_ManholeUp__10daBalboa_cFv
                0x00030444                beginState_HeadPoke__10daBalboa_cFv
                0x00030498                executeState_HeadPoke__10daBalboa_cFv
                0x00030504                endState_HeadPoke__10daBalboa_cFv
                0x00030508                beginState_AllOut__10daBalboa_cFv
                0x00030568                executeState_AllOut__10daBalboa_cFv
                0x000305d4                endState_AllOut__10daBalboa_cFv
                0x000305d8                beginState_ThrowWrench__10daBalboa_cFv
                0x00030664                executeState_ThrowWrench__10daBalboa_cFv
                0x000307f8                endState_ThrowWrench__10daBalboa_cFv
                0x000307fc                beginState_BackDown__10daBalboa_cFv
                0x000308f8                executeState_BackDown__10daBalboa_cFv
                0x00030978                endState_BackDown__10daBalboa_cFv
                0x0003097c                beginState_Outro__10daBalboa_cFv
                0x000309e8                executeState_Outro__10daBalboa_cFv
                0x00030b04                endState_Outro__10daBalboa_cFv
                0x00030b08                beginState_Damage__10daBalboa_cFv
                0x00030b70                executeState_Damage__10daBalboa_cFv
                0x00030cc8                endState_Damage__10daBalboa_cFv
                0x00030cfc                beginState_RevengeUp__10daBalboa_cFv
                0x00030d98                executeState_RevengeUp__10daBalboa_cFv
                0x00030e04                endState_RevengeUp__10daBalboa_cFv
                0x00030e08                beginState_Revenge__10daBalboa_cFv
                0x00030e9c                executeState_Revenge__10daBalboa_cFv
                0x00031098                endState_Revenge__10daBalboa_cFv
                0x000310d8                playerCollision__8daWrenchFP13ActivePhysicsP13ActivePhysics
                0x00031110                collisionCat1_Fireball_E_Explosion__8daWrenchFP13ActivePhysicsP13ActivePhysics
                0x00031118                collisionCat2_IceBall_15_YoshiIce__8daWrenchFP13ActivePhysicsP13ActivePhysics
                0x00031120                collisionCat9_RollingObject__8daWrenchFP13ActivePhysicsP13ActivePhysics
                0x00031128                collisionCat13_Hammer__8daWrenchFP13ActivePhysicsP13ActivePhysics
                0x000311d0                collisionCat14_YoshiFire__8daWrenchFP13ActivePhysicsP13ActivePhysics
                0x000311d8                collisionCat7_GroundPound__8daWrenchFP13ActivePhysicsP13ActivePhysics
                0x000312a4                build__8daWrenchFv
                0x00031318                onCreate__8daWrenchFv
                0x00031708                onDelete__8daWrenchFv
                0x00031710                onDraw__8daWrenchFv
                0x0003174c                updateModelMatrices__8daWrenchFv
                0x000317f0                onExecute__8daWrenchFv
                0x000318b4                beginState_Kaboom__8daWrenchFv
                0x0003195c                executeState_Kaboom__8daWrenchFv
                0x00031cb4                endState_Kaboom__8daWrenchFv
                0x00031cb8                beginState_Straight__8daWrenchFv
                0x00031d60                executeState_Straight__8daWrenchFv
                0x00031f0c                endState_Straight__8daWrenchFv
                0x00031f10                build__11daSamurshaiFv
                0x00032010                ChucksAndKnucks__FP13ActivePhysicsP13ActivePhysics
                0x0003206c                playerCollision__11daSamurshaiFP13ActivePhysicsP13ActivePhysics
                0x000321f8                yoshiCollision__11daSamurshaiFP13ActivePhysicsP13ActivePhysics
                0x0003223c                collisionCatD_Drill__11daSamurshaiFP13ActivePhysicsP13ActivePhysics
                0x00032280                collisionCat7_GroundPound__11daSamurshaiFP13ActivePhysicsP13ActivePhysics
                0x0003236c                collisionCat7_GroundPoundYoshi__11daSamurshaiFP13ActivePhysicsP13ActivePhysics
                0x000323b0                collisionCat9_RollingObject__11daSamurshaiFP13ActivePhysicsP13ActivePhysics
                0x00032440                collisionCat3_StarPower__11daSamurshaiFP13ActivePhysicsP13ActivePhysics
                0x00032448                collisionCatA_PenguinMario__11daSamurshaiFP13ActivePhysicsP13ActivePhysics
                0x000324bc                collisionCat14_YoshiFire__11daSamurshaiFP13ActivePhysicsP13ActivePhysics
                0x000324c4                collisionCat1_Fireball_E_Explosion__11daSamurshaiFP13ActivePhysicsP13ActivePhysics
                0x000324cc                collisionCat2_IceBall_15_YoshiIce__11daSamurshaiFP13ActivePhysicsP13ActivePhysics
                0x000324d4                collisionCat13_Hammer__11daSamurshaiFP13ActivePhysicsP13ActivePhysics
                0x000324dc                addScoreWhenHit__11daSamurshaiFPv
                0x000324e0                powBlockActivated__11daSamurshaiFb
                0x000324e4                calculateTileCollisions__11daSamurshaiFv
                0x000326e8                bindAnimChr_and_setUpdateRate__11daSamurshaiFPCciff
                0x0003278c                onCreate__11daSamurshaiFv
                0x00032c1c                onDelete__11daSamurshaiFv
                0x00032c24                onExecute__11daSamurshaiFv
                0x00032c6c                onDraw__11daSamurshaiFv
                0x00032cc0                updateModelMatrices__11daSamurshaiFv
                0x00032d68                beginState_Intro__11daSamurshaiFv
                0x00032f20                executeState_Intro__11daSamurshaiFv
                0x0003320c                endState_Intro__11daSamurshaiFv
                0x00033268                randomPlayer__11daSamurshaiFv
                0x00033324                beginState_Walk__11daSamurshaiFv
                0x00033434                executeState_Walk__11daSamurshaiFv
                0x000336f0                endState_Walk__11daSamurshaiFv
                0x000336f4                beginState_Turn__11daSamurshaiFv
                0x00033780                executeState_Turn__11daSamurshaiFv
                0x00033838                endState_Turn__11daSamurshaiFv
                0x0003383c                beginState_Chop__11daSamurshaiFv
                0x000338a0                executeState_Chop__11daSamurshaiFv
                0x00033d70                endState_Chop__11daSamurshaiFv
                0x00033d74                beginState_ChargeSlash__11daSamurshaiFv
                0x00033d9c                executeState_ChargeSlash__11daSamurshaiFv
                0x000342cc                endState_ChargeSlash__11daSamurshaiFv
                0x000342d8                beginState_Uppercut__11daSamurshaiFv
                0x00034334                executeState_Uppercut__11daSamurshaiFv
                0x000348cc                endState_Uppercut__11daSamurshaiFv
                0x000348d8                beginState_SpinAttack__11daSamurshaiFv
                0x0003491c                executeState_SpinAttack__11daSamurshaiFv
                0x00034bb8                endState_SpinAttack__11daSamurshaiFv
                0x00034bbc                beginState_Damage__11daSamurshaiFv
                0x00034cf0                executeState_Damage__11daSamurshaiFv
                0x00034e68                endState_Damage__11daSamurshaiFv
                0x00034ecc                beginState_Outro__11daSamurshaiFv
                0x00034f94                executeState_Outro__11daSamurshaiFv
                0x00035268                endState_Outro__11daSamurshaiFv
                0x0003526c                isNearWall__11daSamurshaiFv
                0x000353d8                poodleCollisionCallback__FP13ActivePhysicsP13ActivePhysics
                0x00035430                build__10daPodoubleFv
                0x000355cc                playerCollision__10daPodoubleFP13ActivePhysicsP13ActivePhysics
                0x00035604                yoshiCollision__10daPodoubleFP13ActivePhysicsP13ActivePhysics
                0x00035648                collisionCat7_GroundPound__10daPodoubleFP13ActivePhysicsP13ActivePhysics
                0x00035690                collisionCat7_GroundPoundYoshi__10daPodoubleFP13ActivePhysicsP13ActivePhysics
                0x000356d8                collisionCatA_PenguinMario__10daPodoubleFP13ActivePhysicsP13ActivePhysics
                0x00035720                collisionCatD_Drill__10daPodoubleFP13ActivePhysicsP13ActivePhysics
                0x00035728                collisionCat9_RollingObject__10daPodoubleFP13ActivePhysicsP13ActivePhysics
                0x00035730                collisionCat3_StarPower__10daPodoubleFP13ActivePhysicsP13ActivePhysics
                0x00035738                collisionCat13_Hammer__10daPodoubleFP13ActivePhysicsP13ActivePhysics
                0x00035778                collisionCat14_YoshiFire__10daPodoubleFP13ActivePhysicsP13ActivePhysics
                0x00035844                collisionCat1_Fireball_E_Explosion__10daPodoubleFP13ActivePhysicsP13ActivePhysics
                0x000358f4                collisionCat2_IceBall_15_YoshiIce__10daPodoubleFP13ActivePhysicsP13ActivePhysics
                0x000359e0                updateHitboxSize__10daPodoubleFv
                0x00035a0c                onCreate__10daPodoubleFv
                0x00035fec                onDelete__10daPodoubleFv
                0x00035ff4                onExecute__10daPodoubleFv
                0x000361fc                onDraw__10daPodoubleFv
                0x000363b0                beginState_Grow__10daPodoubleFv
                0x00036440                executeState_Grow__10daPodoubleFv
                0x00036944                endState_Grow__10daPodoubleFv
                0x00036990                beginState_Bounce__10daPodoubleFv
                0x00036a00                executeState_Bounce__10daPodoubleFv
                0x00036b20                endState_Bounce__10daPodoubleFv
                0x00036b3c                beginState_Spit__10daPodoubleFv
                0x00036b48                executeState_Spit__10daPodoubleFv
                0x00036df0                endState_Spit__10daPodoubleFv
                0x00036e0c                beginState_Damage__10daPodoubleFv
                0x00036f10                executeState_Damage__10daPodoubleFv
                0x0003712c                endState_Damage__10daPodoubleFv
                0x00037138                beginState_Outro__10daPodoubleFv
                0x0003720c                executeState_Outro__10daPodoubleFv
                0x00037328                endState_Outro__10daPodoubleFv
                0x0003732c                beginState_SyncDie__10daPodoubleFv
                0x0003743c                executeState_SyncDie__10daPodoubleFv
                0x00037484                endState_SyncDie__10daPodoubleFv
                0x00037488                build__9daDreidelFv
                0x0003753c                addScoreWhenHit__9daDreidelFPv
                0x00037540                spriteCollision__9daDreidelFP13ActivePhysicsP13ActivePhysics
                0x0003763c                playerCollision__9daDreidelFP13ActivePhysicsP13ActivePhysics
                0x00037848                yoshiCollision__9daDreidelFP13ActivePhysicsP13ActivePhysics
                0x0003788c                collisionCatD_Drill__9daDreidelFP13ActivePhysicsP13ActivePhysics
                0x000378c8                collisionCat7_GroundPound__9daDreidelFP13ActivePhysicsP13ActivePhysics
                0x00037904                collisionCat7_GroundPoundYoshi__9daDreidelFP13ActivePhysicsP13ActivePhysics
                0x00037940                collisionCat9_RollingObject__9daDreidelFP13ActivePhysicsP13ActivePhysics
                0x00037998                collisionCatA_PenguinMario__9daDreidelFP13ActivePhysicsP13ActivePhysics
                0x000379f0                collisionCat3_StarPower__9daDreidelFP13ActivePhysicsP13ActivePhysics
                0x000379f8                collisionCat13_Hammer__9daDreidelFP13ActivePhysicsP13ActivePhysics
                0x00037a00                collisionCat14_YoshiFire__9daDreidelFP13ActivePhysicsP13ActivePhysics
                0x00037a08                collisionCat1_Fireball_E_Explosion__9daDreidelFP13ActivePhysicsP13ActivePhysics
                0x00037a10                collisionCat2_IceBall_15_YoshiIce__9daDreidelFP13ActivePhysicsP13ActivePhysics
                0x00037a18                powBlockActivated__9daDreidelFb
                0x00037a1c                calculateTileCollisions__9daDreidelFv
                0x00037c70                bindAnimChr_and_setUpdateRate__9daDreidelFPCciff
                0x00037d14                onCreate__9daDreidelFv
                0x00038104                onDelete__9daDreidelFv
                0x0003810c                onExecute__9daDreidelFv
                0x00038154                onDraw__9daDreidelFv
                0x000381e4                updateModelMatrices__9daDreidelFv
                0x00038298                beginState_Grow__9daDreidelFv
                0x000382f8                executeState_Grow__9daDreidelFv
                0x000383b0                endState_Grow__9daDreidelFv
                0x000383f4                beginState_Walk__9daDreidelFv
                0x000384e0                executeState_Walk__9daDreidelFv
                0x00038618                endState_Walk__9daDreidelFv
                0x00038628                beginState_Turn__9daDreidelFv
                0x00038644                executeState_Turn__9daDreidelFv
                0x00038728                endState_Turn__9daDreidelFv
                0x00038760                beginState_KnockBack__9daDreidelFv
                0x000387fc                executeState_KnockBack__9daDreidelFv
                0x000388dc                endState_KnockBack__9daDreidelFv
                0x00038948                beginState_ChargePrep__9daDreidelFv
                0x0003898c                executeState_ChargePrep__9daDreidelFv
                0x000389e0                endState_ChargePrep__9daDreidelFv
                0x000389e4                beginState_Charge__9daDreidelFv
                0x00038b08                executeState_Charge__9daDreidelFv
                0x00038c4c                endState_Charge__9daDreidelFv
                0x00038c78                beginState_ChargeRecover__9daDreidelFv
                0x00038cbc                executeState_ChargeRecover__9daDreidelFv
                0x00038d10                endState_ChargeRecover__9daDreidelFv
                0x00038d14                beginState_Damage__9daDreidelFv
                0x00038f18                executeState_Damage__9daDreidelFv
                0x00039024                endState_Damage__9daDreidelFv
                0x00039078                beginState_Outro__9daDreidelFv
                0x000390a0                executeState_Outro__9daDreidelFv
                0x00039188                endState_Outro__9daDreidelFv
                0x0003918c                CConDraw__FP5dEn_c
                0x000392d4                CConExecute__FP5dEn_c
                0x00039398                CCafterCreate__FP5dEn_cUi
                0x00039534                CConExecuteMove__FP5dEn_c
                0x00039878                newClownCtor__FP5dEn_c
                0x000398bc                newClownDtor__FP5dEn_cUi
                0x0003994c                JrClownForPlayer_playAccelSound
                0x00039998                playerCollision__11daClownShotFP13ActivePhysicsP13ActivePhysics
                0x0003999c                build__11daClownShotFv
                0x00039a50                onCreate__11daClownShotFv
                0x00039cf8                onDraw__11daClownShotFv
                0x00039db4                onExecute__11daClownShotFv
                0x00039fcc                Amp_NewPreSpriteCollision
                0x0003a06c                KazanRock_CollisionCallback
                0x0003a0d4                build__15daCaptainBowserFv
                0x0003a4c4                addScoreWhenHit__15daCaptainBowserFPv
                0x0003a4c8                collisionCat13_Hammer__15daCaptainBowserFP13ActivePhysicsP13ActivePhysics
                0x0003a584                spriteCollision__15daCaptainBowserFP13ActivePhysicsP13ActivePhysics
                0x0003a710                playerCollision__15daCaptainBowserFP13ActivePhysicsP13ActivePhysics
                0x0003a748                bindAnimChr_and_setUpdateRate__15daCaptainBowserFPCciff
                0x0003a7ec                onCreate__15daCaptainBowserFv
                0x0003ad40                onDelete__15daCaptainBowserFv
                0x0003ad98                afterExecute__15daCaptainBowserFi
                0x0003adc8                onExecute__15daCaptainBowserFv
                0x0003b12c                onDraw__15daCaptainBowserFv
                0x0003b33c                beginState_Intro__15daCaptainBowserFv
                0x0003b3a8                executeState_Intro__15daCaptainBowserFv
                0x0003b798                endState_Intro__15daCaptainBowserFv
                0x0003b7d8                beginState_Wait__15daCaptainBowserFv
                0x0003b85c                executeState_Wait__15daCaptainBowserFv
                0x0003b910                endState_Wait__15daCaptainBowserFv
                0x0003b914                beginState_Throw__15daCaptainBowserFv
                0x0003b968                executeState_Throw__15daCaptainBowserFv
                0x0003bb74                endState_Throw__15daCaptainBowserFv
                0x0003bb78                beginState_Fire__15daCaptainBowserFv
                0x0003bbcc                executeState_Fire__15daCaptainBowserFv
                0x0003bd34                endState_Fire__15daCaptainBowserFv
                0x0003bd38                beginState_Roar__15daCaptainBowserFv
                0x0003bd94                executeState_Roar__15daCaptainBowserFv
                0x0003bf10                endState_Roar__15daCaptainBowserFv
                0x0003bf24                beginState_Damage__15daCaptainBowserFv
                0x0003bf98                executeState_Damage__15daCaptainBowserFv
                0x0003bff4                endState_Damage__15daCaptainBowserFv
                0x0003c000                initiateDeathSequence__15daCaptainBowserFv
                0x0003c0a4                beginState_FinalAttack__15daCaptainBowserFv
                0x0003c114                executeState_FinalAttack__15daCaptainBowserFv
                0x0003c608                endState_FinalAttack__15daCaptainBowserFv
                0x0003c60c                beginState_Outro__15daCaptainBowserFv
                0x0003c774                executeState_Outro__15daCaptainBowserFv
                0x0003d210                endState_Outro__15daCaptainBowserFv
                0x0003d214                beginState_PanToExit__15daCaptainBowserFv
                0x0003d220                endState_PanToExit__15daCaptainBowserFv
                0x0003d224                executeState_PanToExit__15daCaptainBowserFv
                0x0003d3b0                playerCollision__12daKoopaThrowFP13ActivePhysicsP13ActivePhysics
                0x0003d58c                spriteCollision__12daKoopaThrowFP13ActivePhysicsP13ActivePhysics
                0x0003d590                collisionCat1_Fireball_E_Explosion__12daKoopaThrowFP13ActivePhysicsP13ActivePhysics
                0x0003d598                collisionCat2_IceBall_15_YoshiIce__12daKoopaThrowFP13ActivePhysicsP13ActivePhysics
                0x0003d5a0                collisionCat9_RollingObject__12daKoopaThrowFP13ActivePhysicsP13ActivePhysics
                0x0003d5a8                collisionCat13_Hammer__12daKoopaThrowFP13ActivePhysicsP13ActivePhysics
                0x0003d70c                collisionCat14_YoshiFire__12daKoopaThrowFP13ActivePhysicsP13ActivePhysics
                0x0003d714                collisionCat7_GroundPound__12daKoopaThrowFP13ActivePhysicsP13ActivePhysics
                0x0003d834                build__12daKoopaThrowFv
                0x0003d8d0                onCreate__12daKoopaThrowFv
                0x0003ddcc                onDelete__12daKoopaThrowFv
                0x0003de24                onDraw__12daKoopaThrowFv
                0x0003de60                updateModelMatrices__12daKoopaThrowFv
                0x0003df04                onExecute__12daKoopaThrowFv
                0x0003e008                beginState_Straight__12daKoopaThrowFv
                0x0003e0b0                executeState_Straight__12daKoopaThrowFv
                0x0003e1e8                endState_Straight__12daKoopaThrowFv
                0x0003e1ec                playerCollision__13daKoopaBreathFP13ActivePhysicsP13ActivePhysics
                0x0003e224                spriteCollision__13daKoopaBreathFP13ActivePhysicsP13ActivePhysics
                0x0003e228                build__13daKoopaBreathFv
                0x0003e2bc                onCreate__13daKoopaBreathFv
                0x0003e380                onExecute__13daKoopaBreathFv
                0x0003e4bc                BowserDoomSpriteCollision__FP5dEn_cP13ActivePhysicsP13ActivePhysics
                0x0003e664                BowserDoomStart__FP13dStageActor_c
                0x0003e6c4                BowserDoomExecute__FP13dStageActor_c
                0x0003e71c                BowserDoomEnd__FP13dStageActor_c
                0x0003e75c                BowserStartEnd__FP13dStageActor_c
                0x0003e7a0                playerCollision__12dDroppedBombFP13ActivePhysicsP13ActivePhysics
                0x0003e7f4                build__12dDroppedBombFv
                0x0003e868                collisionCat1_Fireball_E_Explosion__12dDroppedBombFP13ActivePhysicsP13ActivePhysics
                0x0003e870                collisionCat2_IceBall_15_YoshiIce__12dDroppedBombFP13ActivePhysicsP13ActivePhysics
                0x0003e878                collisionCat9_RollingObject__12dDroppedBombFP13ActivePhysicsP13ActivePhysics
                0x0003e880                collisionCat13_Hammer__12dDroppedBombFP13ActivePhysicsP13ActivePhysics
                0x0003e888                collisionCat14_YoshiFire__12dDroppedBombFP13ActivePhysicsP13ActivePhysics
                0x0003e890                collisionCat7_GroundPound__12dDroppedBombFP13ActivePhysicsP13ActivePhysics
                0x0003e898                kill__12dDroppedBombFv
                0x0003e97c                onCreate__12dDroppedBombFv
                0x0003ec34                onDelete__12dDroppedBombFv
                0x0003ec3c                onDraw__12dDroppedBombFv
                0x0003ec78                updateModelMatrices__12dDroppedBombFv
                0x0003ed1c                onExecute__12dDroppedBombFv
                0x0003eec4                build__9dBombDropFv
                0x0003ef28                onCreate__9dBombDropFv
                0x0003f014                onDelete__9dBombDropFv
                0x0003f01c                onDraw__9dBombDropFv
                0x0003f024                onExecute__9dBombDropFv
                0x0003f1cc                build__11EffectVideoFv
                0x0003f230                onCreate__11EffectVideoFv
                0x0003f32c                onDelete__11EffectVideoFv
                0x0003f334                onExecute__11EffectVideoFv
                0x0003f618                playerCollision__14daFakeStarCoinFP13ActivePhysicsP13ActivePhysics
                0x0003f6bc                collisionCat7_GroundPound__14daFakeStarCoinFP13ActivePhysicsP13ActivePhysics
                0x0003f700                collisionCat7_GroundPoundYoshi__14daFakeStarCoinFP13ActivePhysicsP13ActivePhysics
                0x0003f744                collisionCatD_Drill__14daFakeStarCoinFP13ActivePhysicsP13ActivePhysics
                0x0003f788                collisionCatA_PenguinMario__14daFakeStarCoinFP13ActivePhysicsP13ActivePhysics
                0x0003f7cc                collisionCat1_Fireball_E_Explosion__14daFakeStarCoinFP13ActivePhysicsP13ActivePhysics
                0x0003f8b4                collisionCat2_IceBall_15_YoshiIce__14daFakeStarCoinFP13ActivePhysicsP13ActivePhysics
                0x0003f9f0                collisionCat9_RollingObject__14daFakeStarCoinFP13ActivePhysicsP13ActivePhysics
                0x0003fad8                collisionCat13_Hammer__14daFakeStarCoinFP13ActivePhysicsP13ActivePhysics
                0x0003fb1c                collisionCat14_YoshiFire__14daFakeStarCoinFP13ActivePhysicsP13ActivePhysics
                0x0003fb60                collisionCat3_StarPower__14daFakeStarCoinFP13ActivePhysicsP13ActivePhysics
                0x0003fba4                build__14daFakeStarCoinFv
                0x0003fc18                onCreate__14daFakeStarCoinFv
                0x0003fd9c                onDelete__14daFakeStarCoinFv
                0x0003fda4                onDraw__14daFakeStarCoinFv
                0x0003fde0                updateModelMatrices__14daFakeStarCoinFv
                0x0003fe84                onExecute__14daFakeStarCoinFv
                0x0003fec4                build__8daShyGuyFv
                0x00040008                actorCanPopBalloon__FP13dStageActor_c
                0x0004009c                shyCollisionCallback__FP13ActivePhysicsP13ActivePhysics
                0x00040134                ChucklesAndKnuckles__FP13ActivePhysicsP13ActivePhysics
                0x00040190                balloonSmack__FP13ActivePhysicsP13ActivePhysics
                0x000401ec                spriteCollision__8daShyGuyFP13ActivePhysicsP13ActivePhysics
                0x000403d8                popBalloon__8daShyGuyFv
                0x00040414                playerCollision__8daShyGuyFP13ActivePhysicsP13ActivePhysics
                0x00040664                yoshiCollision__8daShyGuyFP13ActivePhysicsP13ActivePhysics
                0x000406a8                collisionCatD_Drill__8daShyGuyFP13ActivePhysicsP13ActivePhysics
                0x0004075c                collisionCat7_GroundPound__8daShyGuyFP13ActivePhysicsP13ActivePhysics
                0x000407a0                collisionCat7_GroundPoundYoshi__8daShyGuyFP13ActivePhysicsP13ActivePhysics
                0x000407e4                collisionCat9_RollingObject__8daShyGuyFP13ActivePhysicsP13ActivePhysics
                0x00040828                collisionCatA_PenguinMario__8daShyGuyFP13ActivePhysicsP13ActivePhysics
                0x0004086c                collisionCat5_Mario__8daShyGuyFP13ActivePhysicsP13ActivePhysics
                0x000408b0                collisionCat11_PipeCannon__8daShyGuyFP13ActivePhysicsP13ActivePhysics
                0x000408f4                collisionCat13_Hammer__8daShyGuyFP13ActivePhysicsP13ActivePhysics
                0x0004095c                collisionCat3_StarPower__8daShyGuyFP13ActivePhysicsP13ActivePhysics
                0x000409c8                collisionCat14_YoshiFire__8daShyGuyFP13ActivePhysicsP13ActivePhysics
                0x00040a08                collisionCat1_Fireball_E_Explosion__8daShyGuyFP13ActivePhysicsP13ActivePhysics
                0x00040b98                _vf148__8daShyGuyFv
                0x00040be4                _vf14C__8daShyGuyFv
                0x00040c30                CreateIceActors__8daShyGuyFv
                0x00040d44                calculateTileCollisions__8daShyGuyFv
                0x00040f9c                bindAnimChr_and_setUpdateRate__8daShyGuyFPCciff
                0x00041040                onCreate__8daShyGuyFv
                0x000419b4                onDelete__8daShyGuyFv
                0x000419bc                onExecute__8daShyGuyFv
                0x00041a18                onDraw__8daShyGuyFv
                0x00041a90                updateModelMatrices__8daShyGuyFv
                0x00041c1c                beginState_Walk__8daShyGuyFv
                0x00041c80                executeState_Walk__8daShyGuyFv
                0x00041d4c                endState_Walk__8daShyGuyFv
                0x00041d50                beginState_Turn__8daShyGuyFv
                0x00041d6c                executeState_Turn__8daShyGuyFv
                0x00041e24                endState_Turn__8daShyGuyFv
                0x00041e28                beginState_Jump__8daShyGuyFv
                0x00041e60                executeState_Jump__8daShyGuyFv
                0x00042084                endState_Jump__8daShyGuyFv
                0x00042088                beginState_Sleep__8daShyGuyFv
                0x000420dc                executeState_Sleep__8daShyGuyFv
                0x00042124                endState_Sleep__8daShyGuyFv
                0x00042128                beginState_Balloon_H__8daShyGuyFv
                0x000421b0                executeState_Balloon_H__8daShyGuyFv
                0x000422d4                endState_Balloon_H__8daShyGuyFv
                0x000422d8                beginState_Balloon_V__8daShyGuyFv
                0x00042360                executeState_Balloon_V__8daShyGuyFv
                0x00042484                endState_Balloon_V__8daShyGuyFv
                0x00042488                beginState_Balloon_C__8daShyGuyFv
                0x00042510                executeState_Balloon_C__8daShyGuyFv
                0x00042648                endState_Balloon_C__8daShyGuyFv
                0x0004264c                beginState_Judo__8daShyGuyFv
                0x00042694                executeState_Judo__8daShyGuyFv
                0x00042c1c                endState_Judo__8daShyGuyFv
                0x00042c20                beginState_Spike__8daShyGuyFv
                0x00042c70                executeState_Spike__8daShyGuyFv
                0x00042edc                endState_Spike__8daShyGuyFv
                0x00042ee0                willWalkOntoSuitableGround__8daShyGuyFv
                0x00042fdc                beginState_RealWalk__8daShyGuyFv
                0x0004305c                executeState_RealWalk__8daShyGuyFv
                0x000431e8                endState_RealWalk__8daShyGuyFv
                0x000431ec                beginState_RealTurn__8daShyGuyFv
                0x00043208                executeState_RealTurn__8daShyGuyFv
                0x000432c0                endState_RealTurn__8daShyGuyFv
                0x000432c4                beginState_GoDizzy__8daShyGuyFv
                0x00043360                executeState_GoDizzy__8daShyGuyFv
                0x000434c8                endState_GoDizzy__8daShyGuyFv
                0x000434cc                beginState_BalloonDrop__8daShyGuyFv
                0x00043618                executeState_BalloonDrop__8daShyGuyFv
                0x00043724                endState_BalloonDrop__8daShyGuyFv
                0x00043728                beginState_FireKnockBack__8daShyGuyFv
                0x000437d0                executeState_FireKnockBack__8daShyGuyFv
                0x0004388c                endState_FireKnockBack__8daShyGuyFv
                0x0004389c                beginState_FlameHit__8daShyGuyFv
                0x000438e0                executeState_FlameHit__8daShyGuyFv
                0x0004399c                endState_FlameHit__8daShyGuyFv
                0x000439a0                beginState_Recover__8daShyGuyFv
                0x000439e4                executeState_Recover__8daShyGuyFv
                0x00043a90                endState_Recover__8daShyGuyFv
                0x00043ad0                beginState_Die__8daShyGuyFv
                0x00043bfc                executeState_Die__8daShyGuyFv
                0x00043cd8                endState_Die__8daShyGuyFv
                0x00043cdc                build__13daShyGuyGiantFv
                0x00043dd0                playerCollision__13daShyGuyGiantFP13ActivePhysicsP13ActivePhysics
                0x00043f34                _vf278__13daShyGuyGiantFPv
                0x00043f60                bouncePlayerWhenJumpedOn__13daShyGuyGiantFPv
                0x00043f98                yoshiCollision__13daShyGuyGiantFP13ActivePhysicsP13ActivePhysics
                0x00043fdc                collisionCatD_Drill__13daShyGuyGiantFP13ActivePhysicsP13ActivePhysics
                0x00044014                collisionCat7_GroundPound__13daShyGuyGiantFP13ActivePhysicsP13ActivePhysics
                0x0004404c                collisionCat7_GroundPoundYoshi__13daShyGuyGiantFP13ActivePhysicsP13ActivePhysics
                0x00044084                collisionCat9_RollingObject__13daShyGuyGiantFP13ActivePhysicsP13ActivePhysics
                0x000440c4                collisionCatA_PenguinMario__13daShyGuyGiantFP13ActivePhysicsP13ActivePhysics
                0x00044124                collisionCat5_Mario__13daShyGuyGiantFP13ActivePhysicsP13ActivePhysics
                0x0004412c                collisionCat11_PipeCannon__13daShyGuyGiantFP13ActivePhysicsP13ActivePhysics
                0x00044134                collisionCat13_Hammer__13daShyGuyGiantFP13ActivePhysicsP13ActivePhysics
                0x0004413c                collisionCat3_StarPower__13daShyGuyGiantFP13ActivePhysicsP13ActivePhysics
                0x00044144                collisionCat14_YoshiFire__13daShyGuyGiantFP13ActivePhysicsP13ActivePhysics
                0x0004417c                collisionCat1_Fireball_E_Explosion__13daShyGuyGiantFP13ActivePhysicsP13ActivePhysics
                0x000441b4                collisionCat2_IceBall_15_YoshiIce__13daShyGuyGiantFP13ActivePhysicsP13ActivePhysics
                0x000441ec                _vf148__13daShyGuyGiantFv
                0x00044238                _vf14C__13daShyGuyGiantFv
                0x00044284                CreateIceActors__13daShyGuyGiantFv
                0x00044450                addScoreWhenHit__13daShyGuyGiantFPv
                0x00044454                spawnHitEffectAtPosition__13daShyGuyGiantF7Point2d
                0x00044458                doSomethingWithHardHitAndSoftHitEffects__13daShyGuyGiantF7Point3d
                0x0004445c                playEnemyDownSound2__13daShyGuyGiantFv
                0x00044460                playHpdpSound1__13daShyGuyGiantFv
                0x00044464                playEnemyDownSound1__13daShyGuyGiantFv
                0x00044468                playEnemyDownComboSound__13daShyGuyGiantFPv
                0x0004446c                playHpdpSound2__13daShyGuyGiantFv
                0x00044470                _vf260__13daShyGuyGiantFPv
                0x00044474                _vf264__13daShyGuyGiantFP13dStageActor_c
                0x00044478                _vf268__13daShyGuyGiantFPv
                0x0004447c                powBlockActivated__13daShyGuyGiantFb
                0x00044480                calculateTileCollisions__13daShyGuyGiantFv
                0x000446d8                bindAnimChr_and_setUpdateRate__13daShyGuyGiantFPCciff
                0x0004477c                onCreate__13daShyGuyGiantFv
                0x00044f20                onDelete__13daShyGuyGiantFv
                0x00044f28                onExecute__13daShyGuyGiantFv
                0x00044f70                onDraw__13daShyGuyGiantFv
                0x00044fac                updateModelMatrices__13daShyGuyGiantFv
                0x00045088                beginState_RealWalk__13daShyGuyGiantFv
                0x00045108                executeState_RealWalk__13daShyGuyGiantFv
                0x0004519c                endState_RealWalk__13daShyGuyGiantFv
                0x000451a0                beginState_RealTurn__13daShyGuyGiantFv
                0x000451bc                executeState_RealTurn__13daShyGuyGiantFv
                0x00045288                endState_RealTurn__13daShyGuyGiantFv
                0x0004528c                beginState_Die__13daShyGuyGiantFv
                0x0004531c                executeState_Die__13daShyGuyGiantFv
                0x000453fc                endState_Die__13daShyGuyGiantFv
                0x00045400                build__7dMeteorFv
                0x000454bc                playerCollision__7dMeteorFP13ActivePhysicsP13ActivePhysics
                0x000454f4                MeteorPhysicsCallback__FP7dMeteorP5dEn_c
                0x00045694                collisionCat7_GroundPound__7dMeteorFP13ActivePhysicsP13ActivePhysics
                0x000456d0                onCreate__7dMeteorFv
                0x000459c4                onDelete__7dMeteorFv
                0x000459cc                onExecute__7dMeteorFv
                0x00045b0c                onDraw__7dMeteorFv
                0x00045b60                updateModelMatrices__7dMeteorFv
                0x00045c04                kill__7dMeteorFv
                0x00045c80                build__14daElectricLineFv
                0x00045cf8                onCreate__14daElectricLineFv
                0x00045e18                onDelete__14daElectricLineFv
                0x00045e20                onExecute__14daElectricLineFv
                0x00045e5c                onDraw__14daElectricLineFv
                0x00045e64                beginState_Activate__14daElectricLineFv
                0x00045eb0                executeState_Activate__14daElectricLineFv
                0x00045f28                endState_Activate__14daElectricLineFv
                0x00045f2c                beginState_Deactivate__14daElectricLineFv
                0x00045f8c                executeState_Deactivate__14daElectricLineFv
                0x00045fe8                endState_Deactivate__14daElectricLineFv
                0x00046024                beginState_Die__14daElectricLineFv
                0x00046068                executeState_Die__14daElectricLineFv
                0x0004606c                endState_Die__14daElectricLineFv
                0x00046070                build__13dThunderCloudFv
                0x0004618c                powBlockActivated__13dThunderCloudFb
                0x00046190                playerCollision__13dThunderCloudFP13ActivePhysicsP13ActivePhysics
                0x00046254                yoshiCollision__13dThunderCloudFP13ActivePhysicsP13ActivePhysics
                0x00046298                collisionCatD_Drill__13dThunderCloudFP13ActivePhysicsP13ActivePhysics
                0x000462e0                collisionCat7_GroundPound__13dThunderCloudFP13ActivePhysicsP13ActivePhysics
                0x00046328                collisionCat7_GroundPoundYoshi__13dThunderCloudFP13ActivePhysicsP13ActivePhysics
                0x00046370                collisionCatA_PenguinMario__13dThunderCloudFP13ActivePhysicsP13ActivePhysics
                0x000463b8                collisionCat5_Mario__13dThunderCloudFP13ActivePhysicsP13ActivePhysics
                0x00046400                collisionCat11_PipeCannon__13dThunderCloudFP13ActivePhysicsP13ActivePhysics
                0x00046448                collisionCat1_Fireball_E_Explosion__13dThunderCloudFP13ActivePhysicsP13ActivePhysics
                0x00046480                collisionCat14_YoshiFire__13dThunderCloudFP13ActivePhysicsP13ActivePhysics
                0x000464b8                collisionCat13_Hammer__13dThunderCloudFP13ActivePhysicsP13ActivePhysics
                0x0004652c                collisionCat9_RollingObject__13dThunderCloudFP13ActivePhysicsP13ActivePhysics
                0x00046574                collisionCat3_StarPower__13dThunderCloudFP13ActivePhysicsP13ActivePhysics
                0x000465f8                _vf148__13dThunderCloudFv
                0x00046644                _vf14C__13dThunderCloudFv
                0x00046690                CreateIceActors__13dThunderCloudFv
                0x000467dc                dieFall_Begin__13dThunderCloudFv
                0x0004681c                dieFall_Execute__13dThunderCloudFv
                0x00046a4c                bindAnimChr_and_setUpdateRate__13dThunderCloudFPCciff
                0x00046af0                onCreate__13dThunderCloudFv
                0x00046df8                onDelete__13dThunderCloudFv
                0x00046e00                onExecute__13dThunderCloudFv
                0x00046f80                onDraw__13dThunderCloudFv
                0x00046fbc                updateModelMatrices__13dThunderCloudFv
                0x00047060                beginState_Follow__13dThunderCloudFv
                0x000470d8                executeState_Follow__13dThunderCloudFv
                0x000472f0                endState_Follow__13dThunderCloudFv
                0x00047300                beginState_Wait__13dThunderCloudFv
                0x00047378                executeState_Wait__13dThunderCloudFv
                0x000474d0                endState_Wait__13dThunderCloudFv
                0x00047534                lightningStrike__13dThunderCloudFv
                0x00047614                beginState_Lightning__13dThunderCloudFv
                0x000477d0                executeState_Lightning__13dThunderCloudFv
                0x00047d28                endState_Lightning__13dThunderCloudFv
                0x00047d34                build__12dMakeYourOwnFv
                0x00047dfc                setupAnim__12dMakeYourOwnFPCcf
                0x00047ed8                setupModel__12dMakeYourOwnFPCcPCcPCc
                0x00047f74                onCreate__12dMakeYourOwnFv
                0x00048d8c                onDelete__12dMakeYourOwnFv
                0x00048d94                onExecute__12dMakeYourOwnFv
                0x00048e00                onDraw__12dMakeYourOwnFv
                0x00048ef4                playerCollision__14dChallengeStarFP13ActivePhysicsP13ActivePhysics
                0x00049014                yoshiCollision__14dChallengeStarFP13ActivePhysicsP13ActivePhysics
                0x00049058                collisionCat3_StarPower__14dChallengeStarFP13ActivePhysicsP13ActivePhysics
                0x000490a0                collisionCat9_RollingObject__14dChallengeStarFP13ActivePhysicsP13ActivePhysics
                0x000490e8                collisionCat7_GroundPound__14dChallengeStarFP13ActivePhysicsP13ActivePhysics
                0x00049130                collisionCat7_GroundPoundYoshi__14dChallengeStarFP13ActivePhysicsP13ActivePhysics
                0x00049178                collisionCatA_PenguinMario__14dChallengeStarFP13ActivePhysicsP13ActivePhysics
                0x000491c0                build__14dChallengeStarFv
                0x00049264                onCreate__14dChallengeStarFv
                0x000494ac                onDelete__14dChallengeStarFv
                0x000494b4                onDraw__14dChallengeStarFv
                0x000494f0                updateModelMatrices__14dChallengeStarFv
                0x00049594                onExecute__14dChallengeStarFv
                0x00049644                BonusMusicPlayer__Fi
                0x000496e0                build__10dSongPrizeFv
                0x0004977c                onCreate__10dSongPrizeFv
                0x00049974                onDelete__10dSongPrizeFv
                0x0004997c                onExecute__10dSongPrizeFv
                0x000499b8                beforeDraw__10dSongPrizeFv
                0x000499c0                onDraw__10dSongPrizeFv
                0x00049af0                beginState_Wait__10dSongPrizeFv
                0x00049af4                executeState_Wait__10dSongPrizeFv
                0x00049af8                endState_Wait__10dSongPrizeFv
                0x00049afc                beginState_Shrink__10dSongPrizeFv
                0x00049d6c                executeState_Shrink__10dSongPrizeFv
                0x00049ef0                endState_Shrink__10dSongPrizeFv
                0x00049ef4                beginState_Spin__10dSongPrizeFv
                0x00049f88                executeState_Spin__10dSongPrizeFv
                0x0004a0d8                endState_Spin__10dSongPrizeFv
                0x0004a0dc                build__10dSingAlongFv
                0x0004a22c                onCreate__10dSingAlongFv
                0x0004a5d0                onExecute__10dSingAlongFv
                0x0004a60c                onDraw__10dSingAlongFv
                0x0004a614                onDelete__10dSingAlongFv
                0x0004a628                RegisterNote__10dSingAlongFi
                0x0004a734                beginState_Intro__10dSingAlongFv
                0x0004a738                endState_Intro__10dSingAlongFv
                0x0004a73c                executeState_Intro__10dSingAlongFv
                0x0004a780                beginState_Prize__10dSingAlongFv
                0x0004a78c                executeState_Prize__10dSingAlongFv
                0x0004aa4c                endState_Prize__10dSingAlongFv
                0x0004aa50                beginState_Call__10dSingAlongFv
                0x0004aa64                executeState_Call__10dSingAlongFv
                0x0004aec8                endState_Call__10dSingAlongFv
                0x0004aee8                beginState_Response__10dSingAlongFv
                0x0004af04                executeState_Response__10dSingAlongFv
                0x0004af94                endState_Response__10dSingAlongFv
                0x0004af98                beginState_Mistake__10dSingAlongFv
                0x0004b010                executeState_Mistake__10dSingAlongFv
                0x0004b288                endState_Mistake__10dSingAlongFv
                0x0004b2ec                beginState_Failure__10dSingAlongFv
                0x0004b320                executeState_Failure__10dSingAlongFv
                0x0004b6f0                endState_Failure__10dSingAlongFv
                0x0004b6f4                beginState_Win__10dSingAlongFv
                0x0004b728                executeState_Win__10dSingAlongFv
                0x0004bc30                endState_Win__10dSingAlongFv
                0x0004bc34                addPowerups__10dSingAlongFv
                0x0004bd84                build__10dSongBlockFv
                0x0004be70                onCreate__10dSongBlockFv
                0x0004c278                onDelete__10dSongBlockFv
                0x0004c2a8                onExecute__10dSongBlockFv
                0x0004c3a4                beforeDraw__10dSongBlockFv
                0x0004c3e8                onDraw__10dSongBlockFv
                0x0004c590                blockWasHit__10dSongBlockFb
                0x0004c888                calledWhenUpMoveExecutes__10dSongBlockFv
                0x0004c8d0                calledWhenDownMoveExecutes__10dSongBlockFv
                0x0004c918                glow__10dSongBlockFv
                0x0004c934                unglow__10dSongBlockFv
                0x0004c9f4                beginState_Wait__10dSongBlockFv
                0x0004c9f8                endState_Wait__10dSongBlockFv
                0x0004c9fc                executeState_Wait__10dSongBlockFv
                0x0004cab4                build__10dGoombaPieFv
                0x0004cb3c                pieCollisionCallback__FP13ActivePhysicsP13ActivePhysics
                0x0004cb94                playerCollision__10dGoombaPieFP13ActivePhysicsP13ActivePhysics
                0x0004ccf0                spriteCollision__10dGoombaPieFP13ActivePhysicsP13ActivePhysics
                0x0004ccf4                yoshiCollision__10dGoombaPieFP13ActivePhysicsP13ActivePhysics
                0x0004cd38                collisionCatD_Drill__10dGoombaPieFP13ActivePhysicsP13ActivePhysics
                0x0004cd78                collisionCat7_GroundPound__10dGoombaPieFP13ActivePhysicsP13ActivePhysics
                0x0004cdb8                collisionCat7_GroundPoundYoshi__10dGoombaPieFP13ActivePhysicsP13ActivePhysics
                0x0004cdf8                collisionCat9_RollingObject__10dGoombaPieFP13ActivePhysicsP13ActivePhysics
                0x0004ce38                collisionCat3_StarPower__10dGoombaPieFP13ActivePhysicsP13ActivePhysics
                0x0004ce78                collisionCat13_Hammer__10dGoombaPieFP13ActivePhysicsP13ActivePhysics
                0x0004ceb8                collisionCatA_PenguinMario__10dGoombaPieFP13ActivePhysicsP13ActivePhysics
                0x0004cef8                collisionCat14_YoshiFire__10dGoombaPieFP13ActivePhysicsP13ActivePhysics
                0x0004cf38                collisionCat1_Fireball_E_Explosion__10dGoombaPieFP13ActivePhysicsP13ActivePhysics
                0x0004cf78                _vf148__10dGoombaPieFv
                0x0004cfc4                _vf14C__10dGoombaPieFv
                0x0004d010                CreateIceActors__10dGoombaPieFv
                0x0004d114                addScoreWhenHit__10dGoombaPieFPv
                0x0004d118                onCreate__10dGoombaPieFv
                0x0004d364                onDelete__10dGoombaPieFv
                0x0004d36c                onExecute__10dGoombaPieFv
                0x0004d3f4                onDraw__10dGoombaPieFv
                0x0004d514                beginState_Follow__10dGoombaPieFv
                0x0004d518                executeState_Follow__10dGoombaPieFv
                0x0004d51c                endState_Follow__10dGoombaPieFv
                0x0004d520                beginState_Burst__10dGoombaPieFv
                0x0004d5cc                executeState_Burst__10dGoombaPieFv
                0x0004d5fc                endState_Burst__10dGoombaPieFv
                0x0004d600                GetRegionAndVersion__Fv
                0x0004d6ac                GetErrorDescription__FUs
                0x0004d6fc                PrintContext__FUsPvUiUi
                0x0004d808                translateActorID__F6Actors
                0x0004d86c                adjustID__F6Actors
                0x0004d898                getNsmbwVer__Fv
                0x0004d9a8                __dt__10dGoombaPieFv
                0x0004da34                __dt__10dSingAlongFv
                0x0004db10                __dt__10dSongBlockFv
                0x0004dbcc                __dt__10dSongPrizeFv
                0x0004dc58                __dt__14dChallengeStarFv
                0x0004dce4                __dt__12dMakeYourOwnFv
                0x0004dd70                __dt__13dThunderCloudFv
                0x0004de2c                __dt__14daElectricLineFv
                0x0004de98                __dt__7dMeteorFv
                0x0004df34                __dt__13daShyGuyGiantFv
                0x0004dfd0                __dt__8daShyGuyFv
                0x0004e0e4                __dt__14daFakeStarCoinFv
                0x0004e160                __dt__11EffectVideoFv
                0x0004e1bc                __dt__9dBombDropFv
                0x0004e218                __dt__12dDroppedBombFv
                0x0004e294                __dt__13daKoopaBreathFv
                0x0004e300                __dt__12daKoopaThrowFv
                0x0004e3a8                __dt__15daCaptainBowserFv
                0x0004e550                __dt__11daClownShotFv
                0x0004e5dc                __dt__9daDreidelFv
                0x0004e680                __dt__10daPodoubleFv
                0x0004e764                __dt__11daSamurshaiFv
                0x0004e838                __dt__8daWrenchFv
                0x0004e8b4                __dt__10daBalboa_cFv
                0x0004e978                __dt__10daRamboo_cFv
                0x0004ea6c                __dt__15daEnMegaDosun_cFv
                0x0004eb10                __dt__13daFuzzyBear_cFv
                0x0004ebb4                __dt__14daMegaGoomba_cFv
                0x0004ec70                __dt__8daTopmanFv
                0x0004ecfc                __dt__18SpriteSpawnerTimedFv
                0x0004ed58                __dt__16dSpriteSpawner_cFv
                0x0004edb4                __dt__14daEnMsgBlock_cFv
                0x0004ee20                __dt__16daEnEventBlock_cFv
                0x0004ee8c                __dt__13dPalaceDude_cFv
                0x0004eee8                __dt__16dMsgBoxManager_cFv
                0x0004efd4                __dt__13daFireLaser_cFv
                0x0004f030                __dt__9daMrSun_cFv
                0x0004f0bc                __dt__8dWMMap_cFv
                0x0004f1e8                __dt__12daWMPlayer_cFv
                0x0004f28c                __dt__14dWorldCamera_cFv
                0x0004f2f8                __dt__14dScKoopatlas_cFv
                0x0004f3f4                __dt__8dWMHud_cFv
                0x0004f480                __dt__13dWMStarCoin_cFv
                0x0004f55c                __dt__9dWMShop_cFv
                0x0004f668                __dt__13daBonePiece_cFv
                0x0004f70c                __dt__19daEnMagicPlatform_cFv
                0x0004f7a0                __dt__15daEnFlipBlock_cFv
                0x0004f81c                __dt__14daEnChestnut_cFv
                0x0004f8a8                __dt__12dEndingMgr_cFv
                0x0004f91c                __dt__13dCreditsMgr_cFv
                0x0004f9b8                __dt__13APDebugDrawerFv
                0x0004fa3c                isOutOfView__13dCreditsMgr_cFv
                0x0004fa44                afterExecute__10dSingAlongFi
                0x0005add4                __dt__22dState_c<10dGoombaPie>Fv
                0x0005ae30                __dt__22dState_c<10dSongBlock>Fv
                0x0005ae8c                __dt__22dState_c<10dSingAlong>Fv
                0x0005aee8                __dt__22dState_c<10dSongPrize>Fv
                0x0005af44                __dt__25dState_c<13dThunderCloud>Fv
                0x0005afa0                __dt__26dState_c<14daElectricLine>Fv
                0x0005affc                __dt__25dState_c<13daShyGuyGiant>Fv
                0x0005b058                __dt__19dState_c<8daShyGuy>Fv
                0x0005b0b4                __dt__24dState_c<12daKoopaThrow>Fv
                0x0005b110                __dt__27dState_c<15daCaptainBowser>Fv
                0x0005b16c                __dt__20dState_c<9daDreidel>Fv
                0x0005b1c8                __dt__22dState_c<10daPodouble>Fv
                0x0005b224                __dt__23dState_c<11daSamurshai>Fv
                0x0005b280                __dt__19dState_c<8daWrench>Fv
                0x0005b2dc                __dt__22dState_c<10daBalboa_c>Fv
                0x0005b338                __dt__22dState_c<10daRamboo_c>Fv
                0x0005b394                __dt__27dState_c<15daEnMegaDosun_c>Fv
                0x0005b3f0                __dt__25dState_c<13daFuzzyBear_c>Fv
                0x0005b44c                __dt__26dState_c<14daMegaGoomba_c>Fv
                0x0005b4a8                __dt__19dState_c<8daTopman>Fv
                0x0005b504                __dt__26dState_c<14daEnMsgBlock_c>Fv
                0x0005b560                __dt__28dState_c<16dMsgBoxManager_c>Fv
                0x0005b5bc                __dt__28dState_c<16daEnEventBlock_c>Fv
                0x0005b618                __dt__25dState_c<13daFireLaser_c>Fv
                0x0005b674                __dt__20dState_c<9daMrSun_c>Fv
                0x0005b6d0                __dt__Q34nw4r3snd15StrmSoundHandleFv
                0x0005b730                __dt__25dState_c<13dWMStarCoin_c>Fv
                0x0005b78c                __dt__20dState_c<9dWMShop_c>Fv
                0x0005b7e8                __dt__26dState_c<14dScKoopatlas_c>Fv
                0x0005b844                __dt__27dState_c<15daEnFlipBlock_c>Fv
                0x0005b8a0                __dt__26dState_c<14daEnChestnut_c>Fv
                0x0005b8fc                __dt__24dState_c<12dEndingMgr_c>Fv
 .text          0x0005b958       0x60 tmp\fasthack.o
                0x0005b958                sqrtf__Ff
 .text          0x0005b9b8     0x1228 tmp\fasthack.o
                0x0005b9b8                __dt__Q34nw4r3snd11SoundHandleFv
                0x0005ba0c                executeNextStateThisTick__36dStateWrapperBase_c<13dActorState_c>Fv
                0x0005ba44                setState__36dStateWrapperBase_c<13dActorState_c>FP12dStateBase_c
                0x0005ba84                getCurrentState__33dStateWrapperBase_c<10daPlBase_c>Fv
                0x0005babc                __ct__Q34nw4r3snd11SoundHandleFv
                0x0005bac8                __dt__33dStateWrapper_c<14dScKoopatlas_c>Fv
                0x0005bb74                __dt__37dStateWrapperBase_c<14dScKoopatlas_c>Fv
                0x0005bc28                setState__37dStateWrapperBase_c<14dScKoopatlas_c>FP12dStateBase_c
                0x0005bc68                getCurrentState__37dStateWrapperBase_c<14dScKoopatlas_c>Fv
                0x0005bca0                execute__37dStateWrapperBase_c<14dScKoopatlas_c>Fv
                0x0005bcd8                __dt__27dStateWrapper_c<9dWMShop_c>Fv
                0x0005bd84                __dt__31dStateWrapperBase_c<9dWMShop_c>Fv
                0x0005be38                execute__31dStateWrapperBase_c<9dWMShop_c>Fv
                0x0005be70                setState__31dStateWrapperBase_c<9dWMShop_c>FP12dStateBase_c
                0x0005beb0                __dt__32dStateWrapper_c<13dWMStarCoin_c>Fv
                0x0005bf5c                __dt__36dStateWrapperBase_c<13dWMStarCoin_c>Fv
                0x0005c010                setState__36dStateWrapperBase_c<13dWMStarCoin_c>FP12dStateBase_c
                0x0005c050                getCurrentState__36dStateWrapperBase_c<13dWMStarCoin_c>Fv
                0x0005c088                execute__36dStateWrapperBase_c<13dWMStarCoin_c>Fv
                0x0005c0c0                __dt__35dStateWrapper_c<16dMsgBoxManager_c>Fv
                0x0005c16c                __dt__39dStateWrapperBase_c<16dMsgBoxManager_c>Fv
                0x0005c220                execute__39dStateWrapperBase_c<16dMsgBoxManager_c>Fv
                0x0005c258                setState__39dStateWrapperBase_c<16dMsgBoxManager_c>FP12dStateBase_c
                0x0005c298                __dt__29dStateWrapper_c<10dSingAlong>Fv
                0x0005c344                __dt__33dStateWrapperBase_c<10dSingAlong>Fv
                0x0005c3f8                setState__33dStateWrapperBase_c<10dSingAlong>FP12dStateBase_c
                0x0005c438                execute__33dStateWrapperBase_c<10dSingAlong>Fv
                0x0005c470                getPreviousState__31dStateWrapperBase_c<9dWMShop_c>Fv
                0x0005c4a8                getCurrentState__31dStateWrapperBase_c<9dWMShop_c>Fv
                0x0005c4e0                getNextState__31dStateWrapperBase_c<9dWMShop_c>Fv
                0x0005c518                getCurrentStateMethodExecutor__31dStateWrapperBase_c<9dWMShop_c>Fv
                0x0005c550                executeNextStateThisTick__31dStateWrapperBase_c<9dWMShop_c>Fv
                0x0005c588                endCurrentState__31dStateWrapperBase_c<9dWMShop_c>Fv
                0x0005c5c0                ensureStateHasBegun__31dStateWrapperBase_c<9dWMShop_c>Fv
                0x0005c5f8                getPreviousState__36dStateWrapperBase_c<13dWMStarCoin_c>Fv
                0x0005c630                getNextState__36dStateWrapperBase_c<13dWMStarCoin_c>Fv
                0x0005c668                getCurrentStateMethodExecutor__36dStateWrapperBase_c<13dWMStarCoin_c>Fv
                0x0005c6a0                executeNextStateThisTick__36dStateWrapperBase_c<13dWMStarCoin_c>Fv
                0x0005c6d8                endCurrentState__36dStateWrapperBase_c<13dWMStarCoin_c>Fv
                0x0005c710                ensureStateHasBegun__36dStateWrapperBase_c<13dWMStarCoin_c>Fv
                0x0005c748                getPreviousState__37dStateWrapperBase_c<14dScKoopatlas_c>Fv
                0x0005c780                getNextState__37dStateWrapperBase_c<14dScKoopatlas_c>Fv
                0x0005c7b8                getCurrentStateMethodExecutor__37dStateWrapperBase_c<14dScKoopatlas_c>Fv
                0x0005c7f0                executeNextStateThisTick__37dStateWrapperBase_c<14dScKoopatlas_c>Fv
                0x0005c828                endCurrentState__37dStateWrapperBase_c<14dScKoopatlas_c>Fv
                0x0005c860                ensureStateHasBegun__37dStateWrapperBase_c<14dScKoopatlas_c>Fv
                0x0005c898                getPreviousState__39dStateWrapperBase_c<16dMsgBoxManager_c>Fv
                0x0005c8d0                getCurrentState__39dStateWrapperBase_c<16dMsgBoxManager_c>Fv
                0x0005c908                getNextState__39dStateWrapperBase_c<16dMsgBoxManager_c>Fv
                0x0005c940                getCurrentStateMethodExecutor__39dStateWrapperBase_c<16dMsgBoxManager_c>Fv
                0x0005c978                executeNextStateThisTick__39dStateWrapperBase_c<16dMsgBoxManager_c>Fv
                0x0005c9b0                endCurrentState__39dStateWrapperBase_c<16dMsgBoxManager_c>Fv
                0x0005c9e8                ensureStateHasBegun__39dStateWrapperBase_c<16dMsgBoxManager_c>Fv
                0x0005ca20                getPreviousState__33dStateWrapperBase_c<10dSingAlong>Fv
                0x0005ca58                getCurrentState__33dStateWrapperBase_c<10dSingAlong>Fv
                0x0005ca90                getNextState__33dStateWrapperBase_c<10dSingAlong>Fv
                0x0005cac8                getCurrentStateMethodExecutor__33dStateWrapperBase_c<10dSingAlong>Fv
                0x0005cb00                executeNextStateThisTick__33dStateWrapperBase_c<10dSingAlong>Fv
                0x0005cb38                endCurrentState__33dStateWrapperBase_c<10dSingAlong>Fv
                0x0005cb70                ensureStateHasBegun__33dStateWrapperBase_c<10dSingAlong>Fv
                0x0005cba8                beginSomething__12daBossDemo_cFv
                0x0005cbac                endSomething__12daBossDemo_cFv
                0x0005cbb0                getIdOfOtherActor__12daBossDemo_cFv
                0x0005cbb8                setIdOfOtherActor__12daBossDemo_cFi
                0x0005cbc0                vf128__12daBossDemo_cFv
                0x0005cbc8                justReturnField3D4_decidesIfEndBattle__12daBossDemo_cFv
                0x0005cbd0                vf130__12daBossDemo_cFv
                0x0005cbd8                getActorPointerForSomething__12daBossDemo_cFv
 .text          0x0005cbe0      0xafc tmp\fasthack.o
                0x0005cbe0                executeNextStateThisTick__15dStateMgrBase_cFv
                0x0005cbec                getCurrentState__15dStateMgrBase_cFv
                0x0005cbf4                __dt__11dStateMgr_cFv
                0x0005cc50                __dt__34dStateExecutor_c<14dScKoopatlas_c>Fv
                0x0005ccbc                __dt__40dStateMethodExecutor_c<14dScKoopatlas_c>Fv
                0x0005cd0c                __dt__26dStateMethodExecutorBase_cFv
                0x0005cd58                __dt__20dStateExecutorBase_cFv
                0x0005cda4                __dt__17dStatePointless_cFv
                0x0005cdf0                __dt__28dStateExecutor_c<9dWMShop_c>Fv
                0x0005ce5c                __dt__34dStateMethodExecutor_c<9dWMShop_c>Fv
                0x0005ceac                __dt__33dStateExecutor_c<13dWMStarCoin_c>Fv
                0x0005cf18                __dt__39dStateMethodExecutor_c<13dWMStarCoin_c>Fv
                0x0005cf68                __dt__36dStateExecutor_c<16dMsgBoxManager_c>Fv
                0x0005cfd4                __dt__42dStateMethodExecutor_c<16dMsgBoxManager_c>Fv
                0x0005d024                __dt__30dStateExecutor_c<10dSingAlong>Fv
                0x0005d090                __dt__36dStateMethodExecutor_c<10dSingAlong>Fv
                0x0005d0e0                callEnd__34dStateMethodExecutor_c<9dWMShop_c>Fv
                0x0005d120                callExecute__34dStateMethodExecutor_c<9dWMShop_c>Fv
                0x0005d160                callBegin__34dStateMethodExecutor_c<9dWMShop_c>Fv
                0x0005d1a0                callEnd__39dStateMethodExecutor_c<13dWMStarCoin_c>Fv
                0x0005d1e0                callExecute__39dStateMethodExecutor_c<13dWMStarCoin_c>Fv
                0x0005d220                callBegin__39dStateMethodExecutor_c<13dWMStarCoin_c>Fv
                0x0005d260                callEnd__40dStateMethodExecutor_c<14dScKoopatlas_c>Fv
                0x0005d2a0                callExecute__40dStateMethodExecutor_c<14dScKoopatlas_c>Fv
                0x0005d2e0                callBegin__40dStateMethodExecutor_c<14dScKoopatlas_c>Fv
                0x0005d320                callEnd__42dStateMethodExecutor_c<16dMsgBoxManager_c>Fv
                0x0005d360                callExecute__42dStateMethodExecutor_c<16dMsgBoxManager_c>Fv
                0x0005d3a0                callBegin__42dStateMethodExecutor_c<16dMsgBoxManager_c>Fv
                0x0005d3e0                callEnd__36dStateMethodExecutor_c<10dSingAlong>Fv
                0x0005d420                callExecute__36dStateMethodExecutor_c<10dSingAlong>Fv
                0x0005d460                callBegin__36dStateMethodExecutor_c<10dSingAlong>Fv
                0x0005d4a0                clearMethodExecutor__28dStateExecutor_c<9dWMShop_c>FPP26dStateMethodExecutorBase_c
                0x0005d4ac                getMethodExecutorForState__28dStateExecutor_c<9dWMShop_c>FP12dStateBase_c
                0x0005d50c                clearMethodExecutor__33dStateExecutor_c<13dWMStarCoin_c>FPP26dStateMethodExecutorBase_c
                0x0005d518                getMethodExecutorForState__33dStateExecutor_c<13dWMStarCoin_c>FP12dStateBase_c
                0x0005d578                clearMethodExecutor__34dStateExecutor_c<14dScKoopatlas_c>FPP26dStateMethodExecutorBase_c
                0x0005d584                getMethodExecutorForState__34dStateExecutor_c<14dScKoopatlas_c>FP12dStateBase_c
                0x0005d5e4                clearMethodExecutor__36dStateExecutor_c<16dMsgBoxManager_c>FPP26dStateMethodExecutorBase_c
                0x0005d5f0                getMethodExecutorForState__36dStateExecutor_c<16dMsgBoxManager_c>FP12dStateBase_c
                0x0005d650                clearMethodExecutor__30dStateExecutor_c<10dSingAlong>FPP26dStateMethodExecutorBase_c
                0x0005d65c                getMethodExecutorForState__30dStateExecutor_c<10dSingAlong>FP12dStateBase_c
                0x0005d6bc                getPreviousState__15dStateMgrBase_cFv
                0x0005d6c4                getNextState__15dStateMgrBase_cFv
                0x0005d6cc                getCurrentStateMethodExecutor__15dStateMgrBase_cFv
                0x0005d6d4                returnsOne__17dStatePointless_cFv
 .text          0x0005d6dc        0x8 tmp\fasthack.o
 .text          0x0005d6e4       0x20 tmp\fasthack.o
                0x0005d6e4                beforeExecute__16dMsgBoxManager_cFv
                0x0005d6ec                afterExecute__16dMsgBoxManager_cFi
                0x0005d6f4                beforeDraw__16dMsgBoxManager_cFv
                0x0005d6fc                afterDraw__16dMsgBoxManager_cFi
                0x0005d704                        __ctor_loc = .
 *(.ctors)
 .ctors         0x0005d704        0x4 tmp\10.o
 .ctors         0x0005d708        0x4 tmp\fasthack.o
                0x0005d70c                        __ctor_end = .
 *(.dtors)
 *(.rodata)
 *fill*         0x0005d70c        0x4 00000000
 .rodata        0x0005d710     0x2164 tmp\fasthack.o
                0x0005e1f0                Inventory__9dWMShop_c
 *(.data)
 .data          0x0005f874       0x6c tmp\1.o
 .data          0x0005f8e0       0xec tmp\2.o
 .data          0x0005f9cc        0x4 tmp\4.o
                0x0005f9cc                enableHardMode
 .data          0x0005f9d0        0xc tmp\6.o
                0x0005f9d0                CameraLockEnabled
                0x0005f9d1                isLockPlayerRotation
                0x0005f9d2                lockedPlayerRotation
                0x0005f9d4                CameraLockPosition
 .data          0x0005f9dc      0x1ac tmp\10.o
                0x0005f9e7                FSDummyBrlanName
                0x0005fa09                FSDummyGroup
                0x0005fa14                FSDummyPane
                0x0005fa1e                A00_window
                0x0005fa29                ShowEraseCopy
                0x0005fa4f                HideEraseCopy
                0x0005fa75                N_posFile1_00
                0x0005fa83                CDHolderGroup
                0x0005fad8                Out_Stuff
 .data          0x0005fb88       0x6a tmp\15.o
                0x0005fb90                BGScaleFront
                0x0005fb98                BGScaleBack
                0x0005fba0                BGScaleEnabled
                0x0005fbec                Rrun
 *fill*         0x0005fbf2        0x2 00000000
 .data          0x0005fbf4       0x4c tmp\23.o
 .data          0x0005fc40       0x10 tmp\36.o
                0x0005fc40                T_x_00
                0x0005fc47                P_bat_00
 .data          0x0005fc50      0x228 tmp\45.o
                0x0005fc7c                TexFilenameBuffer
                0x0005fc8c                TexFormatString
                0x0005fc9c                TEX_FlakeArcs
 .data          0x0005fe78      0x63c tmp\46.o
                0x00060054                BrosArcFileName
                0x0006005c                I_hammerResFile
                0x00060073                I_hammerModelName
                0x00060080                g3d_I_kinoko_brres
                0x00060093                I_propeller_model
                0x000600a5                SI_kinoko
                0x000600af                SI_hammer
                0x000600b9                I_hammerArcFilename
 .data          0x000604b4       0x6d tmp\48.o
 *fill*         0x00060521        0x3 00000000
 .data          0x00060524        0xc tmp\52.o
 .data          0x00060530        0x4 tmp\60.o
                0x00060530                MessageBoxIsShowing
 .data          0x00060534      0x36c tmp\62.o
 .data          0x000608a0       0xe0 tmp\63.o
                0x000608a0                GlobalSpriteSize
                0x000608a4                GlobalSpriteSpeed
                0x000608a8                GlobalRiderSize
                0x000608ac                GlobalStarsCollected
                0x000608b0                SizerOn
                0x000608b4                ZOrderOn
 .data          0x00060980        0xc tmp\67.o
 .data          0x0006098c        0xc tmp\68.o
 .data          0x00060998        0x4 tmp\80.o
 *fill*         0x0006099c        0x4 00000000
 .data          0x000609a0    0x11c23 tmp\fasthack.o
                0x000609b0                CreditsFileList
                0x00060e28                ChestnutFileList
                0x00060ef8                FlipBlockFileList
                0x00061254                SongNameList
                0x00061340                Hijackers
                0x00061490                lastLevelIDs
                0x000617b8                initFunctions
                0x0006228c                MaybeFinishingLevel
                0x00062290                LastLevelPlayed
                0x00063ed0                MSarcNameList
                0x00063fd0                PalaceDudeFileList
                0x000640c0                TMarcNameList
                0x000641a8                MGarcNameList
                0x000644b0                SSarcNameList
                0x00064858                PCCarcNameList
                0x00064920                CBarcNameList
                0x00064afc                KPTarcNameList
                0x00064b30                BridgeBowserHP
                0x00064b78                BDarcNameList
                0x00064cec                SGarcNameList
                0x00064e48                SGGarcNameList
                0x00064e88                MEarcNameList
                0x00064ef0                TLCarcNameList
                0x00065720                Tempo
                0x00065760                Songs
                0x00068780                Prizes
                0x000688e0                Notes
                0x00068960                SAarcNameList
                0x00068a38                GParcNameList
                0x00068cd0                __vt__10dGoombaPie
                0x00068f50                __vt__10dSingAlong
                0x00069028                __vt__29dStateWrapper_c<10dSingAlong>
                0x00069058                __vt__33dStateWrapperBase_c<10dSingAlong>
                0x00069088                __vt__30dStateExecutor_c<10dSingAlong>
                0x000690a0                __vt__36dStateMethodExecutor_c<10dSingAlong>
                0x000690b8                __vt__10dSongBlock
                0x000693a8                __vt__10dSongPrize
                0x00069628                __vt__14dChallengeStar
                0x000698a8                __vt__12dMakeYourOwn
                0x00069980                __vt__13dThunderCloud
                0x00069c00                __vt__14daElectricLine
                0x00069e80                __vt__7dMeteor
                0x0006a100                __vt__13daShyGuyGiant
                0x0006a380                __vt__8daShyGuy
                0x0006a600                __vt__14daFakeStarCoin
                0x0006a880                __vt__11EffectVideo
                0x0006ab00                __vt__9dBombDrop
                0x0006abd8                __vt__12dDroppedBomb
                0x0006ae58                __vt__13daKoopaBreath
                0x0006b0d8                __vt__12daKoopaThrow
                0x0006b358                __vt__15daCaptainBowser
                0x0006b5d8                __vt__11daClownShot
                0x0006b858                __vt__9daDreidel
                0x0006bad8                __vt__10daPodouble
                0x0006bd58                __vt__11daSamurshai
                0x0006bfd8                __vt__8daWrench
                0x0006c258                __vt__10daBalboa_c
                0x0006c4d8                __vt__10daRamboo_c
                0x0006c758                __vt__15daEnMegaDosun_c
                0x0006c9d8                __vt__13daFuzzyBear_c
                0x0006cc58                __vt__14daMegaGoomba_c
                0x0006ced8                __vt__8daTopman
                0x0006d158                __vt__18SpriteSpawnerTimed
                0x0006d22c                __vt__16dSpriteSpawner_c
                0x0006d300                __vt__14daEnMsgBlock_c
                0x0006d5ec                __vt__16daEnEventBlock_c
                0x0006d8d8                __vt__13dPalaceDude_c
                0x0006d9ac                __vt__16dMsgBoxManager_c
                0x0006da80                __vt__35dStateWrapper_c<16dMsgBoxManager_c>
                0x0006dab0                __vt__39dStateWrapperBase_c<16dMsgBoxManager_c>
                0x0006dae0                __vt__36dStateExecutor_c<16dMsgBoxManager_c>
                0x0006daf8                __vt__42dStateMethodExecutor_c<16dMsgBoxManager_c>
                0x0006db10                __vt__13daFireLaser_c
                0x0006dd90                __vt__9daMrSun_c
                0x0006e010                __vt__8dWMMap_c
                0x0006e060                __vt__Q28dWMMap_c10renderer_c
                0x0006e080                __vt__12daWMPlayer_c
                0x0006e0e0                __vt__14dWorldCamera_c
                0x0006e130                __vt__14dScKoopatlas_c
                0x0006e180                __vt__33dStateWrapper_c<14dScKoopatlas_c>
                0x0006e1b0                __vt__37dStateWrapperBase_c<14dScKoopatlas_c>
                0x0006e1e0                __vt__34dStateExecutor_c<14dScKoopatlas_c>
                0x0006e1f8                __vt__40dStateMethodExecutor_c<14dScKoopatlas_c>
                0x0006e210                __vt__8dWMHud_c
                0x0006e260                __vt__13dWMStarCoin_c
                0x0006e2c0                __vt__32dStateWrapper_c<13dWMStarCoin_c>
                0x0006e2f0                __vt__36dStateWrapperBase_c<13dWMStarCoin_c>
                0x0006e320                __vt__33dStateExecutor_c<13dWMStarCoin_c>
                0x0006e338                __vt__39dStateMethodExecutor_c<13dWMStarCoin_c>
                0x0006e350                __vt__9dWMShop_c
                0x0006e3b0                __vt__27dStateWrapper_c<9dWMShop_c>
                0x0006e3e0                __vt__31dStateWrapperBase_c<9dWMShop_c>
                0x0006e410                __vt__28dStateExecutor_c<9dWMShop_c>
                0x0006e428                __vt__34dStateMethodExecutor_c<9dWMShop_c>
                0x0006e440                __vt__6daBoss
                0x0006e6c0                __vt__13daBonePiece_c
                0x0006e798                __vt__13dScCutScene_c
                0x0006e7e8                __vt__19daEnMagicPlatform_c
                0x0006ea68                __vt__15daEnFlipBlock_c
                0x0006ed58                __vt__14daEnChestnut_c
                0x0006efd8                __vt__12dEndingMgr_c
                0x0006f120                __vt__13dCreditsMgr_c
                0x0006f200                __vt__19dFlipbookRenderer_c
                0x0006f220                __vt__13APDebugDrawer
                0x0006f240                __vt__20dStateExecutorBase_c
                0x0006f258                __vt__26dStateMethodExecutorBase_c
                0x0006f270                __vt__17dStatePointless_c
                0x0006f280                __vt__Q23m3d6proc_c
                0x00071f44                __vt__22dState_c<10dGoombaPie>
                0x00071f78                __vt__22dState_c<10dSongBlock>
                0x00071fac                __vt__22dState_c<10dSingAlong>
                0x00071fe0                __vt__22dState_c<10dSongPrize>
                0x00072014                __vt__25dState_c<13dThunderCloud>
                0x00072048                __vt__26dState_c<14daElectricLine>
                0x0007207c                __vt__25dState_c<13daShyGuyGiant>
                0x000720b0                __vt__19dState_c<8daShyGuy>
                0x000720e4                __vt__24dState_c<12daKoopaThrow>
                0x00072118                __vt__27dState_c<15daCaptainBowser>
                0x0007214c                __vt__20dState_c<9daDreidel>
                0x00072180                __vt__22dState_c<10daPodouble>
                0x000721b4                __vt__23dState_c<11daSamurshai>
                0x000721e8                __vt__19dState_c<8daWrench>
                0x0007221c                __vt__22dState_c<10daBalboa_c>
                0x00072250                __vt__22dState_c<10daRamboo_c>
                0x00072284                __vt__27dState_c<15daEnMegaDosun_c>
                0x000722b8                __vt__25dState_c<13daFuzzyBear_c>
                0x000722ec                __vt__26dState_c<14daMegaGoomba_c>
                0x00072320                __vt__19dState_c<8daTopman>
                0x00072354                __vt__26dState_c<14daEnMsgBlock_c>
                0x00072388                __vt__28dState_c<16daEnEventBlock_c>
                0x000723bc                __vt__28dState_c<16dMsgBoxManager_c>
                0x000723f0                __vt__25dState_c<13daFireLaser_c>
                0x00072424                __vt__20dState_c<9daMrSun_c>
                0x00072458                __vt__25dState_c<13dWMStarCoin_c>
                0x0007248c                __vt__20dState_c<9dWMShop_c>
                0x000724c0                __vt__26dState_c<14dScKoopatlas_c>
                0x000724f4                __vt__27dState_c<15daEnFlipBlock_c>
                0x00072528                __vt__26dState_c<14daEnChestnut_c>
                0x0007255c                __vt__24dState_c<12dEndingMgr_c>
                0x00072590                @STRING@canUseExit__16dWMPathManager_cFP9dKPPath_s@0
                0x000725a4                @STRING@canUseExit__16dWMPathManager_cFP9dKPPath_s
 *(.bss)
 *fill*         0x000725c3        0x5 00000000
 .bss           0x000725c8     0x2ec4 tmp\fasthack.o
                0x00072610                efbTexture
                0x00072628                getNextEFB
                0x0007262c                thing
                0x00072630                instance__13dCreditsMgr_c
                0x00072640                StateID_DemoSt__12dEndingMgr_c
                0x00072680                StateID_GoRight__12dEndingMgr_c
                0x000726c0                StateID_LookUp__12dEndingMgr_c
                0x00072700                StateID_JumpOntoSwitch__12dEndingMgr_c
                0x00072740                StateID_ThanksPeach__12dEndingMgr_c
                0x00072780                StateID_Idle__14daEnChestnut_c
                0x000727c0                StateID_Shake__14daEnChestnut_c
                0x00072800                StateID_Fall__14daEnChestnut_c
                0x00072840                StateID_Explode__14daEnChestnut_c
                0x00072880                StateID_Wait__15daEnFlipBlock_c
                0x000728c0                StateID_Flipping__15daEnFlipBlock_c
                0x000728f4                instance__13dScCutScene_c
                0x00072904                s_levelInfoLoader
                0x00072918                s_levelInfoLoaded
                0x0007291c                s_info__12dLevelInfo_c
                0x00072920                instance__14dScKoopatlas_c
                0x00072930                StateID_Limbo__14dScKoopatlas_c
                0x00072970                StateID_ContinueWait__14dScKoopatlas_c
                0x000729b0                StateID_Normal__14dScKoopatlas_c
                0x000729f0                StateID_CompletionMsg__14dScKoopatlas_c
                0x00072a30                StateID_CompletionMsgHideWait__14dScKoopatlas_c
                0x00072a70                StateID_CSMenu__14dScKoopatlas_c
                0x00072ab0                StateID_TitleConfirmOpenWait__14dScKoopatlas_c
                0x00072af0                StateID_TitleConfirmSelect__14dScKoopatlas_c
                0x00072b30                StateID_TitleConfirmHitWait__14dScKoopatlas_c
                0x00072b70                StateID_PlayerChangeWait__14dScKoopatlas_c
                0x00072bb0                StateID_EasyPairingWait__14dScKoopatlas_c
                0x00072bf0                StateID_PowerupsWait__14dScKoopatlas_c
                0x00072c30                StateID_ShopWait__14dScKoopatlas_c
                0x00072c70                StateID_CoinsWait__14dScKoopatlas_c
                0x00072cb0                StateID_SaveOpen__14dScKoopatlas_c
                0x00072cf0                StateID_SaveSelect__14dScKoopatlas_c
                0x00072d30                StateID_SaveWindowClose__14dScKoopatlas_c
                0x00072d70                StateID_SaveDo__14dScKoopatlas_c
                0x00072db0                StateID_SaveEndWindow__14dScKoopatlas_c
                0x00072df0                StateID_SaveEndCloseWait__14dScKoopatlas_c
                0x00072e30                StateID_SaveError__14dScKoopatlas_c
                0x00072e64                instance__12daWMPlayer_c
                0x00072e68                instance__8dWMHud_c
                0x00072e6c                instance__14dWorldCamera_c
                0x00072e70                instance__8dWMMap_c
                0x00072e74                CanFinishCoins
                0x00072e75                CanFinishExits
                0x00072e76                CanFinishWorld
                0x00072e77                CanFinishAlmostAllCoins
                0x00072e78                CanFinishAllCoins
                0x00072e79                CanFinishAllExits
                0x00072e7a                CanFinishEverything
                0x00072e90                StateID_Hidden__9dWMShop_c
                0x00072ed0                StateID_ShowWait__9dWMShop_c
                0x00072f10                StateID_ButtonActivateWait__9dWMShop_c
                0x00072f50                StateID_CoinCountdown__9dWMShop_c
                0x00072f90                StateID_Wait__9dWMShop_c
                0x00072fd0                StateID_HideWait__9dWMShop_c
                0x00073004                instance__9dWMShop_c
                0x00073008                instance__13dWMStarCoin_c
                0x00073018                StateID_Hidden__13dWMStarCoin_c
                0x00073058                StateID_ShowWait__13dWMStarCoin_c
                0x00073098                StateID_ShowSectionWait__13dWMStarCoin_c
                0x000730d8                StateID_Wait__13dWMStarCoin_c
                0x00073118                StateID_HideSectionWait__13dWMStarCoin_c
                0x00073158                StateID_HideWait__13dWMStarCoin_c
                0x000731f8                fh
                0x00073200                KeyCounter
                0x00073204                NoMichaelBuble
                0x00073214                StateID_Follow__9daMrSun_c
                0x00073254                StateID_Swoop__9daMrSun_c
                0x00073294                StateID_Spiral__9daMrSun_c
                0x000732d4                StateID_Spit__9daMrSun_c
                0x00073314                StateID_Spin__9daMrSun_c
                0x00073354                StateID_Wait__9daMrSun_c
                0x00073394                StateID_pewpewpew__13daFireLaser_c
                0x000733c8                instance__14RandomTileData
                0x000733d8                RandTileLoader
                0x000733f8                StateID_Wait__16daEnEventBlock_c
                0x0007342c                instance__16dMsgBoxManager_c
                0x0007343c                StateID_LoadRes__16dMsgBoxManager_c
                0x0007347c                StateID_Wait__16dMsgBoxManager_c
                0x000734bc                StateID_BoxAppearWait__16dMsgBoxManager_c
                0x000734fc                StateID_ShownWait__16dMsgBoxManager_c
                0x0007353c                StateID_BoxDisappearWait__16dMsgBoxManager_c
                0x0007357c                StateID_Wait__14daEnMsgBlock_c
                0x000735bc                StateID_Walk__8daTopman
                0x000735fc                StateID_Turn__8daTopman
                0x0007363c                StateID_Wait__8daTopman
                0x0007367c                StateID_KnockBack__8daTopman
                0x000736bc                StateID_Die__8daTopman
                0x000736f0                my_struct
                0x00073774                StateID_Shrink__14daMegaGoomba_c
                0x000737b4                StateID_Walk__14daMegaGoomba_c
                0x000737f4                StateID_Turn__14daMegaGoomba_c
                0x00073834                StateID_Grow__13daFuzzyBear_c
                0x00073874                StateID_Bounce__13daFuzzyBear_c
                0x000738b4                StateID_RolyPoly__13daFuzzyBear_c
                0x000738f4                StateID_Wait__13daFuzzyBear_c
                0x00073934                StateID_Outro__13daFuzzyBear_c
                0x00073974                StateID_UpWait__15daEnMegaDosun_c
                0x000739b4                StateID_DownMoveWait__15daEnMegaDosun_c
                0x000739f4                StateID_PuruMove__15daEnMegaDosun_c
                0x00073a34                StateID_DownMove__15daEnMegaDosun_c
                0x00073a74                StateID_DownWait__15daEnMegaDosun_c
                0x00073ab4                StateID_UpMove__15daEnMegaDosun_c
                0x00073af4                StateID_Grow__15daEnMegaDosun_c
                0x00073b34                StateID_Outro__15daEnMegaDosun_c
                0x00073b74                StateID_Grow__10daRamboo_c
                0x00073bb4                StateID_Advance__10daRamboo_c
                0x00073bf4                StateID_Wait__10daRamboo_c
                0x00073c34                StateID_Flee__10daRamboo_c
                0x00073c74                StateID_Outro__10daRamboo_c
                0x00073cb4                StateID_Grow__10daBalboa_c
                0x00073cf4                StateID_ManholeUp__10daBalboa_c
                0x00073d34                StateID_HeadPoke__10daBalboa_c
                0x00073d74                StateID_AllOut__10daBalboa_c
                0x00073db4                StateID_ThrowWrench__10daBalboa_c
                0x00073df4                StateID_BackDown__10daBalboa_c
                0x00073e34                StateID_Outro__10daBalboa_c
                0x00073e74                StateID_Damage__10daBalboa_c
                0x00073eb4                StateID_RevengeUp__10daBalboa_c
                0x00073ef4                StateID_Revenge__10daBalboa_c
                0x00073f34                StateID_Straight__8daWrench
                0x00073f74                StateID_Kaboom__8daWrench
                0x00073ff4                StateID_Intro__11daSamurshai
                0x00074034                StateID_Walk__11daSamurshai
                0x00074074                StateID_Turn__11daSamurshai
                0x000740b4                StateID_Chop__11daSamurshai
                0x000740f4                StateID_ChargeSlash__11daSamurshai
                0x00074134                StateID_Uppercut__11daSamurshai
                0x00074174                StateID_SpinAttack__11daSamurshai
                0x000741b4                StateID_Damage__11daSamurshai
                0x000741f4                StateID_Outro__11daSamurshai
                0x00074274                StateID_Bounce__10daPodouble
                0x000742b4                StateID_Spit__10daPodouble
                0x000742f4                StateID_Damage__10daPodouble
                0x00074334                StateID_Grow__10daPodouble
                0x00074374                StateID_Outro__10daPodouble
                0x000743b4                StateID_SyncDie__10daPodouble
                0x000743f4                StateID_Walk__9daDreidel
                0x00074434                StateID_Turn__9daDreidel
                0x00074474                StateID_KnockBack__9daDreidel
                0x000744b4                StateID_ChargePrep__9daDreidel
                0x000744f4                StateID_Charge__9daDreidel
                0x00074534                StateID_ChargeRecover__9daDreidel
                0x00074574                StateID_Damage__9daDreidel
                0x000745b4                StateID_Grow__9daDreidel
                0x000745f4                StateID_Outro__9daDreidel
                0x000746b4                StateID_Wait__15daCaptainBowser
                0x000746f4                StateID_Throw__15daCaptainBowser
                0x00074734                StateID_Fire__15daCaptainBowser
                0x00074774                StateID_Roar__15daCaptainBowser
                0x000747b4                StateID_Damage__15daCaptainBowser
                0x000747f4                StateID_Intro__15daCaptainBowser
                0x00074834                StateID_FinalAttack__15daCaptainBowser
                0x00074874                StateID_Outro__15daCaptainBowser
                0x000748b4                StateID_PanToExit__15daCaptainBowser
                0x000748f4                StateID_Straight__12daKoopaThrow
                0x00074968                lastBomb
                0x000749a8                HackyBombDropVariable
                0x000749b8                StateID_Walk__8daShyGuy
                0x000749f8                StateID_Turn__8daShyGuy
                0x00074a38                StateID_RealWalk__8daShyGuy
                0x00074a78                StateID_RealTurn__8daShyGuy
                0x00074ab8                StateID_Jump__8daShyGuy
                0x00074af8                StateID_Sleep__8daShyGuy
                0x00074b38                StateID_Balloon_H__8daShyGuy
                0x00074b78                StateID_Balloon_V__8daShyGuy
                0x00074bb8                StateID_Balloon_C__8daShyGuy
                0x00074bf8                StateID_Judo__8daShyGuy
                0x00074c38                StateID_Spike__8daShyGuy
                0x00074c78                StateID_GoDizzy__8daShyGuy
                0x00074cb8                StateID_BalloonDrop__8daShyGuy
                0x00074cf8                StateID_FireKnockBack__8daShyGuy
                0x00074d38                StateID_FlameHit__8daShyGuy
                0x00074d78                StateID_Recover__8daShyGuy
                0x00074db8                StateID_Die__8daShyGuy
                0x00074e34                StateID_RealWalk__13daShyGuyGiant
                0x00074e74                StateID_RealTurn__13daShyGuyGiant
                0x00074eb4                StateID_Die__13daShyGuyGiant
                0x00074f84                StateID_Activate__14daElectricLine
                0x00074fc4                StateID_Deactivate__14daElectricLine
                0x00075004                StateID_Die__14daElectricLine
                0x00075044                StateID_Follow__13dThunderCloud
                0x00075084                StateID_Lightning__13dThunderCloud
                0x000750c4                StateID_Wait__13dThunderCloud
                0x00075114                StateID_Wait__10dSongPrize
                0x00075154                StateID_Shrink__10dSongPrize
                0x00075194                StateID_Spin__10dSongPrize
                0x000751c8                instance__10dSingAlong
                0x000751d8                StateID_Intro__10dSingAlong
                0x00075218                StateID_Prize__10dSingAlong
                0x00075258                StateID_Call__10dSingAlong
                0x00075298                StateID_Response__10dSingAlong
                0x000752d8                StateID_Mistake__10dSingAlong
                0x00075318                StateID_Failure__10dSingAlong
                0x00075358                StateID_Win__10dSingAlong
                0x00075398                StateID_Wait__10dSongBlock
                0x000753d8                StateID_Follow__10dGoombaPie
                0x00075418                StateID_Burst__10dGoombaPie
                0x0007544c                goombIceBlock
                0x00075488                srr0
 *(.fini)
 *(.rodata.*)
                0x0007548c                        __text_end = .
LOAD tmp\1.o
LOAD tmp\2.o
LOAD tmp\4.o
LOAD tmp\6.o
LOAD tmp\10.o
LOAD tmp\15.o
LOAD tmp\17.o
LOAD tmp\18.o
LOAD tmp\20.o
LOAD tmp\23.o
LOAD tmp\36.o
LOAD tmp\40.o
LOAD tmp\45.o
LOAD tmp\46.o
LOAD tmp\48.o
LOAD tmp\49.o
LOAD tmp\52.o
LOAD tmp\55.o
LOAD tmp\57.o
LOAD tmp\60.o
LOAD tmp\62.o
LOAD tmp\63.o
LOAD tmp\67.o
LOAD tmp\68.o
LOAD tmp\80.o
LOAD tmp\fasthack.o
OUTPUT(NewerASM/n_kor_object.plf elf32-powerpc)

.mwcats.text    0x00000000     0x31c4
 .mwcats.text   0x00000000        0x8 tmp\fasthack.o
 .mwcats.text   0x00000008     0x2e0c tmp\fasthack.o
 .mwcats.text   0x00002e14      0x220 tmp\fasthack.o
 .mwcats.text   0x00003034      0x168 tmp\fasthack.o
 .mwcats.text   0x0000319c        0x8 tmp\fasthack.o
 .mwcats.text   0x000031a4       0x20 tmp\fasthack.o

.comment        0x00000000    0x1bd54
 .comment       0x00000000    0x1bd54 tmp\fasthack.o

.line           0x00000000    0x2304e
 .line          0x00000000    0x2304e tmp\fasthack.o
                0x00000008                .line.APDebugDraw__Fv
                0x0000003a                .line.__ct__13APDebugDrawerFv
                0x00000058                .line.__dt__Q23m3d6proc_cFv
                0x00000058                .line.setMeUp__13APDebugDrawerFv
                0x00000080                .line.drawMe__13APDebugDrawerFv
                0x000000bc                .line.drawOpa__13APDebugDrawerFv
                0x000000da                .line.drawXlu__13APDebugDrawerFv
                0x00000742                .line.build__13dCreditsMgr_cFv
                0x0000076a                .line.onCreate__13dCreditsMgr_cFv
                0x0000080a                .line.onDelete__13dCreditsMgr_cFv
                0x00000846                .line.onExecute__13dCreditsMgr_cFv
                0x00000cd8                .line.onDraw__13dCreditsMgr_cFv
                0x00000d1e                .line.loadLayout__13dCreditsMgr_cFv
                0x00000daa                .line.loadTitleLayout__13dCreditsMgr_cFv
                0x00000e68                .line.doAutoscroll__13dCreditsMgr_cFi
                0x00000fb2                .line.animComplete__13dCreditsMgr_cFv
                0x00000fd0                .line.positionPlayers__13dCreditsMgr_cFv
                0x00001106                .line.enableZoom__13dCreditsMgr_cFv
                0x00001192                .line.disableZoom__13dCreditsMgr_cFv
                0x000011ba                .line.playerWinAnim__13dCreditsMgr_cFv
                0x0000128c                .line.playerLookUp__13dCreditsMgr_cFv
                0x000012aa                .line.theEnd__13dCreditsMgr_cFv
                0x000012c8                .line.exitStage__13dCreditsMgr_cFv
                0x00001304                .line._vf70__13dCreditsMgr_cFv
                0x00001340                .line.EFBMagic2__Fv
                0x000013f4                .line.execute__19dFlipbookRenderer_cFv
                0x000015f2                .line.drawXlu__19dFlipbookRenderer_cFv
                0x000018b8                .line.drawOpa__19dFlipbookRenderer_cFv
                0x0000196c                .line.loadNewBG__19dFlipbookRenderer_cFib
                0x00001a52                .line.__ct__19dFlipbookRenderer_cFv
                0x00001a70                .line.__dt__19dFlipbookRenderer_cFv
                0x00001aac                .line.LoadDanceValues__Fv
                0x00001b6a                .line.build__12dEndingMgr_cFv
                0x00001b92                .line.onCreate__12dEndingMgr_cFv
                0x00001b92                .line.__dt__12daBossDemo_cFv
                0x00001bf6                .line.onDelete__12dEndingMgr_cFv
                0x00001c46                .line.init__12dEndingMgr_cFv
                0x00001c78                .line.beginState_DemoSt__12dEndingMgr_cFv
                0x00001c8c                .line.endState_DemoSt__12dEndingMgr_cFv
                0x00001c96                .line.executeState_DemoSt__12dEndingMgr_cFv
                0x00001d04                .line.beginState_GoRight__12dEndingMgr_cFv
                0x00001dcc                .line.endState_GoRight__12dEndingMgr_cFv
                0x00001dd6                .line.executeState_GoRight__12dEndingMgr_cFv
                0x00001e4e                .line.beginState_LookUp__12dEndingMgr_cFv
                0x00001e76                .line.endState_LookUp__12dEndingMgr_cFv
                0x00001e80                .line.executeState_LookUp__12dEndingMgr_cFv
                0x00001ec6                .line.beginState_JumpOntoSwitch__12dEndingMgr_cFv
                0x00001f16                .line.endState_JumpOntoSwitch__12dEndingMgr_cFv
                0x00001f20                .line.executeState_JumpOntoSwitch__12dEndingMgr_cFv
                0x00001fb6                .line.beginState_ThanksPeach__12dEndingMgr_cFv
                0x00001fde                .line.endState_ThanksPeach__12dEndingMgr_cFv
                0x00001fe8                .line.executeState_ThanksPeach__12dEndingMgr_cFv
                0x00002218                .line._vf70__12dEndingMgr_cFv
                0x00002254                .line.build__14daEnChestnut_cFv
                0x0000227c                .line.onCreate__14daEnChestnut_cFv
                0x000023f8                .line.playAnimation__14daEnChestnut_cFPCcb
                0x0000242a                .line.onDelete__14daEnChestnut_cFv
                0x00002452                .line.onExecute__14daEnChestnut_cFv
                0x000024ac                .line.onDraw__14daEnChestnut_cFv
                0x000024d4                .line.nearestPlayerDistance__14daEnChestnut_cFv
                0x00002538                .line.beginState_Idle__14daEnChestnut_cFv
                0x00002556                .line.endState_Idle__14daEnChestnut_cFv
                0x00002560                .line.executeState_Idle__14daEnChestnut_cFv
                0x000025b0                .line.beginState_Shake__14daEnChestnut_cFv
                0x000025ec                .line.endState_Shake__14daEnChestnut_cFv
                0x000025f6                .line.executeState_Shake__14daEnChestnut_cFv
                0x0000263c                .line.beginState_Fall__14daEnChestnut_cFv
                0x000026dc                .line.endState_Fall__14daEnChestnut_cFv
                0x000026e6                .line.executeState_Fall__14daEnChestnut_cFv
                0x0000272c                .line.beginState_Explode__14daEnChestnut_cFv
                0x0000277c                .line.endState_Explode__14daEnChestnut_cFv
                0x00002786                .line.executeState_Explode__14daEnChestnut_cFv
                0x000027e0                .line.CreateIceActors__14daEnChestnut_cFv
                0x00002844                .line.canBePowed__14daEnChestnut_cFv
                0x00002858                .line.powBlockActivated__14daEnChestnut_cFb
                0x00002894                .line.collisionCat1_Fireball_E_Explosion__14daEnChestnut_cFP13ActivePhysicsP13ActivePhysics
                0x000028d0                .line.collisionCat5_Mario__14daEnChestnut_cFP13ActivePhysicsP13ActivePhysics
                0x000028f8                .line.spawnObject__14daEnChestnut_cFv
                0x000029a2                .line.onCreate__15daEnFlipBlock_cFv
                0x00002a88                .line.onDelete__15daEnFlipBlock_cFv
                0x00002ab0                .line.onExecute__15daEnFlipBlock_cFv
                0x00002b00                .line.onDraw__15daEnFlipBlock_cFv
                0x00002b5a                .line.build__15daEnFlipBlock_cFv
                0x00002b8c                .line.blockWasHit__15daEnFlipBlock_cFb
                0x00002bb4                .line.calledWhenUpMoveExecutes__15daEnFlipBlock_cFv
                0x00002bdc                .line.calledWhenDownMoveExecutes__15daEnFlipBlock_cFv
                0x00002c04                .line.beginState_Wait__15daEnFlipBlock_cFv
                0x00002c0e                .line.endState_Wait__15daEnFlipBlock_cFv
                0x00002c18                .line.executeState_Wait__15daEnFlipBlock_cFv
                0x00002c90                .line.beginState_Flipping__15daEnFlipBlock_cFv
                0x00002cb8                .line.executeState_Flipping__15daEnFlipBlock_cFv
                0x00002d1c                .line.endState_Flipping__15daEnFlipBlock_cFv
                0x00002d44                .line.playerOverlaps__15daEnFlipBlock_cFv
                0x00002dee                .line.build__19daEnMagicPlatform_cFv
                0x00002e20                .line.__dt__18StandOnTopColliderFv
                0x00002f92                .line.onCreate__19daEnMagicPlatform_cFv
                0x00003104                .line.onDelete__19daEnMagicPlatform_cFv
                0x00003140                .line.onExecute__19daEnMagicPlatform_cFv
                0x0000319a                .line.setupMovement__19daEnMagicPlatform_cFv
                0x000032c6                .line.handleMovement__19daEnMagicPlatform_cFv
                0x0000342e                .line.findSourceArea__19daEnMagicPlatform_cFv
                0x000034c4                .line.createTiles__19daEnMagicPlatform_cFv
                0x00003564                .line.deleteTiles__19daEnMagicPlatform_cFv
                0x000035a0                .line.updateTilePositions__19daEnMagicPlatform_cFv
                0x0000362c                .line.checkVisibility__19daEnMagicPlatform_cFv
                0x00003686                .line.setVisible__19daEnMagicPlatform_cFb
                0x000036f4                .line.build__13dScCutScene_cFv
                0x00003730                .line.__ct__13dScCutScene_cFv
                0x0000378a                .line.__dt__13dScCutScene_cFv
                0x000037c6                .line.onCreate__13dScCutScene_cFv
                0x00003866                .line.onDelete__13dScCutScene_cFv
                0x000038b6                .line.onExecute__13dScCutScene_cFv
                0x00003e06                .line.onDraw__13dScCutScene_cFv
                0x00003e38                .line.CutSceneDrawFunc__Fv
                0x00003f0a                .line.goToNextScene__13dScCutScene_cFv
                0x00003fb4                .line.ExitStageWrapper
                0x00003fd2                .line.EnterOpeningLevel
                0x0000404a                .line.build__13daBonePiece_cFv
                0x0000407c                .line.onCreate__13daBonePiece_cFv
                0x00004162                .line.onDelete__13daBonePiece_cFv
                0x00004176                .line.onExecute__13daBonePiece_cFv
                0x000041d0                .line.onDraw__13daBonePiece_cFv
                0x000041f8                .line.hijackMusicWithSongName__FPCcibiiPi
                0x000042de                .line.FixFilesize__FUi
                0x00004342                .line.after_course_getMusicForZone
                0x0000437e                .line.WriteAsciiToTextBox__FPQ34nw4r3lyt7TextBoxPCc
                0x000043ce                .line.getNewerLevelNumberString__FiiPw
                0x00004450                .line.getUnspentStarCoinCount__Fv
                0x00004482                .line.getStarCoinCount__Fv
                0x000044f0                .line.GrabExitInfoForFileSelect
                0x000045cc                .line.DamagePlayer__FP5dEn_cP13ActivePhysicsP13ActivePhysics
                0x0000464e                .line.SetupKameck__FP6daBossP12daKameckDemo
                0x000046bc                .line.CleanupKameck__FP6daBossP12daKameckDemo
                0x00004702                .line.GrowBoss__FP6daBossP12daKameckDemofffi
                0x000047d4                .line.OutroSetup__FP6daBoss
                0x0000482e                .line.ShrinkBoss__FP6daBossP7Point3dfi
                0x0000489c                .line.BossExplode__FP6daBossP7Point3d
                0x0000490a                .line.BossGoalForAllPlayers__Fv
                0x00004946                .line.PlayerVictoryCries__FP6daBoss
                0x00004964                .line.LoadFile__FP10FileHandlePCc
                0x000049c8                .line.FreeFile__FP10FileHandle
                0x00004a18                .line.__ct__4FileFv
                0x00004a2c                .line.__dt__4FileFv
                0x00004a4a                .line.open__4FileFPCc
                0x00004a9a                .line.close__4FileFv
                0x00004acc                .line.isOpen__4FileFv
                0x00004ae0                .line.ptr__4FileFv
                0x00004b08                .line.length__4FileFv
                0x00004b30                .line.LoadLevelInfo__Fv
                0x00004b94                .line.load__12dLevelInfo_cFPv
                0x00004c0c                .line.searchBySlot__12dLevelInfo_cFii
                0x00004c66                .line.searchByDisplayNum__12dLevelInfo_cFii
                0x00004cc0                .line.UpdateFSStars__Fv
                0x00004e14                .line.beginState_Limbo__14dScKoopatlas_cFv
                0x00004e1e                .line.endState_Limbo__14dScKoopatlas_cFv
                0x00004e28                .line.beginState_Normal__14dScKoopatlas_cFv
                0x00004e32                .line.endState_Normal__14dScKoopatlas_cFv
                0x00004e3c                .line.beginState_CompletionMsgHideWait__14dScKoopatlas_cFv
                0x00004e46                .line.endState_CompletionMsgHideWait__14dScKoopatlas_cFv
                0x00004e50                .line.beginState_CSMenu__14dScKoopatlas_cFv
                0x00004e5a                .line.endState_CSMenu__14dScKoopatlas_cFv
                0x00004e64                .line.beginState_TitleConfirmOpenWait__14dScKoopatlas_cFv
                0x00004e6e                .line.endState_TitleConfirmOpenWait__14dScKoopatlas_cFv
                0x00004e78                .line.beginState_TitleConfirmSelect__14dScKoopatlas_cFv
                0x00004e82                .line.endState_TitleConfirmSelect__14dScKoopatlas_cFv
                0x00004e8c                .line.beginState_TitleConfirmHitWait__14dScKoopatlas_cFv
                0x00004e96                .line.endState_TitleConfirmHitWait__14dScKoopatlas_cFv
                0x00004ea0                .line.beginState_PlayerChangeWait__14dScKoopatlas_cFv
                0x00004eaa                .line.endState_PlayerChangeWait__14dScKoopatlas_cFv
                0x00004eb4                .line.beginState_EasyPairingWait__14dScKoopatlas_cFv
                0x00004ebe                .line.endState_EasyPairingWait__14dScKoopatlas_cFv
                0x00004ec8                .line.beginState_PowerupsWait__14dScKoopatlas_cFv
                0x00004ed2                .line.endState_PowerupsWait__14dScKoopatlas_cFv
                0x00004edc                .line.beginState_ShopWait__14dScKoopatlas_cFv
                0x00004ee6                .line.endState_ShopWait__14dScKoopatlas_cFv
                0x00004ef0                .line.beginState_CoinsWait__14dScKoopatlas_cFv
                0x00004efa                .line.endState_CoinsWait__14dScKoopatlas_cFv
                0x00004f04                .line.beginState_SaveOpen__14dScKoopatlas_cFv
                0x00004f0e                .line.endState_SaveOpen__14dScKoopatlas_cFv
                0x00004f18                .line.beginState_SaveSelect__14dScKoopatlas_cFv
                0x00004f22                .line.endState_SaveSelect__14dScKoopatlas_cFv
                0x00004f2c                .line.beginState_SaveWindowClose__14dScKoopatlas_cFv
                0x00004f36                .line.endState_SaveWindowClose__14dScKoopatlas_cFv
                0x00004f40                .line.beginState_SaveDo__14dScKoopatlas_cFv
                0x00004f4a                .line.endState_SaveDo__14dScKoopatlas_cFv
                0x00004f54                .line.beginState_SaveEndWindow__14dScKoopatlas_cFv
                0x00004f5e                .line.endState_SaveEndWindow__14dScKoopatlas_cFv
                0x00004f68                .line.beginState_SaveEndCloseWait__14dScKoopatlas_cFv
                0x00004f72                .line.endState_SaveEndCloseWait__14dScKoopatlas_cFv
                0x00004f7c                .line.beginState_SaveError__14dScKoopatlas_cFv
                0x00004f86                .line.endState_SaveError__14dScKoopatlas_cFv
                0x00004f90                .line.build__14dScKoopatlas_cFv
                0x00004fe0                .line.__ct__14dScKoopatlas_cFv
                0x00005008                .line.WMInit_StartLoading__FPv
                0x00005030                .line.WMInit_LoadStaticFiles__FPv
                0x0000504e                .line.WMInit_LoadSIAnims__FPv
                0x000050e4                .line.WMInit_EndLoading__FPv
                0x00005120                .line.WMInit_LoadResources1__FPv
                0x00005148                .line.WMInit_LoadResources2__FPv
                0x000051d4                .line.WMInit_SetupWait__FPv
                0x00005256                .line.WMInit_SetupExtra__FPv
                0x0000535a                .line.WMInit_SetupWipe__FPv
                0x00005396                .line.startMusic__14dScKoopatlas_cFv
                0x000053b4                .line.onCreate__14dScKoopatlas_cFv
                0x000055f8                .line.onDelete__14dScKoopatlas_cFv
                0x000056f2                .line.canDoStuff__14dScKoopatlas_cFv
                0x0000572e                .line.mapIsRunning__14dScKoopatlas_cFv
                0x0000576a                .line.onExecute__14dScKoopatlas_cFv
                0x000057a6                .line.executeState_Limbo__14dScKoopatlas_cFv
                0x000057b0                .line.beginState_ContinueWait__14dScKoopatlas_cFv
                0x000057e2                .line.executeState_ContinueWait__14dScKoopatlas_cFv
                0x00005846                .line.endState_ContinueWait__14dScKoopatlas_cFv
                0x0000585a                .line.executeState_Normal__14dScKoopatlas_cFv
                0x0000590e                .line.executeState_CSMenu__14dScKoopatlas_cFv
                0x00005a12                .line.executeState_TitleConfirmOpenWait__14dScKoopatlas_cFv
                0x00005a3a                .line.executeState_TitleConfirmSelect__14dScKoopatlas_cFv
                0x00005ae4                .line.executeState_TitleConfirmHitWait__14dScKoopatlas_cFv
                0x00005b3e                .line.executeState_PlayerChangeWait__14dScKoopatlas_cFv
                0x00005c2e                .line.executeState_EasyPairingWait__14dScKoopatlas_cFv
                0x00005cb0                .line.executeState_PowerupsWait__14dScKoopatlas_cFv
                0x00005cf6                .line.executeState_ShopWait__14dScKoopatlas_cFv
                0x00005d28                .line.executeState_CoinsWait__14dScKoopatlas_cFv
                0x00005d5a                .line.executeState_SaveOpen__14dScKoopatlas_cFv
                0x00005d82                .line.executeState_SaveSelect__14dScKoopatlas_cFv
                0x00005e2c                .line.executeState_SaveWindowClose__14dScKoopatlas_cFv
                0x00005e86                .line.executeState_SaveDo__14dScKoopatlas_cFv
                0x00005ee0                .line.executeState_SaveEndWindow__14dScKoopatlas_cFv
                0x00005f1c                .line.executeState_SaveEndCloseWait__14dScKoopatlas_cFv
                0x00005f4e                .line.executeState_SaveError__14dScKoopatlas_cFv
                0x00005f58                .line.startLevel__14dScKoopatlas_cFPQ212dLevelInfo_c7entry_s
                0x00005fda                .line.iterateMapList__14dScKoopatlas_cFPFUiPCcii_UiUiPi
                0x00006156                .line.getMapNameForIndex__14dScKoopatlas_cFi
                0x00006174                .line.getIndexForMapName__14dScKoopatlas_cFPCc
                0x00006192                .line.showSaveWindow__14dScKoopatlas_cFv
                0x000061ce                .line.beginState_CompletionMsg__14dScKoopatlas_cFv
                0x0000620a                .line.endState_CompletionMsg__14dScKoopatlas_cFv
                0x00006228                .line.executeState_CompletionMsg__14dScKoopatlas_cFv
                0x00006336                .line.executeState_CompletionMsgHideWait__14dScKoopatlas_cFv
                0x0000635e                .line.NewerMapDrawFunc__Fv
                0x000064d0                .line.onCreate__12daWMPlayer_cFv
                0x000065f2                .line.onDelete__12daWMPlayer_cFv
                0x0000661a                .line.onExecute__12daWMPlayer_cFv
                0x0000675a                .line.onDraw__12daWMPlayer_cFv
                0x000067b4                .line.startAnimation__12daWMPlayer_cFifff
                0x0000682c                .line.bindPats__12daWMPlayer_cFv
                0x000068a4                .line.build__12daWMPlayer_cFv
                0x000068e0                .line.build__8dWMHud_cFv
                0x000068e0                .line.__ct__Q23m3d11anmTexPat_cFv
                0x0000691c                .line.__ct__8dWMHud_cFv
                0x0000694e                .line.onCreate__8dWMHud_cFv
                0x00006ade                .line.loadInitially__8dWMHud_cFv
                0x00006b2e                .line.onDelete__8dWMHud_cFv
                0x00006b6a                .line.onExecute__8dWMHud_cFv
                0x00006c32                .line.onDraw__8dWMHud_cFv
                0x00006c6e                .line.hideAll__8dWMHud_cFv
                0x00006ca0                .line.unhideAll__8dWMHud_cFv
                0x00006cd2                .line.playShowAnim__8dWMHud_cFi
                0x00006cfa                .line.playHideAnim__8dWMHud_cFi
                0x00006d4a                .line.loadHeaderInfo__8dWMHud_cFv
                0x0000706a                .line.loadFooterInfo__8dWMHud_cFv
                0x000071fa                .line.enteredNode__8dWMHud_cFP9dKPNode_s
                0x00007236                .line.leftNode__8dWMHud_cFv
                0x00007268                .line.hideFooter__8dWMHud_cFv
                0x00007290                .line.showFooter__8dWMHud_cFv
                0x000072cc                .line.setupLives__8dWMHud_cFv
                0x0000739e                .line.updatePressableButtonThingies__8dWMHud_cFv
                0x000073ee                .line.build__14dWorldCamera_cFv
                0x0000742a                .line.__ct__14dWorldCamera_cFv
                0x000074ca                .line.onCreate__14dWorldCamera_cFv
                0x0000756a                .line.onDelete__14dWorldCamera_cFv
                0x0000757e                .line.onExecute__14dWorldCamera_cFv
                0x0000768c                .line.panToBounds__14dWorldCamera_cFffff
                0x000077a4                .line.panToPosition__14dWorldCamera_cFfff
                0x00007858                .line.onDraw__14dWorldCamera_cFv
                0x000078b2                .line.calculateScreenGeometry__14dWorldCamera_cFv
                0x000078ee                .line.doStuff__14dWorldCamera_cFf
                0x00007916                .line.generateCameraMatrices__14dWorldCamera_cFv
                0x00007a1a                .line.updateCameras__14dWorldCamera_cFv
                0x00007a6a                .line.build__8dWMMap_cFv
                0x00007aa6                .line.__ct__8dWMMap_cFv
                0x00007aba                .line.__dt__Q28dWMMap_c10renderer_cFv
                0x00007aba                .line.__ct__Q23mEf3es2Fv
                0x00007aba                .line.__ct__18BGGMEffectRendererFv
                0x00007aba                .line.onCreate__8dWMMap_cFv
                0x00007c22                .line.onDelete__8dWMMap_cFv
                0x00007c2c                .line.onExecute__8dWMMap_cFv
                0x00007cb8                .line.onDraw__8dWMMap_cFv
                0x00007d26                .line.drawOpa__Q28dWMMap_c10renderer_cFv
                0x00007d30                .line.drawXlu__Q28dWMMap_c10renderer_cFv
                0x00007d4e                .line.drawLayers__Q28dWMMap_c10renderer_cFv
                0x00007e48                .line.beginRendering__Q28dWMMap_c10renderer_cFv
                0x00007ff6                .line.renderTileLayer__Q28dWMMap_c10renderer_cFP10dKPLayer_sPA16_A16_Us
                0x00008212                .line.renderDoodadLayer__Q28dWMMap_c10renderer_cFP10dKPLayer_s
                0x0000851e                .line.renderPathLayer__8dWMMap_cFP10dKPLayer_s
                0x000085be                .line.endRendering__Q28dWMMap_c10renderer_cFv
                0x000085c8                .line.loadTexture__Q28dWMMap_c10renderer_cFP10_gx_texobj
                0x000085fa                .line.loadCamera__Q28dWMMap_c10renderer_cFv
                0x00008618                .line.loadCamera__Q28dWMMap_c10renderer_cFPA4_f
                0x00008636                .line.doEffects__8dWMMap_cFv
                0x00008794                .line.spinLaunchStar__8dWMMap_cFv
                0x000087d0                .line.getOppositeExitTo__9dKPNode_sFP9dKPPath_sb
                0x00008820                .line.getExitCount__9dKPNode_sFb
                0x00008866                .line.isUnlocked__9dKPNode_sFv
                0x000088ac                .line.setupNodeExtra__9dKPNode_sFv
                0x00008a6e                .line.setLayerAlpha__9dKPNode_sFUc
                0x00008aa0                .line.setLayerAlpha__9dKPPath_sFUc
                0x00008ad2                .line.findNodeID__10dKPLayer_sFP9dKPNode_s
                0x00008b0e                .line.__ct__12dKPMapData_cFv
                0x00008b54                .line.__dt__12dKPMapData_cFv
                0x00008b90                .line.load__12dKPMapData_cFPCc
                0x00008b90                .line.__dt__14dKPNodeExtra_cFv
                0x00008bf4                .line.loadTilesets__12dKPMapData_cFv
                0x00008c94                .line.unloadTilesets__12dKPMapData_cFv
                0x00008cda                .line.fixup__12dKPMapData_cFv
                0x00008ed8                .line.__ct__14dKPNodeExtra_cFv
                0x00008ed8                .line.findWorldDef__12dKPMapData_cCFi
                0x00008f14                .line.ResetAllCompletionCandidates__Fv
                0x00008f82                .line.getPressedDir__Fi
                0x00008fbe                .line.setup__16dWMPathManager_cFv
                0x00009572                .line.ClearOldPathAvailabilityData__Fv
                0x000095c2                .line.__dt__16dWMPathManager_cFv
                0x0000996e                .line.unlockPaths__16dWMPathManager_cFv
                0x00009c84                .line.finalisePathUnlocks__16dWMPathManager_cFv
                0x00009cc0                .line.evaluateUnlockCondition__16dWMPathManager_cFRPUcP9SaveBlocki
                0x00009e28                .line.doingThings__16dWMPathManager_cFv
                0x00009e64                .line.execute__16dWMPathManager_cFv
                0x0000a51c                .line.startMovementTo__16dWMPathManager_cFP9dKPPath_s
                0x0000a8b4                .line.moveThroughPath__16dWMPathManager_cFi
                0x0000af26                .line.copyWorldDefToSave__16dWMPathManager_cFPC13dKPWorldDef_s
                0x0000afd0                .line.activatePoint__16dWMPathManager_cFv
                0x0000b0e8                .line.unlockAllPaths__16dWMPathManager_cFc
                0x0000b188                .line.findCameraBoundsForUnlockedPaths__16dWMPathManager_cFv
                0x0000b200                .line.visitNodeForCamCheck__16dWMPathManager_cFP9dKPNode_s
                0x0000b2f0                .line.addNodeToCameraBounds__16dWMPathManager_cFP9dKPNode_s
                0x0000b368                .line.setupItem__Q29dWMShop_c11ShopModel_cFffQ29dWMShop_c9ItemTypes
                0x0000b408                .line.setupLakitu__Q29dWMShop_c11ShopModel_cFi
                0x0000b49e                .line.playAnim__Q29dWMShop_c11ShopModel_cFPCcfc
                0x0000b4da                .line.execute__Q29dWMShop_c11ShopModel_cFv
                0x0000b552                .line.draw__Q29dWMShop_c11ShopModel_cFv
                0x0000b5ac                .line.build__9dWMShop_cFv
                0x0000b5e8                .line.__ct__9dWMShop_cFv
                0x0000b610                .line.onCreate__9dWMShop_cFv
                0x0000b82c                .line.onDelete__9dWMShop_cFv
                0x0000b854                .line.onExecute__9dWMShop_cFv
                0x0000b8b8                .line.onDraw__9dWMShop_cFv
                0x0000b8ea                .line.specialDraw1__9dWMShop_cFv
                0x0000b93a                .line.show__9dWMShop_cFi
                0x0000b962                .line.beginState_Hidden__9dWMShop_cFv
                0x0000b96c                .line.executeState_Hidden__9dWMShop_cFv
                0x0000b976                .line.endState_Hidden__9dWMShop_cFv
                0x0000b980                .line.beginState_ShowWait__9dWMShop_cFv
                0x0000b9da                .line.executeState_ShowWait__9dWMShop_cFv
                0x0000ba16                .line.endState_ShowWait__9dWMShop_cFv
                0x0000ba3e                .line.beginState_ButtonActivateWait__9dWMShop_cFv
                0x0000ba48                .line.executeState_ButtonActivateWait__9dWMShop_cFv
                0x0000ba70                .line.endState_ButtonActivateWait__9dWMShop_cFv
                0x0000ba7a                .line.beginState_Wait__9dWMShop_cFv
                0x0000ba98                .line.executeState_Wait__9dWMShop_cFv
                0x0000bc14                .line.endState_Wait__9dWMShop_cFv
                0x0000bc1e                .line.beginState_HideWait__9dWMShop_cFv
                0x0000bc6e                .line.executeState_HideWait__9dWMShop_cFv
                0x0000bcc8                .line.endState_HideWait__9dWMShop_cFv
                0x0000bcf0                .line.loadModels__9dWMShop_cFv
                0x0000bdc2                .line.deleteModels__9dWMShop_cFv
                0x0000bdc2                .line.__ct__Q29dWMShop_c11ShopModel_cFv
                0x0000bdc2                .line.__dt__Q29dWMShop_c11ShopModel_cFv
                0x0000be12                .line.loadInfo__9dWMShop_cFv
                0x0000bee4                .line.buyItem__9dWMShop_cFi
                0x0000c02e                .line.beginState_CoinCountdown__9dWMShop_cFv
                0x0000c042                .line.endState_CoinCountdown__9dWMShop_cFv
                0x0000c04c                .line.executeState_CoinCountdown__9dWMShop_cFv
                0x0000c1b4                .line.showSelectCursor__9dWMShop_cFv
                0x0000c1f0                .line.build__13dWMStarCoin_cFv
                0x0000c22c                .line.__ct__13dWMStarCoin_cFv
                0x0000c25e                .line.onCreate__13dWMStarCoin_cFv
                0x0000c3ee                .line.onDelete__13dWMStarCoin_cFv
                0x0000c40c                .line.show__13dWMStarCoin_cFv
                0x0000c434                .line.onExecute__13dWMStarCoin_cFv
                0x0000c47a                .line.onDraw__13dWMStarCoin_cFv
                0x0000c4ac                .line.showLeftArrow__13dWMStarCoin_cFv
                0x0000c4e8                .line.showRightArrow__13dWMStarCoin_cFv
                0x0000c524                .line.hideLeftArrow__13dWMStarCoin_cFv
                0x0000c560                .line.hideRightArrow__13dWMStarCoin_cFv
                0x0000c59c                .line.setLeftArrowVisible__13dWMStarCoin_cFb
                0x0000c5ce                .line.setRightArrowVisible__13dWMStarCoin_cFb
                0x0000c600                .line.canScrollLeft__13dWMStarCoin_cCFv
                0x0000c614                .line.canScrollRight__13dWMStarCoin_cCFv
                0x0000c628                .line.loadInfo__13dWMStarCoin_cFv
                0x0000c74a                .line.loadSectionInfo__13dWMStarCoin_cFv
                0x0000c9c0                .line.beginState_Hidden__13dWMStarCoin_cFv
                0x0000c9ca                .line.executeState_Hidden__13dWMStarCoin_cFv
                0x0000c9d4                .line.endState_Hidden__13dWMStarCoin_cFv
                0x0000c9de                .line.beginState_ShowWait__13dWMStarCoin_cFv
                0x0000ca42                .line.executeState_ShowWait__13dWMStarCoin_cFv
                0x0000ca6a                .line.endState_ShowWait__13dWMStarCoin_cFv
                0x0000ca74                .line.beginState_ShowSectionWait__13dWMStarCoin_cFv
                0x0000cac4                .line.executeState_ShowSectionWait__13dWMStarCoin_cFv
                0x0000caec                .line.endState_ShowSectionWait__13dWMStarCoin_cFv
                0x0000caf6                .line.showSecretMessage__13dWMStarCoin_cFPCwPPCwiPPCwi
                0x0000cbbe                .line.beginState_Wait__13dWMStarCoin_cFv
                0x0000cbc8                .line.executeState_Wait__13dWMStarCoin_cFv
                0x0000cdda                .line.endState_Wait__13dWMStarCoin_cFv
                0x0000cde4                .line.beginState_HideSectionWait__13dWMStarCoin_cFv
                0x0000ce3e                .line.executeState_HideSectionWait__13dWMStarCoin_cFv
                0x0000ce7a                .line.endState_HideSectionWait__13dWMStarCoin_cFv
                0x0000ce84                .line.beginState_HideWait__13dWMStarCoin_cFv
                0x0000ceac                .line.executeState_HideWait__13dWMStarCoin_cFv
                0x0000ced4                .line.endState_HideWait__13dWMStarCoin_cFv
                0x0000cee8                .line.play__8dKPMusicFi
                0x0000cfc4                .line.loadInfo__8dKPMusicFv
                0x0000cfe2                .line.execute__8dKPMusicFv
                0x0000d1f4                .line.stop__8dKPMusicFv
                0x0000d276                .line.playStarMusic__8dKPMusicFv
                0x0000d2a8                .line.__ct__19dTexMapColouriser_cFv
                0x0000d2d0                .line.__dt__19dTexMapColouriser_cFv
                0x0000d2ee                .line.resetAndClear__19dTexMapColouriser_cFv
                0x0000d32a                .line.setTexMap__19dTexMapColouriser_cFPQ34nw4r3lyt6TexMap
                0x0000d3a2                .line.applyAlso__19dTexMapColouriser_cFPQ34nw4r3lyt6TexMap
                0x0000d3e8                .line.colourise__19dTexMapColouriser_cFiii
                0x0000d56e                .line.LoadPregameStyleNameAndNumber__FPQ23m2d13EmbedLayout_c
                0x0000d690                .line.hijack_loadLevelNumber__17PregameLytHandlerFv
                0x0000d6e0                .line.InsertPauseWindowText
                0x0000d708                .line.DoTiles__FPv
                0x0000d7b2                .line.DestroyTiles__FPv
                0x0000d7d0                .line.CopyAnimTile
                0x0000d83e                .line.endKeyLevel__FP13dStageActor_c
                0x0000d884                .line.startEndKeyLevel__FP13dStageActor_c
                0x0000d8d4                .line.soundsEndKeyLevel__FP13dStageActor_c
                0x0000d938                .line.MarioStateChanger__FPvP12dStateBase_cUi
                0x0000d960                .line.ResetAfterLevel__Fb
                0x0000da14                .line.FuckinBubbles__Fv
                0x0000da96                .line.LevelSpecial_Create__FP12LevelSpecial
                0x0000db04                .line.LevelSpecial_Execute__FP12LevelSpecial
                0x0000db40                .line.LevelSpecial_Update__FP12LevelSpecial
                0x0000de24                .line.build__9daMrSun_cFv
                0x0000de4c                .line.playerCollision__9daMrSun_cFP13ActivePhysicsP13ActivePhysics
                0x0000de56                .line.collisionCat1_Fireball_E_Explosion__9daMrSun_cFP13ActivePhysicsP13ActivePhysics
                0x0000de6a                .line.collisionCat2_IceBall_15_YoshiIce__9daMrSun_cFP13ActivePhysicsP13ActivePhysics
                0x0000de9c                .line.collisionCat9_RollingObject__9daMrSun_cFP13ActivePhysicsP13ActivePhysics
                0x0000ded8                .line.collisionCat13_Hammer__9daMrSun_cFP13ActivePhysicsP13ActivePhysics
                0x0000df14                .line.collisionCat3_StarPower__9daMrSun_cFP13ActivePhysicsP13ActivePhysics
                0x0000df50                .line.collisionCatD_Drill__9daMrSun_cFP13ActivePhysicsP13ActivePhysics
                0x0000df78                .line.collisionCat7_GroundPound__9daMrSun_cFP13ActivePhysicsP13ActivePhysics
                0x0000dfa0                .line.collisionCat7_GroundPoundYoshi__9daMrSun_cFP13ActivePhysicsP13ActivePhysics
                0x0000dfc8                .line.collisionCatA_PenguinMario__9daMrSun_cFP13ActivePhysicsP13ActivePhysics
                0x0000dff0                .line.collisionCat5_Mario__9daMrSun_cFP13ActivePhysicsP13ActivePhysics
                0x0000e018                .line.dieFall_Execute__9daMrSun_cFv
                0x0000e112                .line.onCreate__9daMrSun_cFv
                0x0000e31a                .line.onDelete__9daMrSun_cFv
                0x0000e32e                .line.onExecute__9daMrSun_cFv
                0x0000e39c                .line.onDraw__9daMrSun_cFv
                0x0000e3d8                .line.updateModelMatrices__9daMrSun_cFv
                0x0000e482                .line.beginState_Follow__9daMrSun_cFv
                0x0000e4b4                .line.executeState_Follow__9daMrSun_cFv
                0x0000e57c                .line.endState_Follow__9daMrSun_cFv
                0x0000e590                .line.beginState_Swoop__9daMrSun_cFv
                0x0000e658                .line.executeState_Swoop__9daMrSun_cFv
                0x0000e68a                .line.endState_Swoop__9daMrSun_cFv
                0x0000e69e                .line.beginState_Spiral__9daMrSun_cFv
                0x0000e6da                .line.executeState_Spiral__9daMrSun_cFv
                0x0000e73e                .line.endState_Spiral__9daMrSun_cFv
                0x0000e748                .line.beginState_Spit__9daMrSun_cFv
                0x0000e766                .line.executeState_Spit__9daMrSun_cFv
                0x0000e8e2                .line.endState_Spit__9daMrSun_cFv
                0x0000e8f6                .line.beginState_Spin__9daMrSun_cFv
                0x0000e914                .line.executeState_Spin__9daMrSun_cFv
                0x0000eb76                .line.endState_Spin__9daMrSun_cFv
                0x0000eba8                .line.beginState_Wait__9daMrSun_cFv
                0x0000ec0c                .line.executeState_Wait__9daMrSun_cFv
                0x0000ec84                .line.endState_Wait__9daMrSun_cFv
                0x0000ec98                .line.build__13daFireLaser_cFv
                0x0000ecc0                .line.onCreate__13daFireLaser_cFv
                0x0000ed24                .line.onDelete__13daFireLaser_cFv
                0x0000ed38                .line.onExecute__13daFireLaser_cFv
                0x0000ed60                .line.onDraw__13daFireLaser_cFv
                0x0000ed74                .line.beginState_pewpewpew__13daFireLaser_cFv
                0x0000ed88                .line.executeState_pewpewpew__13daFireLaser_cFv
                0x0000eef0                .line.endState_pewpewpew__13daFireLaser_cFv
                0x0000eefa                .line.ThwompHammer__FP5dEn_cP13ActivePhysicsP13ActivePhysics
                0x0000ef22                .line.BooHammer__FP5dEn_cP13ActivePhysicsP13ActivePhysics
                0x0000ef4a                .line.UrchinHammer__FP5dEn_cP13ActivePhysicsP13ActivePhysics
                0x0000ef54                .line.build__21dHammerSuitRenderer_cFv
                0x0000ef72                .line.__ct__21dHammerSuitRenderer_cFv
                0x0000ef7c                .line.__dt__21dHammerSuitRenderer_cFv
                0x0000ef86                .line.setup__21dHammerSuitRenderer_cFP21dPlayerModelHandler_c
                0x0000efa4                .line.setup__21dHammerSuitRenderer_cFP21dPlayerModelHandler_ci
                0x0000f062                .line.draw__21dHammerSuitRenderer_cFv
                0x0000f0f8                .line.setScalesOfSomeThings__12dStockItem_cFv
                0x0000f2ba                .line.getSection__14RandomTileDataFPCc
                0x0000f300                .line.RandTileLoadHook
                0x0000f350                .line.IdentifyTilesets
                0x0000f38c                .line.TryAndRandomise
                0x0000f4f4                .line.creationHook__13daObjKinoko_cFv
                0x0000f63e                .line.drawHook__13daObjKinoko_cFv
                0x0000f68e                .line.doStuff__15daChengeBlock_cFQ215daChengeBlock_c6Actionb
                0x0000f8f0                .line.LineGod_Create__FP7LineGod
                0x0000f95e                .line.LineGod_Execute__FP7LineGod
                0x0000f986                .line.LineGod_BuildList__FP7LineGod
                0x0000fa44                .line.LineGod_AppendToList__FP7LineGodP7BgActor
                0x0000fa8a                .line.LineGod_Update__FP7LineGod
                0x0000fb84                .line.TilesetFixerHack__FPvPvii
                0x0000fbc0                .line.DoFixes__Fii
                0x0000fc4c                .line.SwapObjData__FPUci
                0x0000fcba                .line.build__13dPalaceDude_cFv
                0x0000fcec                .line.onExecute__13dPalaceDude_cFv
                0x0000fddc                .line.onCreate__16daEnEventBlock_cFv
                0x0000feea                .line.onDelete__16daEnEventBlock_cFv
                0x0000ff26                .line.onExecute__16daEnEventBlock_cFv
                0x0000ffa8                .line.build__16daEnEventBlock_cFv
                0x0000ffda                .line.equaliseEvents__16daEnEventBlock_cFv
                0x00010034                .line.blockWasHit__16daEnEventBlock_cFb
                0x000100de                .line.calledWhenUpMoveExecutes__16daEnEventBlock_cFv
                0x00010106                .line.calledWhenDownMoveExecutes__16daEnEventBlock_cFv
                0x0001012e                .line.beginState_Wait__16daEnEventBlock_cFv
                0x00010138                .line.endState_Wait__16daEnEventBlock_cFv
                0x00010142                .line.executeState_Wait__16daEnEventBlock_cFv
                0x000101ba                .line.build__16dMsgBoxManager_cFv
                0x000101f6                .line.onCreate__16dMsgBoxManager_cFv
                0x0001028c                .line.onExecute__16dMsgBoxManager_cFv
                0x000102c8                .line.onDraw__16dMsgBoxManager_cFv
                0x000102fa                .line.onDelete__16dMsgBoxManager_cFv
                0x0001034a                .line.beginState_LoadRes__16dMsgBoxManager_cFv
                0x00010354                .line.endState_LoadRes__16dMsgBoxManager_cFv
                0x0001035e                .line.executeState_LoadRes__16dMsgBoxManager_cFv
                0x00010386                .line.beginState_Wait__16dMsgBoxManager_cFv
                0x00010390                .line.endState_Wait__16dMsgBoxManager_cFv
                0x0001039a                .line.executeState_Wait__16dMsgBoxManager_cFv
                0x000103a4                .line.showMessage__16dMsgBoxManager_cFibi
                0x00010476                .line.beginState_BoxAppearWait__16dMsgBoxManager_cFv
                0x000104c6                .line.executeState_BoxAppearWait__16dMsgBoxManager_cFv
                0x000104ee                .line.endState_BoxAppearWait__16dMsgBoxManager_cFv
                0x000104f8                .line.beginState_ShownWait__16dMsgBoxManager_cFv
                0x00010502                .line.executeState_ShownWait__16dMsgBoxManager_cFv
                0x00010566                .line.endState_ShownWait__16dMsgBoxManager_cFv
                0x00010570                .line.beginState_BoxDisappearWait__16dMsgBoxManager_cFv
                0x000105a2                .line.executeState_BoxDisappearWait__16dMsgBoxManager_cFv
                0x000105e8                .line.endState_BoxDisappearWait__16dMsgBoxManager_cFv
                0x0001061a                .line.onCreate__14daEnMsgBlock_cFv
                0x00010700                .line.onDelete__14daEnMsgBlock_cFv
                0x0001073c                .line.onExecute__14daEnMsgBlock_cFv
                0x000107a0                .line.build__14daEnMsgBlock_cFv
                0x000107c8                .line.blockWasHit__14daEnMsgBlock_cFb
                0x00010822                .line.calledWhenUpMoveExecutes__14daEnMsgBlock_cFv
                0x0001084a                .line.calledWhenDownMoveExecutes__14daEnMsgBlock_cFv
                0x00010872                .line.beginState_Wait__14daEnMsgBlock_cFv
                0x0001087c                .line.endState_Wait__14daEnMsgBlock_cFv
                0x00010886                .line.executeState_Wait__14daEnMsgBlock_cFv
                0x000108fe                .line.EventLooper_Create__FP11EventLooper
                0x000109c6                .line.EventLooper_Execute__FP11EventLooper
                0x000109ee                .line.EventLooper_Update__FP11EventLooper
                0x00010a8e                .line.build__16dSpriteSpawner_cFv
                0x00010ac0                .line.onCreate__16dSpriteSpawner_cFv
                0x00010b1a                .line.onExecute__16dSpriteSpawner_cFv
                0x00010c00                .line.build__18SpriteSpawnerTimedFv
                0x00010c28                .line.onCreate__18SpriteSpawnerTimedFv
                0x00010c82                .line.onExecute__18SpriteSpawnerTimedFv
                0x00010ce6                .line.build__8daTopmanFv
                0x00010d0e                .line.playerCollision__8daTopmanFP13ActivePhysicsP13ActivePhysics
                0x00010dcc                .line.yoshiCollision__8daTopmanFP13ActivePhysicsP13ActivePhysics
                0x00010dea                .line.collisionCatD_Drill__8daTopmanFP13ActivePhysicsP13ActivePhysics
                0x00010e3a                .line.collisionCat7_GroundPound__8daTopmanFP13ActivePhysicsP13ActivePhysics
                0x00010e62                .line.collisionCat7_GroundPoundYoshi__8daTopmanFP13ActivePhysicsP13ActivePhysics
                0x00010e8a                .line.collisionCat9_RollingObject__8daTopmanFP13ActivePhysicsP13ActivePhysics
                0x00010ebc                .line.collisionCat3_StarPower__8daTopmanFP13ActivePhysicsP13ActivePhysics
                0x00010ee4                .line.collisionCat13_Hammer__8daTopmanFP13ActivePhysicsP13ActivePhysics
                0x00010f0c                .line.collisionCatA_PenguinMario__8daTopmanFP13ActivePhysicsP13ActivePhysics
                0x00010f3e                .line.collisionCat14_YoshiFire__8daTopmanFP13ActivePhysicsP13ActivePhysics
                0x00010f70                .line.collisionCat1_Fireball_E_Explosion__8daTopmanFP13ActivePhysicsP13ActivePhysics
                0x00010fa2                .line._vf148__8daTopmanFv
                0x00010fca                .line._vf14C__8daTopmanFv
                0x00010ff2                .line.CreateIceActors__8daTopmanFv
                0x0001102e                .line.addScoreWhenHit__8daTopmanFPv
                0x00011038                .line.calculateTileCollisions__8daTopmanFv
                0x000111b4                .line.bindAnimChr_and_setUpdateRate__8daTopmanFPCciff
                0x000111f0                .line.onCreate__8daTopmanFv
                0x00011416                .line.onDelete__8daTopmanFv
                0x0001142a                .line.onExecute__8daTopmanFv
                0x00011484                .line.onDraw__8daTopmanFv
                0x000114ac                .line.updateModelMatrices__8daTopmanFv
                0x000114f2                .line.beginState_Walk__8daTopmanFv
                0x00011538                .line.executeState_Walk__8daTopmanFv
                0x000115b0                .line.endState_Walk__8daTopmanFv
                0x000115ba                .line.beginState_Turn__8daTopmanFv
                0x000115d8                .line.executeState_Turn__8daTopmanFv
                0x00011632                .line.endState_Turn__8daTopmanFv
                0x0001163c                .line.beginState_Wait__8daTopmanFv
                0x00011682                .line.executeState_Wait__8daTopmanFv
                0x000116fa                .line.endState_Wait__8daTopmanFv
                0x00011704                .line.beginState_Die__8daTopmanFv
                0x00011736                .line.executeState_Die__8daTopmanFv
                0x0001177c                .line.endState_Die__8daTopmanFv
                0x00011786                .line.beginState_KnockBack__8daTopmanFv
                0x000117c2                .line.executeState_KnockBack__8daTopmanFv
                0x00011830                .line.endState_KnockBack__8daTopmanFv
                0x00011858                .line.build__14daMegaGoomba_cFv
                0x00011880                .line.removeMyActivePhysics__14daMegaGoomba_cFv
                0x000118bc                .line.addMyActivePhysics__14daMegaGoomba_cFv
                0x000118f8                .line.setNewActivePhysicsRect__FP14daMegaGoomba_cP7Point3d
                0x00011a38                .line.powBlockActivated__14daMegaGoomba_cFb
                0x00011a42                .line.takeHit__14daMegaGoomba_cFc
                0x00011ad8                .line.spriteCollision__14daMegaGoomba_cFP13ActivePhysicsP13ActivePhysics
                0x00011ae2                .line.playerCollision__14daMegaGoomba_cFP13ActivePhysicsP13ActivePhysics
                0x00011b3c                .line.tryHandleJumpedOn__14daMegaGoomba_cFP13ActivePhysicsP13ActivePhysics
                0x00011bb4                .line.collisionCat7_GroundPound__14daMegaGoomba_cFP13ActivePhysicsP13ActivePhysics
                0x00011bf0                .line.collisionCat7_GroundPoundYoshi__14daMegaGoomba_cFP13ActivePhysicsP13ActivePhysics
                0x00011c0e                .line.collisionCat1_Fireball_E_Explosion__14daMegaGoomba_cFP13ActivePhysicsP13ActivePhysics
                0x00011c22                .line.collisionCat2_IceBall_15_YoshiIce__14daMegaGoomba_cFP13ActivePhysicsP13ActivePhysics
                0x00011c36                .line.collisionCat3_StarPower__14daMegaGoomba_cFP13ActivePhysicsP13ActivePhysics
                0x00011c72                .line.collisionCat9_RollingObject__14daMegaGoomba_cFP13ActivePhysicsP13ActivePhysics
                0x00011ca4                .line.collisionCatA_PenguinMario__14daMegaGoomba_cFP13ActivePhysicsP13ActivePhysics
                0x00011cd6                .line.collisionCatD_Drill__14daMegaGoomba_cFP13ActivePhysicsP13ActivePhysics
                0x00011cf4                .line.collisionCat11_PipeCannon__14daMegaGoomba_cFP13ActivePhysicsP13ActivePhysics
                0x00011d08                .line.collisionCat13_Hammer__14daMegaGoomba_cFP13ActivePhysicsP13ActivePhysics
                0x00011d1c                .line.collisionCat14_YoshiFire__14daMegaGoomba_cFP13ActivePhysicsP13ActivePhysics
                0x00011d4e                .line.addScoreWhenHit__14daMegaGoomba_cFPv
                0x00011d58                .line._vf120__14daMegaGoomba_cFP13ActivePhysicsP13ActivePhysics
                0x00011d6c                .line._vf110__14daMegaGoomba_cFP13ActivePhysicsP13ActivePhysics
                0x00011d80                .line._vf108__14daMegaGoomba_cFP13ActivePhysicsP13ActivePhysics
                0x00011d94                .line.bindAnimChr_and_setUpdateRate__14daMegaGoomba_cFPCciff
                0x00011dd0                .line.dieFall_Begin__14daMegaGoomba_cFv
                0x00011df8                .line.dieFall_Execute__14daMegaGoomba_cFv
                0x00011e3e                .line.setupBodyModel__14daMegaGoomba_cFv
                0x00011eac                .line.setupCollision__14daMegaGoomba_cFv
                0x00011f10                .line.onCreate__14daMegaGoomba_cFv
                0x00012064                .line.onDelete__14daMegaGoomba_cFv
                0x0001208c                .line.onExecute__14daMegaGoomba_cFv
                0x000120e6                .line.onDraw__14daMegaGoomba_cFv
                0x0001210e                .line.updateModelMatrices__14daMegaGoomba_cFv
                0x00012154                .line.beginState_Shrink__14daMegaGoomba_cFv
                0x000121b8                .line.executeState_Shrink__14daMegaGoomba_cFv
                0x00012208                .line.endState_Shrink__14daMegaGoomba_cFv
                0x00012230                .line.beginState_Turn__14daMegaGoomba_cFv
                0x0001224e                .line.executeState_Turn__14daMegaGoomba_cFv
                0x00012352                .line.endState_Turn__14daMegaGoomba_cFv
                0x00012370                .line.beginState_Walk__14daMegaGoomba_cFv
                0x000123ac                .line.executeState_Walk__14daMegaGoomba_cFv
                0x000124ec                .line.endState_Walk__14daMegaGoomba_cFv
                0x000124f6                .line.stunPlayers__14daMegaGoomba_cFv
                0x00012550                .line.unstunPlayers__14daMegaGoomba_cFv
                0x0001258c                .line.dieOther_Begin__14daMegaGoomba_cFv
                0x000125e6                .line.dieOther_End__14daMegaGoomba_cFv
                0x00012604                .line.dieOther_Execute__14daMegaGoomba_cFv
                0x00012640                .line.build__13daFuzzyBear_cFv
                0x00012668                .line.playerCollision__13daFuzzyBear_cFP13ActivePhysicsP13ActivePhysics
                0x00012668                .line.__dt__6daBossFv
                0x00012672                .line.yoshiCollision__13daFuzzyBear_cFP13ActivePhysicsP13ActivePhysics
                0x0001267c                .line.collisionCat1_Fireball_E_Explosion__13daFuzzyBear_cFP13ActivePhysicsP13ActivePhysics
                0x00012690                .line.collisionCat7_GroundPound__13daFuzzyBear_cFP13ActivePhysicsP13ActivePhysics
                0x00012708                .line.collisionCat7_GroundPoundYoshi__13daFuzzyBear_cFP13ActivePhysicsP13ActivePhysics
                0x00012730                .line.collisionCat9_RollingObject__13daFuzzyBear_cFP13ActivePhysicsP13ActivePhysics
                0x0001283e                .line.collisionCat13_Hammer__13daFuzzyBear_cFP13ActivePhysicsP13ActivePhysics
                0x000128ca                .line.collisionCat2_IceBall_15_YoshiIce__13daFuzzyBear_cFP13ActivePhysicsP13ActivePhysics
                0x000128de                .line.collisionCat14_YoshiFire__13daFuzzyBear_cFP13ActivePhysicsP13ActivePhysics
                0x000128f2                .line.collisionCatA_PenguinMario__13daFuzzyBear_cFP13ActivePhysicsP13ActivePhysics
                0x0001291a                .line.bindAnimChr_and_setUpdateRate__13daFuzzyBear_cFPCciff
                0x00012956                .line.setupBodyModel__13daFuzzyBear_cFv
                0x000129ba                .line.onCreate__13daFuzzyBear_cFv
                0x00012b68                .line.onDelete__13daFuzzyBear_cFv
                0x00012b7c                .line.onExecute__13daFuzzyBear_cFv
                0x00012bc2                .line.onDraw__13daFuzzyBear_cFv
                0x00012bf4                .line.updateModelMatrices__13daFuzzyBear_cFv
                0x00012c3a                .line.beginState_Grow__13daFuzzyBear_cFv
                0x00012c6c                .line.executeState_Grow__13daFuzzyBear_cFv
                0x00012cb2                .line.endState_Grow__13daFuzzyBear_cFv
                0x00012cda                .line.beginState_Bounce__13daFuzzyBear_cFv
                0x00012d16                .line.executeState_Bounce__13daFuzzyBear_cFv
                0x00012f50                .line.endState_Bounce__13daFuzzyBear_cFv
                0x00012f5a                .line.beginState_RolyPoly__13daFuzzyBear_cFv
                0x00012ffa                .line.executeState_RolyPoly__13daFuzzyBear_cFv
                0x0001313a                .line.endState_RolyPoly__13daFuzzyBear_cFv
                0x00013162                .line.beginState_Wait__13daFuzzyBear_cFv
                0x0001316c                .line.executeState_Wait__13daFuzzyBear_cFv
                0x0001319e                .line.endState_Wait__13daFuzzyBear_cFv
                0x000131a8                .line.beginState_Outro__13daFuzzyBear_cFv
                0x000131c6                .line.executeState_Outro__13daFuzzyBear_cFv
                0x00013252                .line.endState_Outro__13daFuzzyBear_cFv
                0x0001325c                .line.build__15daEnMegaDosun_cFv
                0x00013284                .line.powBlockActivated__15daEnMegaDosun_cFb
                0x0001328e                .line.playerCollision__15daEnMegaDosun_cFP13ActivePhysicsP13ActivePhysics
                0x000132ac                .line.collisionCat1_Fireball_E_Explosion__15daEnMegaDosun_cFP13ActivePhysicsP13ActivePhysics
                0x000132c0                .line.collisionCat2_IceBall_15_YoshiIce__15daEnMegaDosun_cFP13ActivePhysicsP13ActivePhysics
                0x000132d4                .line.collisionCat7_GroundPound__15daEnMegaDosun_cFP13ActivePhysicsP13ActivePhysics
                0x000132fc                .line.collisionCat9_RollingObject__15daEnMegaDosun_cFP13ActivePhysicsP13ActivePhysics
                0x00013310                .line.collisionCat13_Hammer__15daEnMegaDosun_cFP13ActivePhysicsP13ActivePhysics
                0x00013324                .line.collisionCat14_YoshiFire__15daEnMegaDosun_cFP13ActivePhysicsP13ActivePhysics
                0x00013338                .line.collisionCatA_PenguinMario__15daEnMegaDosun_cFP13ActivePhysicsP13ActivePhysics
                0x00013360                .line.setupBodyModel__15daEnMegaDosun_cFv
                0x000133ce                .line.onCreate__15daEnMegaDosun_cFv
                0x000135c2                .line.onExecute__15daEnMegaDosun_cFv
                0x00013630                .line.onDraw__15daEnMegaDosun_cFv
                0x0001368a                .line.onDelete__15daEnMegaDosun_cFv
                0x0001369e                .line.beginState_Grow__15daEnMegaDosun_cFv
                0x000136d0                .line.executeState_Grow__15daEnMegaDosun_cFv
                0x00013716                .line.endState_Grow__15daEnMegaDosun_cFv
                0x00013734                .line.beginState_UpWait__15daEnMegaDosun_cFv
                0x00013752                .line.executeState_UpWait__15daEnMegaDosun_cFv
                0x00013824                .line.endState_UpWait__15daEnMegaDosun_cFv
                0x00013838                .line.beginState_DownMoveWait__15daEnMegaDosun_cFv
                0x00013860                .line.executeState_DownMoveWait__15daEnMegaDosun_cFv
                0x00013892                .line.endState_DownMoveWait__15daEnMegaDosun_cFv
                0x0001389c                .line.beginState_PuruMove__15daEnMegaDosun_cFv
                0x000138ba                .line.executeState_PuruMove__15daEnMegaDosun_cFv
                0x00013928                .line.endState_PuruMove__15daEnMegaDosun_cFv
                0x00013932                .line.beginState_DownMove__15daEnMegaDosun_cFv
                0x00013946                .line.executeState_DownMove__15daEnMegaDosun_cFv
                0x00013a18                .line.endState_DownMove__15daEnMegaDosun_cFv
                0x00013a22                .line.beginState_DownWait__15daEnMegaDosun_cFv
                0x00013a2c                .line.executeState_DownWait__15daEnMegaDosun_cFv
                0x00013a86                .line.endState_DownWait__15daEnMegaDosun_cFv
                0x00013a90                .line.beginState_UpMove__15daEnMegaDosun_cFv
                0x00013aae                .line.executeState_UpMove__15daEnMegaDosun_cFv
                0x00013afe                .line.endState_UpMove__15daEnMegaDosun_cFv
                0x00013b08                .line.beginState_Outro__15daEnMegaDosun_cFv
                0x00013b44                .line.executeState_Outro__15daEnMegaDosun_cFv
                0x00013bee                .line.endState_Outro__15daEnMegaDosun_cFv
                0x00013bf8                .line.build__10daRamboo_cFv
                0x00013c20                .line.playerCollision__10daRamboo_cFP13ActivePhysicsP13ActivePhysics
                0x00013c5c                .line.collisionCat1_Fireball_E_Explosion__10daRamboo_cFP13ActivePhysicsP13ActivePhysics
                0x00013c84                .line.collisionCat2_IceBall_15_YoshiIce__10daRamboo_cFP13ActivePhysicsP13ActivePhysics
                0x00013c98                .line.collisionCat9_RollingObject__10daRamboo_cFP13ActivePhysicsP13ActivePhysics
                0x00013d1a                .line.collisionCat13_Hammer__10daRamboo_cFP13ActivePhysicsP13ActivePhysics
                0x00013d38                .line.collisionCat7_GroundPound__10daRamboo_cFP13ActivePhysicsP13ActivePhysics
                0x00013d60                .line.collisionCatA_PenguinMario__10daRamboo_cFP13ActivePhysicsP13ActivePhysics
                0x00013d88                .line.bindAnimChr_and_setUpdateRates__10daRamboo_cFPCcRQ23m3d8anmChr_cRQ23m3d5mdl_cf
                0x00013dc4                .line.setupModels__10daRamboo_cFv
                0x00013eb4                .line.onCreate__10daRamboo_cFv
                0x0001404e                .line.onDelete__10daRamboo_cFv
                0x00014062                .line.onExecute__10daRamboo_cFv
                0x000140ee                .line.onDraw__10daRamboo_cFv
                0x00014134                .line.updateModelMatrices__10daRamboo_cFv
                0x000141ca                .line.beginState_Grow__10daRamboo_cFv
                0x00014206                .line.executeState_Grow__10daRamboo_cFv
                0x0001429c                .line.endState_Grow__10daRamboo_cFv
                0x000142c4                .line.RightmostPlayerPos__Fv
                0x0001431e                .line.beginState_Advance__10daRamboo_cFv
                0x0001435a                .line.executeState_Advance__10daRamboo_cFv
                0x000143f0                .line.endState_Advance__10daRamboo_cFv
                0x000143fa                .line.beginState_Wait__10daRamboo_cFv
                0x00014422                .line.executeState_Wait__10daRamboo_cFv
                0x000144b8                .line.endState_Wait__10daRamboo_cFv
                0x000144e0                .line.beginState_Flee__10daRamboo_cFv
                0x000144f4                .line.executeState_Flee__10daRamboo_cFv
                0x00014558                .line.endState_Flee__10daRamboo_cFv
                0x00014562                .line.beginState_Outro__10daRamboo_cFv
                0x000145bc                .line.executeState_Outro__10daRamboo_cFv
                0x000146a2                .line.endState_Outro__10daRamboo_cFv
                0x000146ac                .line.build__10daBalboa_cFv
                0x000146d4                .line.balbieCollisionCallback__FP13ActivePhysicsP13ActivePhysics
                0x000146fc                .line.addScoreWhenHit__10daBalboa_cFPv
                0x00014706                .line.prePlayerCollision__10daBalboa_cFP13ActivePhysicsP13ActivePhysics
                0x0001474c                .line.playerCollision__10daBalboa_cFP13ActivePhysicsP13ActivePhysics
                0x000147a6                .line.collisionCat7_GroundPound__10daBalboa_cFP13ActivePhysicsP13ActivePhysics
                0x00014864                .line.collisionCatD_Drill__10daBalboa_cFP13ActivePhysicsP13ActivePhysics
                0x00014882                .line.collisionCat1_Fireball_E_Explosion__10daBalboa_cFP13ActivePhysicsP13ActivePhysics
                0x00014896                .line.collisionCat2_IceBall_15_YoshiIce__10daBalboa_cFP13ActivePhysicsP13ActivePhysics
                0x000148aa                .line.collisionCat9_RollingObject__10daBalboa_cFP13ActivePhysicsP13ActivePhysics
                0x000148be                .line.collisionCat13_Hammer__10daBalboa_cFP13ActivePhysicsP13ActivePhysics
                0x000148d2                .line.collisionCatA_PenguinMario__10daBalboa_cFP13ActivePhysicsP13ActivePhysics
                0x000148fa                .line.setupModels__10daBalboa_cFv
                0x0001499a                .line.bindAnimChr_and_setUpdateRate__10daBalboa_cFPCciff
                0x000149d6                .line.onCreate__10daBalboa_cFv
                0x00014b66                .line.onDelete__10daBalboa_cFv
                0x00014b7a                .line.onExecute__10daBalboa_cFv
                0x00014c24                .line.onDraw__10daBalboa_cFv
                0x00014c60                .line.updateModelMatrices__10daBalboa_cFv
                0x00014cd8                .line.beginState_Grow__10daBalboa_cFv
                0x00014d0a                .line.executeState_Grow__10daBalboa_cFv
                0x00014d64                .line.endState_Grow__10daBalboa_cFv
                0x00014d82                .line.beginState_ManholeUp__10daBalboa_cFv
                0x00014e72                .line.executeState_ManholeUp__10daBalboa_cFv
                0x00014eb8                .line.endState_ManholeUp__10daBalboa_cFv
                0x00014ec2                .line.beginState_HeadPoke__10daBalboa_cFv
                0x00014eea                .line.executeState_HeadPoke__10daBalboa_cFv
                0x00014f1c                .line.endState_HeadPoke__10daBalboa_cFv
                0x00014f26                .line.beginState_AllOut__10daBalboa_cFv
                0x00014f58                .line.executeState_AllOut__10daBalboa_cFv
                0x00014f8a                .line.endState_AllOut__10daBalboa_cFv
                0x00014f94                .line.beginState_ThrowWrench__10daBalboa_cFv
                0x00014ff8                .line.executeState_ThrowWrench__10daBalboa_cFv
                0x000150c0                .line.endState_ThrowWrench__10daBalboa_cFv
                0x000150ca                .line.beginState_BackDown__10daBalboa_cFv
                0x00015110                .line.executeState_BackDown__10daBalboa_cFv
                0x00015156                .line.endState_BackDown__10daBalboa_cFv
                0x00015160                .line.beginState_Outro__10daBalboa_cFv
                0x000151a6                .line.executeState_Outro__10daBalboa_cFv
                0x0001525a                .line.endState_Outro__10daBalboa_cFv
                0x00015264                .line.beginState_Damage__10daBalboa_cFv
                0x00015296                .line.executeState_Damage__10daBalboa_cFv
                0x00015372                .line.endState_Damage__10daBalboa_cFv
                0x00015390                .line.beginState_RevengeUp__10daBalboa_cFv
                0x000153ea                .line.executeState_RevengeUp__10daBalboa_cFv
                0x0001541c                .line.endState_RevengeUp__10daBalboa_cFv
                0x00015426                .line.beginState_Revenge__10daBalboa_cFv
                0x00015494                .line.executeState_Revenge__10daBalboa_cFv
                0x0001557a                .line.endState_Revenge__10daBalboa_cFv
                0x000155ac                .line.playerCollision__8daWrenchFP13ActivePhysicsP13ActivePhysics
                0x000155b6                .line.collisionCat1_Fireball_E_Explosion__8daWrenchFP13ActivePhysicsP13ActivePhysics
                0x000155ca                .line.collisionCat2_IceBall_15_YoshiIce__8daWrenchFP13ActivePhysicsP13ActivePhysics
                0x000155de                .line.collisionCat9_RollingObject__8daWrenchFP13ActivePhysicsP13ActivePhysics
                0x000155f2                .line.collisionCat13_Hammer__8daWrenchFP13ActivePhysicsP13ActivePhysics
                0x0001562e                .line.collisionCat14_YoshiFire__8daWrenchFP13ActivePhysicsP13ActivePhysics
                0x00015642                .line.collisionCat7_GroundPound__8daWrenchFP13ActivePhysicsP13ActivePhysics
                0x00015688                .line.build__8daWrenchFv
                0x000156b0                .line.onCreate__8daWrenchFv
                0x000158f4                .line.onDelete__8daWrenchFv
                0x00015908                .line.onDraw__8daWrenchFv
                0x00015930                .line.updateModelMatrices__8daWrenchFv
                0x00015976                .line.onExecute__8daWrenchFv
                0x000159d0                .line.beginState_Kaboom__8daWrenchFv
                0x00015a20                .line.executeState_Kaboom__8daWrenchFv
                0x00015b24                .line.endState_Kaboom__8daWrenchFv
                0x00015b2e                .line.beginState_Straight__8daWrenchFv
                0x00015b7e                .line.executeState_Straight__8daWrenchFv
                0x00015c46                .line.endState_Straight__8daWrenchFv
                0x00015c50                .line.build__11daSamurshaiFv
                0x00015c78                .line.ChucksAndKnucks__FP13ActivePhysicsP13ActivePhysics
                0x00015ca0                .line.playerCollision__11daSamurshaiFP13ActivePhysicsP13ActivePhysics
                0x00015d7c                .line.yoshiCollision__11daSamurshaiFP13ActivePhysicsP13ActivePhysics
                0x00015d86                .line.collisionCatD_Drill__11daSamurshaiFP13ActivePhysicsP13ActivePhysics
                0x00015da4                .line.collisionCat7_GroundPound__11daSamurshaiFP13ActivePhysicsP13ActivePhysics
                0x00015e1c                .line.collisionCat7_GroundPoundYoshi__11daSamurshaiFP13ActivePhysicsP13ActivePhysics
                0x00015e3a                .line.collisionCat9_RollingObject__11daSamurshaiFP13ActivePhysicsP13ActivePhysics
                0x00015e80                .line.collisionCat3_StarPower__11daSamurshaiFP13ActivePhysicsP13ActivePhysics
                0x00015e94                .line.collisionCatA_PenguinMario__11daSamurshaiFP13ActivePhysicsP13ActivePhysics
                0x00015eda                .line.collisionCat14_YoshiFire__11daSamurshaiFP13ActivePhysicsP13ActivePhysics
                0x00015eee                .line.collisionCat1_Fireball_E_Explosion__11daSamurshaiFP13ActivePhysicsP13ActivePhysics
                0x00015f02                .line.collisionCat2_IceBall_15_YoshiIce__11daSamurshaiFP13ActivePhysicsP13ActivePhysics
                0x00015f16                .line.collisionCat13_Hammer__11daSamurshaiFP13ActivePhysicsP13ActivePhysics
                0x00015f2a                .line.addScoreWhenHit__11daSamurshaiFPv
                0x00015f34                .line.powBlockActivated__11daSamurshaiFb
                0x00015f3e                .line.calculateTileCollisions__11daSamurshaiFv
                0x00016074                .line.bindAnimChr_and_setUpdateRate__11daSamurshaiFPCciff
                0x000160b0                .line.onCreate__11daSamurshaiFv
                0x0001633a                .line.onDelete__11daSamurshaiFv
                0x0001634e                .line.onExecute__11daSamurshaiFv
                0x00016380                .line.onDraw__11daSamurshaiFv
                0x000163b2                .line.updateModelMatrices__11daSamurshaiFv
                0x000163f8                .line.beginState_Intro__11daSamurshaiFv
                0x000164ac                .line.executeState_Intro__11daSamurshaiFv
                0x000165b0                .line.endState_Intro__11daSamurshaiFv
                0x000165f6                .line.randomPlayer__11daSamurshaiFv
                0x00016646                .line.beginState_Walk__11daSamurshaiFv
                0x000166c8                .line.executeState_Walk__11daSamurshaiFv
                0x000167cc                .line.endState_Walk__11daSamurshaiFv
                0x000167d6                .line.beginState_Turn__11daSamurshaiFv
                0x00016812                .line.executeState_Turn__11daSamurshaiFv
                0x00016862                .line.endState_Turn__11daSamurshaiFv
                0x0001686c                .line.beginState_Chop__11daSamurshaiFv
                0x0001689e                .line.executeState_Chop__11daSamurshaiFv
                0x000169a2                .line.endState_Chop__11daSamurshaiFv
                0x000169ac                .line.beginState_ChargeSlash__11daSamurshaiFv
                0x000169de                .line.executeState_ChargeSlash__11daSamurshaiFv
                0x00016b28                .line.endState_ChargeSlash__11daSamurshaiFv
                0x00016b3c                .line.beginState_Uppercut__11daSamurshaiFv
                0x00016b6e                .line.executeState_Uppercut__11daSamurshaiFv
                0x00016cea                .line.endState_Uppercut__11daSamurshaiFv
                0x00016cf4                .line.beginState_SpinAttack__11daSamurshaiFv
                0x00016d12                .line.executeState_SpinAttack__11daSamurshaiFv
                0x00016e02                .line.endState_SpinAttack__11daSamurshaiFv
                0x00016e0c                .line.beginState_Damage__11daSamurshaiFv
                0x00016eac                .line.executeState_Damage__11daSamurshaiFv
                0x00016f1a                .line.endState_Damage__11daSamurshaiFv
                0x00016f4c                .line.beginState_Outro__11daSamurshaiFv
                0x00016fec                .line.executeState_Outro__11daSamurshaiFv
                0x000170a0                .line.endState_Outro__11daSamurshaiFv
                0x000170aa                .line.isNearWall__11daSamurshaiFv
                0x0001719a                .line.poodleCollisionCallback__FP13ActivePhysicsP13ActivePhysics
                0x000171cc                .line.build__10daPodoubleFv
                0x000171f4                .line.playerCollision__10daPodoubleFP13ActivePhysicsP13ActivePhysics
                0x000171fe                .line.yoshiCollision__10daPodoubleFP13ActivePhysicsP13ActivePhysics
                0x00017208                .line.collisionCat7_GroundPound__10daPodoubleFP13ActivePhysicsP13ActivePhysics
                0x00017230                .line.collisionCat7_GroundPoundYoshi__10daPodoubleFP13ActivePhysicsP13ActivePhysics
                0x00017258                .line.collisionCatA_PenguinMario__10daPodoubleFP13ActivePhysicsP13ActivePhysics
                0x00017280                .line.collisionCatD_Drill__10daPodoubleFP13ActivePhysicsP13ActivePhysics
                0x0001728a                .line.collisionCat9_RollingObject__10daPodoubleFP13ActivePhysicsP13ActivePhysics
                0x00017294                .line.collisionCat3_StarPower__10daPodoubleFP13ActivePhysicsP13ActivePhysics
                0x0001729e                .line.collisionCat13_Hammer__10daPodoubleFP13ActivePhysicsP13ActivePhysics
                0x000172c6                .line.collisionCat14_YoshiFire__10daPodoubleFP13ActivePhysicsP13ActivePhysics
                0x0001732a                .line.collisionCat1_Fireball_E_Explosion__10daPodoubleFP13ActivePhysicsP13ActivePhysics
                0x00017384                .line.collisionCat2_IceBall_15_YoshiIce__10daPodoubleFP13ActivePhysicsP13ActivePhysics
                0x000173f2                .line.updateHitboxSize__10daPodoubleFv
                0x00017410                .line.onCreate__10daPodoubleFv
                0x00017636                .line.onDelete__10daPodoubleFv
                0x0001764a                .line.onExecute__10daPodoubleFv
                0x000176f4                .line.onDraw__10daPodoubleFv
                0x000177c6                .line.beginState_Grow__10daPodoubleFv
                0x00017802                .line.executeState_Grow__10daPodoubleFv
                0x0001794c                .line.endState_Grow__10daPodoubleFv
                0x0001797e                .line.beginState_Bounce__10daPodoubleFv
                0x000179ce                .line.executeState_Bounce__10daPodoubleFv
                0x00017a50                .line.endState_Bounce__10daPodoubleFv
                0x00017a6e                .line.beginState_Spit__10daPodoubleFv
                0x00017a78                .line.executeState_Spit__10daPodoubleFv
                0x00017bd6                .line.endState_Spit__10daPodoubleFv
                0x00017bf4                .line.beginState_Damage__10daPodoubleFv
                0x00017c4e                .line.executeState_Damage__10daPodoubleFv
                0x00017d34                .line.endState_Damage__10daPodoubleFv
                0x00017d48                .line.beginState_Outro__10daPodoubleFv
                0x00017dc0                .line.executeState_Outro__10daPodoubleFv
                0x00017e56                .line.endState_Outro__10daPodoubleFv
                0x00017e60                .line.beginState_SyncDie__10daPodoubleFv
                0x00017ed8                .line.executeState_SyncDie__10daPodoubleFv
                0x00017f00                .line.endState_SyncDie__10daPodoubleFv
                0x00017f0a                .line.build__9daDreidelFv
                0x00017f32                .line.addScoreWhenHit__9daDreidelFPv
                0x00017f3c                .line.spriteCollision__9daDreidelFP13ActivePhysicsP13ActivePhysics
                0x00017fbe                .line.playerCollision__9daDreidelFP13ActivePhysicsP13ActivePhysics
                0x000180fe                .line.yoshiCollision__9daDreidelFP13ActivePhysicsP13ActivePhysics
                0x0001811c                .line.collisionCatD_Drill__9daDreidelFP13ActivePhysicsP13ActivePhysics
                0x00018144                .line.collisionCat7_GroundPound__9daDreidelFP13ActivePhysicsP13ActivePhysics
                0x0001816c                .line.collisionCat7_GroundPoundYoshi__9daDreidelFP13ActivePhysicsP13ActivePhysics
                0x00018194                .line.collisionCat9_RollingObject__9daDreidelFP13ActivePhysicsP13ActivePhysics
                0x000181c6                .line.collisionCatA_PenguinMario__9daDreidelFP13ActivePhysicsP13ActivePhysics
                0x000181f8                .line.collisionCat3_StarPower__9daDreidelFP13ActivePhysicsP13ActivePhysics
                0x00018202                .line.collisionCat13_Hammer__9daDreidelFP13ActivePhysicsP13ActivePhysics
                0x0001820c                .line.collisionCat14_YoshiFire__9daDreidelFP13ActivePhysicsP13ActivePhysics
                0x00018216                .line.collisionCat1_Fireball_E_Explosion__9daDreidelFP13ActivePhysicsP13ActivePhysics
                0x00018220                .line.collisionCat2_IceBall_15_YoshiIce__9daDreidelFP13ActivePhysicsP13ActivePhysics
                0x0001822a                .line.powBlockActivated__9daDreidelFb
                0x00018234                .line.calculateTileCollisions__9daDreidelFv
                0x000183b0                .line.bindAnimChr_and_setUpdateRate__9daDreidelFPCciff
                0x000183ec                .line.onCreate__9daDreidelFv
                0x000185f4                .line.onDelete__9daDreidelFv
                0x00018608                .line.onExecute__9daDreidelFv
                0x0001863a                .line.onDraw__9daDreidelFv
                0x00018694                .line.updateModelMatrices__9daDreidelFv
                0x000186da                .line.beginState_Grow__9daDreidelFv
                0x0001870c                .line.executeState_Grow__9daDreidelFv
                0x00018766                .line.endState_Grow__9daDreidelFv
                0x0001878e                .line.beginState_Walk__9daDreidelFv
                0x000187de                .line.executeState_Walk__9daDreidelFv
                0x00018888                .line.endState_Walk__9daDreidelFv
                0x00018892                .line.beginState_Turn__9daDreidelFv
                0x000188b0                .line.executeState_Turn__9daDreidelFv
                0x0001890a                .line.endState_Turn__9daDreidelFv
                0x00018914                .line.beginState_KnockBack__9daDreidelFv
                0x00018946                .line.executeState_KnockBack__9daDreidelFv
                0x000189b4                .line.endState_KnockBack__9daDreidelFv
                0x000189fa                .line.beginState_ChargePrep__9daDreidelFv
                0x00018a18                .line.executeState_ChargePrep__9daDreidelFv
                0x00018a40                .line.endState_ChargePrep__9daDreidelFv
                0x00018a4a                .line.beginState_Charge__9daDreidelFv
                0x00018ab8                .line.executeState_Charge__9daDreidelFv
                0x00018b62                .line.endState_Charge__9daDreidelFv
                0x00018b9e                .line.beginState_ChargeRecover__9daDreidelFv
                0x00018bbc                .line.executeState_ChargeRecover__9daDreidelFv
                0x00018be4                .line.endState_ChargeRecover__9daDreidelFv
                0x00018bee                .line.beginState_Damage__9daDreidelFv
                0x00018c7a                .line.executeState_Damage__9daDreidelFv
                0x00018cf2                .line.endState_Damage__9daDreidelFv
                0x00018d1a                .line.beginState_Outro__9daDreidelFv
                0x00018d38                .line.executeState_Outro__9daDreidelFv
                0x00018dce                .line.endState_Outro__9daDreidelFv
                0x00018dd8                .line.CConDraw__FP5dEn_c
                0x00018e6e                .line.CConExecute__FP5dEn_c
                0x00018edc                .line.CCafterCreate__FP5dEn_cUi
                0x00018fae                .line.CConExecuteMove__FP5dEn_c
                0x000190bc                .line.newClownCtor__FP5dEn_c
                0x000190f8                .line.newClownDtor__FP5dEn_cUi
                0x00019152                .line.JrClownForPlayer_playAccelSound
                0x0001917a                .line.playerCollision__11daClownShotFP13ActivePhysicsP13ActivePhysics
                0x00019184                .line.build__11daClownShotFv
                0x000191ac                .line.onCreate__11daClownShotFv
                0x000192f6                .line.onDraw__11daClownShotFv
                0x00019350                .line.onExecute__11daClownShotFv
                0x00019418                .line.Amp_NewPreSpriteCollision
                0x0001947c                .line.KazanRock_CollisionCallback
                0x000194c2                .line.build__15daCaptainBowserFv
                0x000194ea                .line.addScoreWhenHit__15daCaptainBowserFPv
                0x000194f4                .line.collisionCat13_Hammer__15daCaptainBowserFP13ActivePhysicsP13ActivePhysics
                0x00019530                .line.spriteCollision__15daCaptainBowserFP13ActivePhysicsP13ActivePhysics
                0x000195a8                .line.playerCollision__15daCaptainBowserFP13ActivePhysicsP13ActivePhysics
                0x000195c6                .line.bindAnimChr_and_setUpdateRate__15daCaptainBowserFPCciff
                0x00019602                .line.onCreate__15daCaptainBowserFv
                0x00019846                .line.onDelete__15daCaptainBowserFv
                0x00019878                .line.afterExecute__15daCaptainBowserFi
                0x00019896                .line.onExecute__15daCaptainBowserFv
                0x00019a12                .line.onDraw__15daCaptainBowserFv
                0x00019b02                .line.beginState_Intro__15daCaptainBowserFv
                0x00019b3e                .line.executeState_Intro__15daCaptainBowserFv
                0x00019c74                .line.endState_Intro__15daCaptainBowserFv
                0x00019ca6                .line.beginState_Wait__15daCaptainBowserFv
                0x00019ce2                .line.executeState_Wait__15daCaptainBowserFv
                0x00019d3c                .line.endState_Wait__15daCaptainBowserFv
                0x00019d46                .line.beginState_Throw__15daCaptainBowserFv
                0x00019d6e                .line.executeState_Throw__15daCaptainBowserFv
                0x00019e0e                .line.endState_Throw__15daCaptainBowserFv
                0x00019e18                .line.beginState_Fire__15daCaptainBowserFv
                0x00019e40                .line.executeState_Fire__15daCaptainBowserFv
                0x00019ec2                .line.endState_Fire__15daCaptainBowserFv
                0x00019ecc                .line.beginState_Roar__15daCaptainBowserFv
                0x00019efe                .line.executeState_Roar__15daCaptainBowserFv
                0x00019f58                .line.endState_Roar__15daCaptainBowserFv
                0x00019f76                .line.beginState_Damage__15daCaptainBowserFv
                0x00019fb2                .line.executeState_Damage__15daCaptainBowserFv
                0x00019fda                .line.endState_Damage__15daCaptainBowserFv
                0x00019fe4                .line.initiateDeathSequence__15daCaptainBowserFv
                0x0001a03e                .line.beginState_FinalAttack__15daCaptainBowserFv
                0x0001a07a                .line.executeState_FinalAttack__15daCaptainBowserFv
                0x0001a282                .line.endState_FinalAttack__15daCaptainBowserFv
                0x0001a28c                .line.beginState_Outro__15daCaptainBowserFv
                0x0001a354                .line.executeState_Outro__15daCaptainBowserFv
                0x0001a7be                .line.endState_Outro__15daCaptainBowserFv
                0x0001a7c8                .line.beginState_PanToExit__15daCaptainBowserFv
                0x0001a7dc                .line.endState_PanToExit__15daCaptainBowserFv
                0x0001a7e6                .line.executeState_PanToExit__15daCaptainBowserFv
                0x0001a8b8                .line.playerCollision__12daKoopaThrowFP13ActivePhysicsP13ActivePhysics
                0x0001a958                .line.spriteCollision__12daKoopaThrowFP13ActivePhysicsP13ActivePhysics
                0x0001a962                .line.collisionCat1_Fireball_E_Explosion__12daKoopaThrowFP13ActivePhysicsP13ActivePhysics
                0x0001a976                .line.collisionCat2_IceBall_15_YoshiIce__12daKoopaThrowFP13ActivePhysicsP13ActivePhysics
                0x0001a98a                .line.collisionCat9_RollingObject__12daKoopaThrowFP13ActivePhysicsP13ActivePhysics
                0x0001a99e                .line.collisionCat13_Hammer__12daKoopaThrowFP13ActivePhysicsP13ActivePhysics
                0x0001aa02                .line.collisionCat14_YoshiFire__12daKoopaThrowFP13ActivePhysicsP13ActivePhysics
                0x0001aa16                .line.collisionCat7_GroundPound__12daKoopaThrowFP13ActivePhysicsP13ActivePhysics
                0x0001aa70                .line.build__12daKoopaThrowFv
                0x0001aa98                .line.onCreate__12daKoopaThrowFv
                0x0001acdc                .line.onDelete__12daKoopaThrowFv
                0x0001ad0e                .line.onDraw__12daKoopaThrowFv
                0x0001ad36                .line.updateModelMatrices__12daKoopaThrowFv
                0x0001ad7c                .line.onExecute__12daKoopaThrowFv
                0x0001adfe                .line.beginState_Straight__12daKoopaThrowFv
                0x0001ae4e                .line.executeState_Straight__12daKoopaThrowFv
                0x0001af02                .line.endState_Straight__12daKoopaThrowFv
                0x0001af0c                .line.playerCollision__13daKoopaBreathFP13ActivePhysicsP13ActivePhysics
                0x0001af16                .line.spriteCollision__13daKoopaBreathFP13ActivePhysicsP13ActivePhysics
                0x0001af20                .line.build__13daKoopaBreathFv
                0x0001af48                .line.onCreate__13daKoopaBreathFv
                0x0001aff2                .line.onExecute__13daKoopaBreathFv
                0x0001b060                .line.BowserDoomSpriteCollision__FP5dEn_cP13ActivePhysicsP13ActivePhysics
                0x0001b178                .line.BowserDoomStart__FP13dStageActor_c
                0x0001b1b4                .line.BowserDoomExecute__FP13dStageActor_c
                0x0001b1dc                .line.BowserDoomEnd__FP13dStageActor_c
                0x0001b204                .line.BowserStartEnd__FP13dStageActor_c
                0x0001b222                .line.playerCollision__12dDroppedBombFP13ActivePhysicsP13ActivePhysics
                0x0001b24a                .line.build__12dDroppedBombFv
                0x0001b272                .line.collisionCat1_Fireball_E_Explosion__12dDroppedBombFP13ActivePhysicsP13ActivePhysics
                0x0001b27c                .line.collisionCat2_IceBall_15_YoshiIce__12dDroppedBombFP13ActivePhysicsP13ActivePhysics
                0x0001b286                .line.collisionCat9_RollingObject__12dDroppedBombFP13ActivePhysicsP13ActivePhysics
                0x0001b290                .line.collisionCat13_Hammer__12dDroppedBombFP13ActivePhysicsP13ActivePhysics
                0x0001b29a                .line.collisionCat14_YoshiFire__12dDroppedBombFP13ActivePhysicsP13ActivePhysics
                0x0001b2a4                .line.collisionCat7_GroundPound__12dDroppedBombFP13ActivePhysicsP13ActivePhysics
                0x0001b2ae                .line.kill__12dDroppedBombFv
                0x0001b2ea                .line.onCreate__12dDroppedBombFv
                0x0001b452                .line.onDelete__12dDroppedBombFv
                0x0001b466                .line.onDraw__12dDroppedBombFv
                0x0001b48e                .line.updateModelMatrices__12dDroppedBombFv
                0x0001b4d4                .line.onExecute__12dDroppedBombFv
                0x0001b5a6                .line.build__9dBombDropFv
                0x0001b5ce                .line.onCreate__9dBombDropFv
                0x0001b65a                .line.onDelete__9dBombDropFv
                0x0001b664                .line.onDraw__9dBombDropFv
                0x0001b66e                .line.onExecute__9dBombDropFv
                0x0001b6fa                .line.build__11EffectVideoFv
                0x0001b722                .line.onCreate__11EffectVideoFv
                0x0001b79a                .line.onDelete__11EffectVideoFv
                0x0001b7ae                .line.onExecute__11EffectVideoFv
                0x0001b90c                .line.playerCollision__14daFakeStarCoinFP13ActivePhysicsP13ActivePhysics
                0x0001b93e                .line.collisionCat7_GroundPound__14daFakeStarCoinFP13ActivePhysicsP13ActivePhysics
                0x0001b95c                .line.collisionCat7_GroundPoundYoshi__14daFakeStarCoinFP13ActivePhysicsP13ActivePhysics
                0x0001b97a                .line.collisionCatD_Drill__14daFakeStarCoinFP13ActivePhysicsP13ActivePhysics
                0x0001b998                .line.collisionCatA_PenguinMario__14daFakeStarCoinFP13ActivePhysicsP13ActivePhysics
                0x0001b9b6                .line.collisionCat1_Fireball_E_Explosion__14daFakeStarCoinFP13ActivePhysicsP13ActivePhysics
                0x0001b9fc                .line.collisionCat2_IceBall_15_YoshiIce__14daFakeStarCoinFP13ActivePhysicsP13ActivePhysics
                0x0001ba4c                .line.collisionCat9_RollingObject__14daFakeStarCoinFP13ActivePhysicsP13ActivePhysics
                0x0001ba92                .line.collisionCat13_Hammer__14daFakeStarCoinFP13ActivePhysicsP13ActivePhysics
                0x0001bab0                .line.collisionCat14_YoshiFire__14daFakeStarCoinFP13ActivePhysicsP13ActivePhysics
                0x0001bace                .line.collisionCat3_StarPower__14daFakeStarCoinFP13ActivePhysicsP13ActivePhysics
                0x0001baec                .line.build__14daFakeStarCoinFv
                0x0001bb14                .line.onCreate__14daFakeStarCoinFv
                0x0001bc18                .line.onDelete__14daFakeStarCoinFv
                0x0001bc2c                .line.onDraw__14daFakeStarCoinFv
                0x0001bc54                .line.updateModelMatrices__14daFakeStarCoinFv
                0x0001bc9a                .line.onExecute__14daFakeStarCoinFv
                0x0001bccc                .line.build__8daShyGuyFv
                0x0001bcf4                .line.actorCanPopBalloon__FP13dStageActor_c
                0x0001bd1c                .line.shyCollisionCallback__FP13ActivePhysicsP13ActivePhysics
                0x0001bd6c                .line.ChucklesAndKnuckles__FP13ActivePhysicsP13ActivePhysics
                0x0001bd94                .line.balloonSmack__FP13ActivePhysicsP13ActivePhysics
                0x0001bdc6                .line.spriteCollision__8daShyGuyFP13ActivePhysicsP13ActivePhysics
                0x0001be3e                .line.popBalloon__8daShyGuyFv
                0x0001be5c                .line.playerCollision__8daShyGuyFP13ActivePhysicsP13ActivePhysics
                0x0001bfe2                .line.yoshiCollision__8daShyGuyFP13ActivePhysicsP13ActivePhysics
                0x0001c000                .line.collisionCatD_Drill__8daShyGuyFP13ActivePhysicsP13ActivePhysics
                0x0001c03c                .line.collisionCat7_GroundPound__8daShyGuyFP13ActivePhysicsP13ActivePhysics
                0x0001c05a                .line.collisionCat7_GroundPoundYoshi__8daShyGuyFP13ActivePhysicsP13ActivePhysics
                0x0001c078                .line.collisionCat9_RollingObject__8daShyGuyFP13ActivePhysicsP13ActivePhysics
                0x0001c096                .line.collisionCatA_PenguinMario__8daShyGuyFP13ActivePhysicsP13ActivePhysics
                0x0001c0b4                .line.collisionCat5_Mario__8daShyGuyFP13ActivePhysicsP13ActivePhysics
                0x0001c0d2                .line.collisionCat11_PipeCannon__8daShyGuyFP13ActivePhysicsP13ActivePhysics
                0x0001c0f0                .line.collisionCat13_Hammer__8daShyGuyFP13ActivePhysicsP13ActivePhysics
                0x0001c118                .line.collisionCat3_StarPower__8daShyGuyFP13ActivePhysicsP13ActivePhysics
                0x0001c14a                .line.collisionCat14_YoshiFire__8daShyGuyFP13ActivePhysicsP13ActivePhysics
                0x0001c172                .line.collisionCat1_Fireball_E_Explosion__8daShyGuyFP13ActivePhysicsP13ActivePhysics
                0x0001c23a                .line._vf148__8daShyGuyFv
                0x0001c262                .line._vf14C__8daShyGuyFv
                0x0001c28a                .line.CreateIceActors__8daShyGuyFv
                0x0001c2d0                .line.calculateTileCollisions__8daShyGuyFv
                0x0001c44c                .line.bindAnimChr_and_setUpdateRate__8daShyGuyFPCciff
                0x0001c488                .line.onCreate__8daShyGuyFv
                0x0001c9ce                .line.onDelete__8daShyGuyFv
                0x0001c9e2                .line.onExecute__8daShyGuyFv
                0x0001ca1e                .line.onDraw__8daShyGuyFv
                0x0001ca64                .line.updateModelMatrices__8daShyGuyFv
                0x0001cb0e                .line.beginState_Walk__8daShyGuyFv
                0x0001cb54                .line.executeState_Walk__8daShyGuyFv
                0x0001cbae                .line.endState_Walk__8daShyGuyFv
                0x0001cbb8                .line.beginState_Turn__8daShyGuyFv
                0x0001cbd6                .line.executeState_Turn__8daShyGuyFv
                0x0001cc26                .line.endState_Turn__8daShyGuyFv
                0x0001cc30                .line.beginState_Jump__8daShyGuyFv
                0x0001cc6c                .line.executeState_Jump__8daShyGuyFv
                0x0001cde8                .line.endState_Jump__8daShyGuyFv
                0x0001cdf2                .line.beginState_Sleep__8daShyGuyFv
                0x0001ce1a                .line.executeState_Sleep__8daShyGuyFv
                0x0001ce42                .line.endState_Sleep__8daShyGuyFv
                0x0001ce4c                .line.beginState_Balloon_H__8daShyGuyFv
                0x0001ce92                .line.executeState_Balloon_H__8daShyGuyFv
                0x0001ced8                .line.endState_Balloon_H__8daShyGuyFv
                0x0001cee2                .line.beginState_Balloon_V__8daShyGuyFv
                0x0001cf28                .line.executeState_Balloon_V__8daShyGuyFv
                0x0001cf6e                .line.endState_Balloon_V__8daShyGuyFv
                0x0001cf78                .line.beginState_Balloon_C__8daShyGuyFv
                0x0001cfbe                .line.executeState_Balloon_C__8daShyGuyFv
                0x0001d004                .line.endState_Balloon_C__8daShyGuyFv
                0x0001d00e                .line.beginState_Judo__8daShyGuyFv
                0x0001d04a                .line.executeState_Judo__8daShyGuyFv
                0x0001d1e4                .line.endState_Judo__8daShyGuyFv
                0x0001d1ee                .line.beginState_Spike__8daShyGuyFv
                0x0001d234                .line.executeState_Spike__8daShyGuyFv
                0x0001d3ce                .line.endState_Spike__8daShyGuyFv
                0x0001d3d8                .line.willWalkOntoSuitableGround__8daShyGuyFv
                0x0001d446                .line.beginState_RealWalk__8daShyGuyFv
                0x0001d48c                .line.executeState_RealWalk__8daShyGuyFv
                0x0001d54a                .line.endState_RealWalk__8daShyGuyFv
                0x0001d554                .line.beginState_RealTurn__8daShyGuyFv
                0x0001d572                .line.executeState_RealTurn__8daShyGuyFv
                0x0001d5c2                .line.endState_RealTurn__8daShyGuyFv
                0x0001d5cc                .line.beginState_GoDizzy__8daShyGuyFv
                0x0001d644                .line.executeState_GoDizzy__8daShyGuyFv
                0x0001d6da                .line.endState_GoDizzy__8daShyGuyFv
                0x0001d6e4                .line.beginState_BalloonDrop__8daShyGuyFv
                0x0001d78e                .line.executeState_BalloonDrop__8daShyGuyFv
                0x0001d7f2                .line.endState_BalloonDrop__8daShyGuyFv
                0x0001d7fc                .line.beginState_FireKnockBack__8daShyGuyFv
                0x0001d84c                .line.executeState_FireKnockBack__8daShyGuyFv
                0x0001d89c                .line.endState_FireKnockBack__8daShyGuyFv
                0x0001d8b0                .line.beginState_FlameHit__8daShyGuyFv
                0x0001d8ce                .line.executeState_FlameHit__8daShyGuyFv
                0x0001d93c                .line.endState_FlameHit__8daShyGuyFv
                0x0001d946                .line.beginState_Recover__8daShyGuyFv
                0x0001d964                .line.executeState_Recover__8daShyGuyFv
                0x0001d9be                .line.endState_Recover__8daShyGuyFv
                0x0001d9e6                .line.beginState_Die__8daShyGuyFv
                0x0001da5e                .line.executeState_Die__8daShyGuyFv
                0x0001dacc                .line.endState_Die__8daShyGuyFv
                0x0001dad6                .line.build__13daShyGuyGiantFv
                0x0001db08                .line.playerCollision__13daShyGuyGiantFP13ActivePhysicsP13ActivePhysics
                0x0001dbbc                .line._vf278__13daShyGuyGiantFPv
                0x0001dbda                .line.bouncePlayerWhenJumpedOn__13daShyGuyGiantFPv
                0x0001dbf8                .line.yoshiCollision__13daShyGuyGiantFP13ActivePhysicsP13ActivePhysics
                0x0001dc16                .line.collisionCatD_Drill__13daShyGuyGiantFP13ActivePhysicsP13ActivePhysics
                0x0001dc34                .line.collisionCat7_GroundPound__13daShyGuyGiantFP13ActivePhysicsP13ActivePhysics
                0x0001dc52                .line.collisionCat7_GroundPoundYoshi__13daShyGuyGiantFP13ActivePhysicsP13ActivePhysics
                0x0001dc70                .line.collisionCat9_RollingObject__13daShyGuyGiantFP13ActivePhysicsP13ActivePhysics
                0x0001dc98                .line.collisionCatA_PenguinMario__13daShyGuyGiantFP13ActivePhysicsP13ActivePhysics
                0x0001dcca                .line.collisionCat5_Mario__13daShyGuyGiantFP13ActivePhysicsP13ActivePhysics
                0x0001dcde                .line.collisionCat11_PipeCannon__13daShyGuyGiantFP13ActivePhysicsP13ActivePhysics
                0x0001dcf2                .line.collisionCat13_Hammer__13daShyGuyGiantFP13ActivePhysicsP13ActivePhysics
                0x0001dd06                .line.collisionCat3_StarPower__13daShyGuyGiantFP13ActivePhysicsP13ActivePhysics
                0x0001dd1a                .line.collisionCat14_YoshiFire__13daShyGuyGiantFP13ActivePhysicsP13ActivePhysics
                0x0001dd38                .line.collisionCat1_Fireball_E_Explosion__13daShyGuyGiantFP13ActivePhysicsP13ActivePhysics
                0x0001dd56                .line.collisionCat2_IceBall_15_YoshiIce__13daShyGuyGiantFP13ActivePhysicsP13ActivePhysics
                0x0001dd74                .line._vf148__13daShyGuyGiantFv
                0x0001dd9c                .line._vf14C__13daShyGuyGiantFv
                0x0001ddc4                .line.CreateIceActors__13daShyGuyGiantFv
                0x0001de14                .line.addScoreWhenHit__13daShyGuyGiantFPv
                0x0001de1e                .line.spawnHitEffectAtPosition__13daShyGuyGiantF7Point2d
                0x0001de28                .line.doSomethingWithHardHitAndSoftHitEffects__13daShyGuyGiantF7Point3d
                0x0001de32                .line.playEnemyDownSound2__13daShyGuyGiantFv
                0x0001de3c                .line.playHpdpSound1__13daShyGuyGiantFv
                0x0001de46                .line.playEnemyDownSound1__13daShyGuyGiantFv
                0x0001de50                .line.playEnemyDownComboSound__13daShyGuyGiantFPv
                0x0001de5a                .line.playHpdpSound2__13daShyGuyGiantFv
                0x0001de64                .line._vf260__13daShyGuyGiantFPv
                0x0001de6e                .line._vf264__13daShyGuyGiantFP13dStageActor_c
                0x0001de78                .line._vf268__13daShyGuyGiantFPv
                0x0001de82                .line.powBlockActivated__13daShyGuyGiantFb
                0x0001de8c                .line.calculateTileCollisions__13daShyGuyGiantFv
                0x0001e008                .line.bindAnimChr_and_setUpdateRate__13daShyGuyGiantFPCciff
                0x0001e044                .line.onCreate__13daShyGuyGiantFv
                0x0001e38c                .line.onDelete__13daShyGuyGiantFv
                0x0001e3a0                .line.onExecute__13daShyGuyGiantFv
                0x0001e3d2                .line.onDraw__13daShyGuyGiantFv
                0x0001e3fa                .line.updateModelMatrices__13daShyGuyGiantFv
                0x0001e45e                .line.beginState_RealWalk__13daShyGuyGiantFv
                0x0001e4a4                .line.executeState_RealWalk__13daShyGuyGiantFv
                0x0001e4f4                .line.endState_RealWalk__13daShyGuyGiantFv
                0x0001e4fe                .line.beginState_RealTurn__13daShyGuyGiantFv
                0x0001e51c                .line.executeState_RealTurn__13daShyGuyGiantFv
                0x0001e576                .line.endState_RealTurn__13daShyGuyGiantFv
                0x0001e580                .line.beginState_Die__13daShyGuyGiantFv
                0x0001e5da                .line.executeState_Die__13daShyGuyGiantFv
                0x0001e648                .line.endState_Die__13daShyGuyGiantFv
                0x0001e652                .line.build__7dMeteorFv
                0x0001e67a                .line.playerCollision__7dMeteorFP13ActivePhysicsP13ActivePhysics
                0x0001e698                .line.MeteorPhysicsCallback__FP7dMeteorP5dEn_c
                0x0001e72e                .line.collisionCat7_GroundPound__7dMeteorFP13ActivePhysicsP13ActivePhysics
                0x0001e756                .line.onCreate__7dMeteorFv
                0x0001e8c8                .line.onDelete__7dMeteorFv
                0x0001e8dc                .line.onExecute__7dMeteorFv
                0x0001e940                .line.onDraw__7dMeteorFv
                0x0001e972                .line.updateModelMatrices__7dMeteorFv
                0x0001e9b8                .line.kill__7dMeteorFv
                0x0001e9f4                .line.build__14daElectricLineFv
                0x0001ea1c                .line.onCreate__14daElectricLineFv
                0x0001eab2                .line.onDelete__14daElectricLineFv
                0x0001eac6                .line.onExecute__14daElectricLineFv
                0x0001eaee                .line.onDraw__14daElectricLineFv
                0x0001eb02                .line.beginState_Activate__14daElectricLineFv
                0x0001eb2a                .line.executeState_Activate__14daElectricLineFv
                0x0001eb70                .line.endState_Activate__14daElectricLineFv
                0x0001eb7a                .line.beginState_Deactivate__14daElectricLineFv
                0x0001ebac                .line.executeState_Deactivate__14daElectricLineFv
                0x0001ebde                .line.endState_Deactivate__14daElectricLineFv
                0x0001ebfc                .line.beginState_Die__14daElectricLineFv
                0x0001ec06                .line.executeState_Die__14daElectricLineFv
                0x0001ec10                .line.endState_Die__14daElectricLineFv
                0x0001ec1a                .line.build__13dThunderCloudFv
                0x0001ec42                .line.powBlockActivated__13dThunderCloudFb
                0x0001ec4c                .line.playerCollision__13dThunderCloudFP13ActivePhysicsP13ActivePhysics
                0x0001ecc4                .line.yoshiCollision__13dThunderCloudFP13ActivePhysicsP13ActivePhysics
                0x0001ecce                .line.collisionCatD_Drill__13dThunderCloudFP13ActivePhysicsP13ActivePhysics
                0x0001ecd8                .line.collisionCat7_GroundPound__13dThunderCloudFP13ActivePhysicsP13ActivePhysics
                0x0001ece2                .line.collisionCat7_GroundPoundYoshi__13dThunderCloudFP13ActivePhysicsP13ActivePhysics
                0x0001ecec                .line.collisionCatA_PenguinMario__13dThunderCloudFP13ActivePhysicsP13ActivePhysics
                0x0001ecf6                .line.collisionCat5_Mario__13dThunderCloudFP13ActivePhysicsP13ActivePhysics
                0x0001ed00                .line.collisionCat11_PipeCannon__13dThunderCloudFP13ActivePhysicsP13ActivePhysics
                0x0001ed0a                .line.collisionCat1_Fireball_E_Explosion__13dThunderCloudFP13ActivePhysicsP13ActivePhysics
                0x0001ed14                .line.collisionCat14_YoshiFire__13dThunderCloudFP13ActivePhysicsP13ActivePhysics
                0x0001ed1e                .line.collisionCat13_Hammer__13dThunderCloudFP13ActivePhysicsP13ActivePhysics
                0x0001ed5a                .line.collisionCat9_RollingObject__13dThunderCloudFP13ActivePhysicsP13ActivePhysics
                0x0001ed82                .line.collisionCat3_StarPower__13dThunderCloudFP13ActivePhysicsP13ActivePhysics
                0x0001edbe                .line._vf148__13dThunderCloudFv
                0x0001ede6                .line._vf14C__13dThunderCloudFv
                0x0001ee0e                .line.CreateIceActors__13dThunderCloudFv
                0x0001ee54                .line.dieFall_Begin__13dThunderCloudFv
                0x0001ee86                .line.dieFall_Execute__13dThunderCloudFv
                0x0001ef8a                .line.bindAnimChr_and_setUpdateRate__13dThunderCloudFPCciff
                0x0001efc6                .line.onCreate__13dThunderCloudFv
                0x0001f142                .line.onDelete__13dThunderCloudFv
                0x0001f156                .line.onExecute__13dThunderCloudFv
                0x0001f1ec                .line.onDraw__13dThunderCloudFv
                0x0001f214                .line.updateModelMatrices__13dThunderCloudFv
                0x0001f25a                .line.beginState_Follow__13dThunderCloudFv
                0x0001f2aa                .line.executeState_Follow__13dThunderCloudFv
                0x0001f386                .line.endState_Follow__13dThunderCloudFv
                0x0001f39a                .line.beginState_Wait__13dThunderCloudFv
                0x0001f3ea                .line.executeState_Wait__13dThunderCloudFv
                0x0001f458                .line.endState_Wait__13dThunderCloudFv
                0x0001f48a                .line.lightningStrike__13dThunderCloudFv
                0x0001f534                .line.beginState_Lightning__13dThunderCloudFv
                0x0001f656                .line.executeState_Lightning__13dThunderCloudFv
                0x0001f7be                .line.endState_Lightning__13dThunderCloudFv
                0x0001f7d2                .line.build__12dMakeYourOwnFv
                0x0001f7fa                .line.setupAnim__12dMakeYourOwnFPCcf
                0x0001f854                .line.setupModel__12dMakeYourOwnFPCcPCcPCc
                0x0001f886                .line.onCreate__12dMakeYourOwnFv
                0x000202cc                .line.onDelete__12dMakeYourOwnFv
                0x000202e0                .line.onExecute__12dMakeYourOwnFv
                0x00020326                .line.onDraw__12dMakeYourOwnFv
                0x00020394                .line.playerCollision__14dChallengeStarFP13ActivePhysicsP13ActivePhysics
                0x0002040c                .line.yoshiCollision__14dChallengeStarFP13ActivePhysicsP13ActivePhysics
                0x00020416                .line.collisionCat3_StarPower__14dChallengeStarFP13ActivePhysicsP13ActivePhysics
                0x0002043e                .line.collisionCat9_RollingObject__14dChallengeStarFP13ActivePhysicsP13ActivePhysics
                0x00020466                .line.collisionCat7_GroundPound__14dChallengeStarFP13ActivePhysicsP13ActivePhysics
                0x0002048e                .line.collisionCat7_GroundPoundYoshi__14dChallengeStarFP13ActivePhysicsP13ActivePhysics
                0x000204b6                .line.collisionCatA_PenguinMario__14dChallengeStarFP13ActivePhysicsP13ActivePhysics
                0x000204de                .line.build__14dChallengeStarFv
                0x00020506                .line.onCreate__14dChallengeStarFv
                0x00020650                .line.onDelete__14dChallengeStarFv
                0x00020664                .line.onDraw__14dChallengeStarFv
                0x0002068c                .line.updateModelMatrices__14dChallengeStarFv
                0x000206d2                .line.onExecute__14dChallengeStarFv
                0x0002070e                .line.BonusMusicPlayer__Fi
                0x0002074a                .line.build__10dSongPrizeFv
                0x00020772                .line.onCreate__10dSongPrizeFv
                0x00020830                .line.onDelete__10dSongPrizeFv
                0x00020844                .line.onExecute__10dSongPrizeFv
                0x0002086c                .line.beforeDraw__10dSongPrizeFv
                0x00020876                .line.onDraw__10dSongPrizeFv
                0x0002090c                .line.beginState_Wait__10dSongPrizeFv
                0x00020916                .line.executeState_Wait__10dSongPrizeFv
                0x00020920                .line.endState_Wait__10dSongPrizeFv
                0x0002092a                .line.beginState_Shrink__10dSongPrizeFv
                0x000209a2                .line.executeState_Shrink__10dSongPrizeFv
                0x000209fc                .line.endState_Shrink__10dSongPrizeFv
                0x00020a06                .line.beginState_Spin__10dSongPrizeFv
                0x00020a42                .line.executeState_Spin__10dSongPrizeFv
                0x00020a88                .line.endState_Spin__10dSongPrizeFv
                0x00020a92                .line.build__10dSingAlongFv
                0x00020ace                .line.onCreate__10dSingAlongFv
                0x00020c36                .line.onExecute__10dSingAlongFv
                0x00020c5e                .line.onDraw__10dSingAlongFv
                0x00020c68                .line.onDelete__10dSingAlongFv
                0x00020c86                .line.RegisterNote__10dSingAlongFi
                0x00020cfe                .line.beginState_Intro__10dSingAlongFv
                0x00020d08                .line.endState_Intro__10dSingAlongFv
                0x00020d12                .line.executeState_Intro__10dSingAlongFv
                0x00020d3a                .line.beginState_Prize__10dSingAlongFv
                0x00020d4e                .line.executeState_Prize__10dSingAlongFv
                0x00020e5c                .line.endState_Prize__10dSingAlongFv
                0x00020e66                .line.beginState_Call__10dSingAlongFv
                0x00020e84                .line.executeState_Call__10dSingAlongFv
                0x00020f24                .line.endState_Call__10dSingAlongFv
                0x00020f42                .line.beginState_Response__10dSingAlongFv
                0x00020f6a                .line.executeState_Response__10dSingAlongFv
                0x00020fb0                .line.endState_Response__10dSingAlongFv
                0x00020fba                .line.beginState_Mistake__10dSingAlongFv
                0x00021032                .line.executeState_Mistake__10dSingAlongFv
                0x000210e6                .line.endState_Mistake__10dSingAlongFv
                0x00021140                .line.beginState_Failure__10dSingAlongFv
                0x00021168                .line.executeState_Failure__10dSingAlongFv
                0x00021348                .line.endState_Failure__10dSingAlongFv
                0x00021352                .line.beginState_Win__10dSingAlongFv
                0x0002137a                .line.executeState_Win__10dSingAlongFv
                0x00021546                .line.endState_Win__10dSingAlongFv
                0x00021550                .line.addPowerups__10dSingAlongFv
                0x000215d2                .line.build__10dSongBlockFv
                0x000215fa                .line.onCreate__10dSongBlockFv
                0x000217bc                .line.onDelete__10dSongBlockFv
                0x000217e4                .line.onExecute__10dSongBlockFv
                0x0002187a                .line.beforeDraw__10dSongBlockFv
                0x000218a2                .line.onDraw__10dSongBlockFv
                0x000219b0                .line.blockWasHit__10dSongBlockFb
                0x00021a96                .line.calledWhenUpMoveExecutes__10dSongBlockFv
                0x00021abe                .line.calledWhenDownMoveExecutes__10dSongBlockFv
                0x00021ae6                .line.glow__10dSongBlockFv
                0x00021b0e                .line.unglow__10dSongBlockFv
                0x00021b36                .line.beginState_Wait__10dSongBlockFv
                0x00021b40                .line.endState_Wait__10dSongBlockFv
                0x00021b4a                .line.executeState_Wait__10dSongBlockFv
                0x00021bd6                .line.build__10dGoombaPieFv
                0x00021bfe                .line.pieCollisionCallback__FP13ActivePhysicsP13ActivePhysics
                0x00021c30                .line.playerCollision__10dGoombaPieFP13ActivePhysicsP13ActivePhysics
                0x00021d02                .line.spriteCollision__10dGoombaPieFP13ActivePhysicsP13ActivePhysics
                0x00021d0c                .line.yoshiCollision__10dGoombaPieFP13ActivePhysicsP13ActivePhysics
                0x00021d16                .line.collisionCatD_Drill__10dGoombaPieFP13ActivePhysicsP13ActivePhysics
                0x00021d20                .line.collisionCat7_GroundPound__10dGoombaPieFP13ActivePhysicsP13ActivePhysics
                0x00021d2a                .line.collisionCat7_GroundPoundYoshi__10dGoombaPieFP13ActivePhysicsP13ActivePhysics
                0x00021d34                .line.collisionCat9_RollingObject__10dGoombaPieFP13ActivePhysicsP13ActivePhysics
                0x00021d3e                .line.collisionCat3_StarPower__10dGoombaPieFP13ActivePhysicsP13ActivePhysics
                0x00021d48                .line.collisionCat13_Hammer__10dGoombaPieFP13ActivePhysicsP13ActivePhysics
                0x00021d52                .line.collisionCatA_PenguinMario__10dGoombaPieFP13ActivePhysicsP13ActivePhysics
                0x00021d5c                .line.collisionCat14_YoshiFire__10dGoombaPieFP13ActivePhysicsP13ActivePhysics
                0x00021d66                .line.collisionCat1_Fireball_E_Explosion__10dGoombaPieFP13ActivePhysicsP13ActivePhysics
                0x00021d70                .line._vf148__10dGoombaPieFv
                0x00021d98                .line._vf14C__10dGoombaPieFv
                0x00021dc0                .line.CreateIceActors__10dGoombaPieFv
                0x00021dfc                .line.addScoreWhenHit__10dGoombaPieFPv
                0x00021e06                .line.onCreate__10dGoombaPieFv
                0x00021f28                .line.onDelete__10dGoombaPieFv
                0x00021f3c                .line.onExecute__10dGoombaPieFv
                0x00021f78                .line.onDraw__10dGoombaPieFv
                0x0002200e                .line.beginState_Follow__10dGoombaPieFv
                0x00022018                .line.executeState_Follow__10dGoombaPieFv
                0x00022022                .line.endState_Follow__10dGoombaPieFv
                0x0002202c                .line.beginState_Burst__10dGoombaPieFv
                0x00022068                .line.executeState_Burst__10dGoombaPieFv
                0x00022086                .line.endState_Burst__10dGoombaPieFv
                0x00022090                .line.GetRegionAndVersion__Fv
                0x00022112                .line.GetErrorDescription__FUs
                0x0002213a                .line.PrintContext__FUsPvUiUi
                0x000221da                .line.translateActorID__F6Actors
                0x00022216                .line.adjustID__F6Actors
                0x00022248                .line.getNsmbwVer__Fv
                0x000222d4                .line.__dt__14daMegaGoomba_cFv
                0x000222d4                .line.__dt__9daMrSun_cFv
                0x000222d4                .line.__dt__12dMakeYourOwnFv
                0x000222d4                .line.__dt__9dBombDropFv
                0x000222d4                .line.isOutOfView__13dCreditsMgr_cFv
                0x000222d4                .line.__dt__13daShyGuyGiantFv
                0x000222d4                .line.__dt__12dEndingMgr_cFv
                0x000222d4                .line.__dt__18SpriteSpawnerTimedFv
                0x000222d4                .line.__dt__8daShyGuyFv
                0x000222d4                .line.__dt__13APDebugDrawerFv
                0x000222d4                .line.__dt__15daCaptainBowserFv
                0x000222d4                .line.__dt__14dChallengeStarFv
                0x000222d4                .line.__dt__13dPalaceDude_cFv
                0x000222d4                .line.__dt__13dWMStarCoin_cFv
                0x000222d4                .line.__dt__10dSongBlockFv
                0x000222d4                .line.__dt__10dSongPrizeFv
                0x000222d4                .line.__dt__9dWMShop_cFv
                0x000222d4                .line.__dt__11daClownShotFv
                0x000222d4                .line.__dt__8daWrenchFv
                0x000222d4                .line.__dt__16daEnEventBlock_cFv
                0x000222d4                .line.__dt__12daWMPlayer_cFv
                0x000222d4                .line.__dt__10daPodoubleFv
                0x000222d4                .line.__dt__12dDroppedBombFv
                0x000222d4                .line.__dt__14dScKoopatlas_cFv
                0x000222d4                .line.__dt__13daFireLaser_cFv
                0x000222d4                .line.__dt__8dWMHud_cFv
                0x000222d4                .line.__dt__7dMeteorFv
                0x000222d4                .line.__dt__13daKoopaBreathFv
                0x000222d4                .line.__dt__11daSamurshaiFv
                0x000222d4                .line.__dt__12daKoopaThrowFv
                0x000222d4                .line.__dt__10dGoombaPieFv
                0x000222d4                .line.__dt__14dWorldCamera_cFv
                0x000222d4                .line.__dt__16dSpriteSpawner_cFv
                0x000222d4                .line.__dt__8dWMMap_cFv
                0x000222d4                .line.__dt__10daBalboa_cFv
                0x000222d4                .line.__dt__11EffectVideoFv
                0x000222d4                .line.__dt__19daEnMagicPlatform_cFv
                0x000222d4                .line.__dt__13daBonePiece_cFv
                0x000222d4                .line.__dt__13dCreditsMgr_cFv
                0x000222d4                .line.__dt__15daEnMegaDosun_cFv
                0x000222d4                .line.__dt__13daFuzzyBear_cFv
                0x000222d4                .line.__dt__10daRamboo_cFv
                0x000222d4                .line.__dt__14daElectricLineFv
                0x000222d4                .line.__dt__13dThunderCloudFv
                0x000222d4                .line.__dt__14daEnMsgBlock_cFv
                0x000222d4                .line.__dt__16dMsgBoxManager_cFv
                0x000222d4                .line.__dt__10dSingAlongFv
                0x000222d4                .line.__dt__9daDreidelFv
                0x000222d4                .line.__dt__14daFakeStarCoinFv
                0x000222d4                .line.__dt__14daEnChestnut_cFv
                0x000222d4                .line.__dt__8daTopmanFv
                0x000222d4                .line.__dt__15daEnFlipBlock_cFv
                0x000222de                .line.afterExecute__10dSingAlongFi
                0x000229d2                .line.__dt__27dState_c<15daCaptainBowser>Fv
                0x000229d2                .line.__dt__20dState_c<9daMrSun_c>Fv
                0x000229d2                .line.__dt__25dState_c<13daFuzzyBear_c>Fv
                0x000229d2                .line.__dt__26dState_c<14dScKoopatlas_c>Fv
                0x000229d2                .line.__dt__27dState_c<15daEnMegaDosun_c>Fv
                0x000229d2                .line.__dt__28dState_c<16daEnEventBlock_c>Fv
                0x000229d2                .line.__dt__27dState_c<15daEnFlipBlock_c>Fv
                0x000229d2                .line.__dt__22dState_c<10daRamboo_c>Fv
                0x000229d2                .line.__dt__19dState_c<8daShyGuy>Fv
                0x000229d2                .line.__dt__22dState_c<10daPodouble>Fv
                0x000229d2                .line.__dt__26dState_c<14daElectricLine>Fv
                0x000229d2                .line.__dt__Q34nw4r3snd15StrmSoundHandleFv
                0x000229d2                .line.__dt__25dState_c<13dWMStarCoin_c>Fv
                0x000229d2                .line.__dt__25dState_c<13daFireLaser_c>Fv
                0x000229d2                .line.__dt__22dState_c<10dSongPrize>Fv
                0x000229d2                .line.__dt__25dState_c<13dThunderCloud>Fv
                0x000229d2                .line.__dt__20dState_c<9daDreidel>Fv
                0x000229d2                .line.__dt__24dState_c<12daKoopaThrow>Fv
                0x000229d2                .line.__dt__22dState_c<10daBalboa_c>Fv
                0x000229d2                .line.__dt__25dState_c<13daShyGuyGiant>Fv
                0x000229d2                .line.__dt__28dState_c<16dMsgBoxManager_c>Fv
                0x000229d2                .line.__dt__19dState_c<8daWrench>Fv
                0x000229d2                .line.__dt__22dState_c<10dSingAlong>Fv
                0x000229d2                .line.__dt__24dState_c<12dEndingMgr_c>Fv
                0x000229d2                .line.__dt__20dState_c<9dWMShop_c>Fv
                0x000229d2                .line.__dt__19dState_c<8daTopman>Fv
                0x000229d2                .line.__dt__22dState_c<10dGoombaPie>Fv
                0x000229d2                .line.__dt__26dState_c<14daEnMsgBlock_c>Fv
                0x000229d2                .line.__dt__23dState_c<11daSamurshai>Fv
                0x000229d2                .line.__dt__26dState_c<14daMegaGoomba_c>Fv
                0x000229d2                .line.__dt__26dState_c<14daEnChestnut_c>Fv
                0x000229d2                .line.__dt__22dState_c<10dSongBlock>Fv
                0x000229e4                .line.sqrtf__Ff
                0x00022a14                .line.__dt__Q34nw4r3snd11SoundHandleFv
                0x00022a1e                .line.executeNextStateThisTick__36dStateWrapperBase_c<13dActorState_c>Fv
                0x00022a28                .line.setState__36dStateWrapperBase_c<13dActorState_c>FP12dStateBase_c
                0x00022a32                .line.getCurrentState__33dStateWrapperBase_c<10daPlBase_c>Fv
                0x00022a3c                .line.__ct__Q34nw4r3snd11SoundHandleFv
                0x00022a46                .line.__dt__33dStateWrapper_c<14dScKoopatlas_c>Fv
                0x00022a50                .line.__dt__37dStateWrapperBase_c<14dScKoopatlas_c>Fv
                0x00022a5a                .line.setState__37dStateWrapperBase_c<14dScKoopatlas_c>FP12dStateBase_c
                0x00022a64                .line.getCurrentState__37dStateWrapperBase_c<14dScKoopatlas_c>Fv
                0x00022a6e                .line.execute__37dStateWrapperBase_c<14dScKoopatlas_c>Fv
                0x00022a78                .line.__dt__27dStateWrapper_c<9dWMShop_c>Fv
                0x00022a82                .line.__dt__31dStateWrapperBase_c<9dWMShop_c>Fv
                0x00022a8c                .line.execute__31dStateWrapperBase_c<9dWMShop_c>Fv
                0x00022a96                .line.setState__31dStateWrapperBase_c<9dWMShop_c>FP12dStateBase_c
                0x00022aa0                .line.__dt__32dStateWrapper_c<13dWMStarCoin_c>Fv
                0x00022aaa                .line.__dt__36dStateWrapperBase_c<13dWMStarCoin_c>Fv
                0x00022ab4                .line.setState__36dStateWrapperBase_c<13dWMStarCoin_c>FP12dStateBase_c
                0x00022abe                .line.getCurrentState__36dStateWrapperBase_c<13dWMStarCoin_c>Fv
                0x00022ac8                .line.execute__36dStateWrapperBase_c<13dWMStarCoin_c>Fv
                0x00022ad2                .line.__dt__35dStateWrapper_c<16dMsgBoxManager_c>Fv
                0x00022adc                .line.__dt__39dStateWrapperBase_c<16dMsgBoxManager_c>Fv
                0x00022ae6                .line.execute__39dStateWrapperBase_c<16dMsgBoxManager_c>Fv
                0x00022af0                .line.setState__39dStateWrapperBase_c<16dMsgBoxManager_c>FP12dStateBase_c
                0x00022afa                .line.__dt__29dStateWrapper_c<10dSingAlong>Fv
                0x00022b04                .line.__dt__33dStateWrapperBase_c<10dSingAlong>Fv
                0x00022b0e                .line.setState__33dStateWrapperBase_c<10dSingAlong>FP12dStateBase_c
                0x00022b18                .line.execute__33dStateWrapperBase_c<10dSingAlong>Fv
                0x00022b22                .line.getPreviousState__31dStateWrapperBase_c<9dWMShop_c>Fv
                0x00022b2c                .line.getCurrentState__31dStateWrapperBase_c<9dWMShop_c>Fv
                0x00022b36                .line.getNextState__31dStateWrapperBase_c<9dWMShop_c>Fv
                0x00022b40                .line.getCurrentStateMethodExecutor__31dStateWrapperBase_c<9dWMShop_c>Fv
                0x00022b4a                .line.executeNextStateThisTick__31dStateWrapperBase_c<9dWMShop_c>Fv
                0x00022b54                .line.endCurrentState__31dStateWrapperBase_c<9dWMShop_c>Fv
                0x00022b5e                .line.ensureStateHasBegun__31dStateWrapperBase_c<9dWMShop_c>Fv
                0x00022b68                .line.getPreviousState__36dStateWrapperBase_c<13dWMStarCoin_c>Fv
                0x00022b72                .line.getNextState__36dStateWrapperBase_c<13dWMStarCoin_c>Fv
                0x00022b7c                .line.getCurrentStateMethodExecutor__36dStateWrapperBase_c<13dWMStarCoin_c>Fv
                0x00022b86                .line.executeNextStateThisTick__36dStateWrapperBase_c<13dWMStarCoin_c>Fv
                0x00022b90                .line.endCurrentState__36dStateWrapperBase_c<13dWMStarCoin_c>Fv
                0x00022b9a                .line.ensureStateHasBegun__36dStateWrapperBase_c<13dWMStarCoin_c>Fv
                0x00022ba4                .line.getPreviousState__37dStateWrapperBase_c<14dScKoopatlas_c>Fv
                0x00022bae                .line.getNextState__37dStateWrapperBase_c<14dScKoopatlas_c>Fv
                0x00022bb8                .line.getCurrentStateMethodExecutor__37dStateWrapperBase_c<14dScKoopatlas_c>Fv
                0x00022bc2                .line.executeNextStateThisTick__37dStateWrapperBase_c<14dScKoopatlas_c>Fv
                0x00022bcc                .line.endCurrentState__37dStateWrapperBase_c<14dScKoopatlas_c>Fv
                0x00022bd6                .line.ensureStateHasBegun__37dStateWrapperBase_c<14dScKoopatlas_c>Fv
                0x00022be0                .line.getPreviousState__39dStateWrapperBase_c<16dMsgBoxManager_c>Fv
                0x00022bea                .line.getCurrentState__39dStateWrapperBase_c<16dMsgBoxManager_c>Fv
                0x00022bf4                .line.getNextState__39dStateWrapperBase_c<16dMsgBoxManager_c>Fv
                0x00022bfe                .line.getCurrentStateMethodExecutor__39dStateWrapperBase_c<16dMsgBoxManager_c>Fv
                0x00022c08                .line.executeNextStateThisTick__39dStateWrapperBase_c<16dMsgBoxManager_c>Fv
                0x00022c12                .line.endCurrentState__39dStateWrapperBase_c<16dMsgBoxManager_c>Fv
                0x00022c1c                .line.ensureStateHasBegun__39dStateWrapperBase_c<16dMsgBoxManager_c>Fv
                0x00022c26                .line.getPreviousState__33dStateWrapperBase_c<10dSingAlong>Fv
                0x00022c30                .line.getCurrentState__33dStateWrapperBase_c<10dSingAlong>Fv
                0x00022c3a                .line.getNextState__33dStateWrapperBase_c<10dSingAlong>Fv
                0x00022c44                .line.getCurrentStateMethodExecutor__33dStateWrapperBase_c<10dSingAlong>Fv
                0x00022c4e                .line.executeNextStateThisTick__33dStateWrapperBase_c<10dSingAlong>Fv
                0x00022c58                .line.endCurrentState__33dStateWrapperBase_c<10dSingAlong>Fv
                0x00022c62                .line.ensureStateHasBegun__33dStateWrapperBase_c<10dSingAlong>Fv
                0x00022c6c                .line.beginSomething__12daBossDemo_cFv
                0x00022c76                .line.endSomething__12daBossDemo_cFv
                0x00022c80                .line.getIdOfOtherActor__12daBossDemo_cFv
                0x00022c8a                .line.setIdOfOtherActor__12daBossDemo_cFi
                0x00022c94                .line.vf128__12daBossDemo_cFv
                0x00022c9e                .line.justReturnField3D4_decidesIfEndBattle__12daBossDemo_cFv
                0x00022ca8                .line.vf130__12daBossDemo_cFv
                0x00022cb2                .line.getActorPointerForSomething__12daBossDemo_cFv
                0x00022cce                .line.executeNextStateThisTick__15dStateMgrBase_cFv
                0x00022ce2                .line.getCurrentState__15dStateMgrBase_cFv
                0x00022cf6                .line.__dt__11dStateMgr_cFv
                0x00022d00                .line.__dt__34dStateExecutor_c<14dScKoopatlas_c>Fv
                0x00022d0a                .line.__dt__40dStateMethodExecutor_c<14dScKoopatlas_c>Fv
                0x00022d14                .line.__dt__26dStateMethodExecutorBase_cFv
                0x00022d1e                .line.__dt__20dStateExecutorBase_cFv
                0x00022d28                .line.__dt__17dStatePointless_cFv
                0x00022d32                .line.__dt__28dStateExecutor_c<9dWMShop_c>Fv
                0x00022d3c                .line.__dt__34dStateMethodExecutor_c<9dWMShop_c>Fv
                0x00022d46                .line.__dt__33dStateExecutor_c<13dWMStarCoin_c>Fv
                0x00022d50                .line.__dt__39dStateMethodExecutor_c<13dWMStarCoin_c>Fv
                0x00022d5a                .line.__dt__36dStateExecutor_c<16dMsgBoxManager_c>Fv
                0x00022d64                .line.__dt__42dStateMethodExecutor_c<16dMsgBoxManager_c>Fv
                0x00022d6e                .line.__dt__30dStateExecutor_c<10dSingAlong>Fv
                0x00022d78                .line.__dt__36dStateMethodExecutor_c<10dSingAlong>Fv
                0x00022d82                .line.callEnd__34dStateMethodExecutor_c<9dWMShop_c>Fv
                0x00022d8c                .line.callExecute__34dStateMethodExecutor_c<9dWMShop_c>Fv
                0x00022d96                .line.callBegin__34dStateMethodExecutor_c<9dWMShop_c>Fv
                0x00022da0                .line.callEnd__39dStateMethodExecutor_c<13dWMStarCoin_c>Fv
                0x00022daa                .line.callExecute__39dStateMethodExecutor_c<13dWMStarCoin_c>Fv
                0x00022db4                .line.callBegin__39dStateMethodExecutor_c<13dWMStarCoin_c>Fv
                0x00022dbe                .line.callEnd__40dStateMethodExecutor_c<14dScKoopatlas_c>Fv
                0x00022dc8                .line.callExecute__40dStateMethodExecutor_c<14dScKoopatlas_c>Fv
                0x00022dd2                .line.callBegin__40dStateMethodExecutor_c<14dScKoopatlas_c>Fv
                0x00022ddc                .line.callEnd__42dStateMethodExecutor_c<16dMsgBoxManager_c>Fv
                0x00022de6                .line.callExecute__42dStateMethodExecutor_c<16dMsgBoxManager_c>Fv
                0x00022df0                .line.callBegin__42dStateMethodExecutor_c<16dMsgBoxManager_c>Fv
                0x00022dfa                .line.callEnd__36dStateMethodExecutor_c<10dSingAlong>Fv
                0x00022e04                .line.callExecute__36dStateMethodExecutor_c<10dSingAlong>Fv
                0x00022e0e                .line.callBegin__36dStateMethodExecutor_c<10dSingAlong>Fv
                0x00022e18                .line.clearMethodExecutor__28dStateExecutor_c<9dWMShop_c>FPP26dStateMethodExecutorBase_c
                0x00022e2c                .line.getMethodExecutorForState__28dStateExecutor_c<9dWMShop_c>FP12dStateBase_c
                0x00022e68                .line.clearMethodExecutor__33dStateExecutor_c<13dWMStarCoin_c>FPP26dStateMethodExecutorBase_c
                0x00022e7c                .line.getMethodExecutorForState__33dStateExecutor_c<13dWMStarCoin_c>FP12dStateBase_c
                0x00022eb8                .line.clearMethodExecutor__34dStateExecutor_c<14dScKoopatlas_c>FPP26dStateMethodExecutorBase_c
                0x00022ecc                .line.getMethodExecutorForState__34dStateExecutor_c<14dScKoopatlas_c>FP12dStateBase_c
                0x00022f08                .line.clearMethodExecutor__36dStateExecutor_c<16dMsgBoxManager_c>FPP26dStateMethodExecutorBase_c
                0x00022f1c                .line.getMethodExecutorForState__36dStateExecutor_c<16dMsgBoxManager_c>FP12dStateBase_c
                0x00022f58                .line.clearMethodExecutor__30dStateExecutor_c<10dSingAlong>FPP26dStateMethodExecutorBase_c
                0x00022f6c                .line.getMethodExecutorForState__30dStateExecutor_c<10dSingAlong>FP12dStateBase_c
                0x00022fa8                .line.getPreviousState__15dStateMgrBase_cFv
                0x00022fbc                .line.getNextState__15dStateMgrBase_cFv
                0x00022fd0                .line.getCurrentStateMethodExecutor__15dStateMgrBase_cFv
                0x00022fe4                .line.returnsOne__17dStatePointless_cFv
                0x00023000                .line.returnUnknown__Q23m3d6proc_cFv
                0x0002301c                .line.beforeExecute__16dMsgBoxManager_cFv
                0x00023026                .line.afterExecute__16dMsgBoxManager_cFi
                0x00023030                .line.beforeDraw__16dMsgBoxManager_cFv
                0x0002303a                .line.afterDraw__16dMsgBoxManager_cFi

.debug          0x00000000    0xaf474
 .debug         0x00000000    0xaf474 tmp\fasthack.o
                0x000001a7                .dwarf.0002.EGG::Allocator::Allocator
                0x00000370                .dwarf.0002.mAllocator_c::mAllocator_c
                0x00000509                .dwarf.0002.mHeapAllocator_c::mHeapAllocator_c
                0x0000062b                .dwarf.0002.APDebugDrawer::APDebugDrawer
                0x00000724                .dwarf.0006.APDebugDraw__Fv
                0x0000076c                .dwarf.0006.__ct__13APDebugDrawerFv
                0x000007e5                .dwarf.0006.setMeUp__13APDebugDrawerFv
                0x0000085a                .dwarf.0006.drawMe__13APDebugDrawerFv
                0x000008c7                .dwarf.0006.drawOpa__13APDebugDrawerFv
                0x000009ac                .dwarf.0013.nw4r::g3d::CameraData::CameraData
                0x000012c5                .dwarf.0013.nw4r::g3d::Camera::PostureInfo::PostureInfo
                0x00001503                .dwarf.0002.nw4r::g3d::Camera::Camera
                0x000015bb                .dwarf.0013.TreeNode::TreeNode
                0x000016da                .dwarf.0013.LinkListEntry::LinkListEntry
                0x000017a9                .dwarf.0013.OrderedLinkListEntry::OrderedLinkListEntry
                0x00001b53                .dwarf.0002.fBase_c::fBase_c
                0x00001f91                .dwarf.0002.dBase_c::dBase_c
                0x0000215d                .dwarf.0002.dActor_c::dActor_c
                0x000024ca                .dwarf.0013.sensorBase_s::sensorBase_s
                0x0000259f                .dwarf.0013.Physics::Unknown::Unknown
                0x00002a46                .dwarf.0013.Physics::Info::Info
                0x00002cde                .dwarf.0002.Physics::Physics
                0x0000363d                .dwarf.0013.collisionMgr_c::slopeParams_s::slopeParams_s
                0x000038f4                .dwarf.0013.vLine_s::vLine_s
                0x000039e0                .dwarf.0013.hLine_s::hLine_s
                0x0000417a                .dwarf.0002.collisionMgr_c::collisionMgr_c
                0x0000539a                .dwarf.0002.dStageActor_c::dStageActor_c
                0x00005f23                .dwarf.0002.ActivePhysics::ActivePhysics
                0x00006452                .dwarf.0002.BasicCollider::BasicCollider
                0x000068c2                .dwarf.0006.drawXlu__13APDebugDrawerFv
                0x00007288                .dwarf.0013._gx_texobj::_gx_texobj
                0x000073f2                .dwarf.0002.mTexture_c::mTexture_c
                0x000075c1                .dwarf.0007.efbTexture
                0x000075e9                .dwarf.0007.getNextEFB
                0x0000760f                .dwarf.0007.thing
                0x00007653                .dwarf.0007.CreditsFileList
                0x00007680                .dwarf.0007.instance__13dCreditsMgr_c
                0x000077a7                .dwarf.0002.dStateWrapper_c<13dActorState_c>::dStateWrapper_c
                0x000078bf                .dwarf.0002.dActorState_c::dActorState_c
                0x000079e8                .dwarf.0002.m2d::Base_c::Base_c
                0x00007ad0                .dwarf.0002.nw4r::ut::LinkListNode::LinkListNode
                0x00007b75                .dwarf.0002.nw4r::ut::LinkList::LinkList
                0x00007c64                .dwarf.0013.TPLTexHeader::TPLTexHeader
                0x00007eaa                .dwarf.0013.TPLPalHeader::TPLPalHeader
                0x00007f22                .dwarf.0013.TPLImage::TPLImage
                0x00007fc9                .dwarf.0013.TPLPalette::TPLPalette
                0x000080d3                .dwarf.0002.nw4r::lyt::TexMap::TexMap
                0x000082e2                .dwarf.0002.nw4r::lyt::Material::Material
                0x00008422                .dwarf.0002.nw4r::lyt::AnimationLink::AnimationLink
                0x000084a0                .dwarf.0002.nw4r::ut::Rect::Rect
                0x000085da                .dwarf.0002.nw4r::lyt::DrawInfo::DrawInfo
                0x00008840                .dwarf.0002.nw4r::lyt::AnimTransform::AnimTransform
                0x000088d9                .dwarf.0002.nw4r::lyt::AnimResource::AnimResource
                0x00008c8d                .dwarf.0002.nw4r::ut::Color::Color
                0x00008e76                .dwarf.0002.nw4r::lyt::Pane::Pane
                0x000091f7                .dwarf.0002.nw4r::lyt::GroupContainer::GroupContainer
                0x00009248                .dwarf.0002.nw4r::ut::TagProcessorBase<w>::TagProcessorBase
                0x00009441                .dwarf.0002.nw4r::lyt::ResourceAccessor::ResourceAccessor
                0x00009662                .dwarf.0002.nw4r::lyt::Layout::Layout
                0x000098f7                .dwarf.0002.nw4r::lyt::ArcResourceAccessor::ArcResourceAccessor
                0x00009acb                .dwarf.0002.m2d::ResAcc_c::ResAcc_c
                0x00009d24                .dwarf.0002.nw4r::lyt::detail::TexCoordAry::TexCoordAry
                0x00009f85                .dwarf.0002.nw4r::lyt::Picture::Picture
                0x0000a2c2                .dwarf.0002.nw4r::lyt::TextBox::TextBox
                0x0000a641                .dwarf.0002.m2d::EmbedLayoutBase_c::EmbedLayoutBase_c
                0x0000a973                .dwarf.0002.m2d::ResAccLoader_c::ResAccLoader_c
                0x0000aa12                .dwarf.0002.nw4r::lyt::Group::Group
                0x0000aa5a                .dwarf.0013.m2d::AnmResHandler_c::Thing::Thing
                0x0000abfc                .dwarf.0002.m2d::AnmResHandler_c::AnmResHandler_c
                0x0000ae16                .dwarf.0002.m2d::FrameCtrl_c::FrameCtrl_c
                0x0000afba                .dwarf.0002.m2d::Anm_c::Anm_c
                0x0000b571                .dwarf.0002.m2d::EmbedLayout_c::EmbedLayout_c
                0x0000b754                .dwarf.0013.danceInfo_s::danceInfo_s
                0x0000ba0c                .dwarf.0002.dCreditsMgr_c::dCreditsMgr_c
                0x0000c085                .dwarf.0006.build__13dCreditsMgr_cFv
                0x0000c0f8                .dwarf.0006.onCreate__13dCreditsMgr_cFv
                0x0000c1a7                .dwarf.0006.onDelete__13dCreditsMgr_cFv
                0x0000c256                .dwarf.0013.FireworkInfo::FireworkInfo
                0x0000c71e                .dwarf.0004.dPlayerInput_c::Flags
                0x0000c8af                .dwarf.0002.dPlayerInput_c::dPlayerInput_c
                0x0000cd58                .dwarf.0002.dStateWrapper_c<10daPlBase_c>::dStateWrapper_c
                0x0000cf77                .dwarf.0002.daPlBase_c::daPlBase_c
                0x0000d233                .dwarf.0002.dAcPy_c::dAcPy_c
                0x0000d2ad                .dwarf.0013.Point3d::Point3d
                0x0000d49b                .dwarf.0002.nw4r::snd::SoundHandle::SoundHandle
                0x0000d4e3                .dwarf.0006.onExecute__13dCreditsMgr_cFv
                0x0000d8e0                .dwarf.0006.onDraw__13dCreditsMgr_cFv
                0x0000db43                .dwarf.0006.loadLayout__13dCreditsMgr_cFv
                0x0000dcda                .dwarf.0006.loadTitleLayout__13dCreditsMgr_cFv
                0x0000ddbc                .dwarf.0013.dCourse_c::rail_s::rail_s
                0x0000df4e                .dwarf.0013.dCourse_c::tilesets_s::tilesets_s
                0x0000e07b                .dwarf.0013.dCourse_c::settings_s::settings_s
                0x0000e1bf                .dwarf.0013.dCourse_c::bounding_s::bounding_s
                0x0000e34e                .dwarf.0013.dCourse_c::unk_s::unk_s
                0x0000e42a                .dwarf.0013.dCourse_c::bg_s::bg_s
                0x0000e628                .dwarf.0013.dCourse_c::nextGoto_s::nextGoto_s
                0x0000e894                .dwarf.0013.dCourse_c::sprite_s::sprite_s
                0x0000ea12                .dwarf.0013.dCourse_c::load_s::load_s
                0x0000eaa9                .dwarf.0013.dCourse_c::zone_s::zone_s
                0x0000edd8                .dwarf.0013.dCourse_c::rect_s::rect_s
                0x0000ef06                .dwarf.0013.dCourse_c::cameraFlag_s::cameraFlag_s
                0x0000f0ce                .dwarf.0013.dCourse_c::railNode_s::railNode_s
                0x00010479                .dwarf.0002.mRect16::mRect16
                0x00010954                .dwarf.0002.dCourse_c::dCourse_c
                0x000112fa                .dwarf.0006.doAutoscroll__13dCreditsMgr_cFi
                0x000114d4                .dwarf.0006.animComplete__13dCreditsMgr_cFv
                0x00011e2e                .dwarf.0002.m3d::banm_c::banm_c
                0x00011fe2                .dwarf.0002.m3d::mdl_c::mdl_c
                0x00012103                .dwarf.0002.dPlayerModelBase_c::ModelThing::ModelThing
                0x00012268                .dwarf.0002.dPlayerModelBase_c::dPlayerModelBase_c
                0x00012a8d                .dwarf.0002.dPlayerModelHandler_c::dPlayerModelHandler_c
                0x00012b3d                .dwarf.0006.positionPlayers__13dCreditsMgr_cFv
                0x00012df7                .dwarf.0013.BgGmBase::manualZoomEntry_s::manualZoomEntry_s
                0x00012f24                .dwarf.0006.enableZoom__13dCreditsMgr_cFv
                0x00012f9e                .dwarf.0006.disableZoom__13dCreditsMgr_cFv
                0x0001308b                .dwarf.0006.playerWinAnim__13dCreditsMgr_cFv
                0x00013273                .dwarf.0006.playerLookUp__13dCreditsMgr_cFv
                0x000132ec                .dwarf.0006.theEnd__13dCreditsMgr_cFv
                0x00013dd0                .dwarf.0002.SaveBlock::SaveBlock
                0x0001462d                .dwarf.0006.exitStage__13dCreditsMgr_cFv
                0x00014700                .dwarf.0013.Point2d::Point2d
                0x00014762                .dwarf.0006._vf70__13dCreditsMgr_cFv
                0x00014885                .dwarf.0013._gx_rmodeobj::_gx_rmodeobj
                0x00014abd                .dwarf.0006.EFBMagic2__Fv
                0x00014c7e                .dwarf.0002.dFlipbookRenderer_c::dFlipbookRenderer_c
                0x00014fd8                .dwarf.0002.ClassWithCameraInfo::ClassWithCameraInfo
                0x0001545c                .dwarf.0006.execute__19dFlipbookRenderer_cFv
                0x000155c0                .dwarf.0006.drawXlu__19dFlipbookRenderer_cFv
                0x000159ab                .dwarf.0006.drawOpa__19dFlipbookRenderer_cFv
                0x00015aff                .dwarf.0006.loadNewBG__19dFlipbookRenderer_cFib
                0x00015cb7                .dwarf.0006.__ct__19dFlipbookRenderer_cFv
                0x00015d36                .dwarf.0006.__dt__19dFlipbookRenderer_cFv
                0x00015dd6                .dwarf.0006.LoadDanceValues__Fv
                0x00016078                .dwarf.0002.dEndingMgr_c::dEndingMgr_c
                0x000161d6                .dwarf.0006.build__12dEndingMgr_cFv
                0x0001624e                .dwarf.0006.onCreate__12dEndingMgr_cFv
                0x000162ce                .dwarf.0002.dState_c<13dActorState_c>::dState_c
                0x000163bf                .dwarf.0002.dStateMethodExecutor_c<13dActorState_c>::dStateMethodExecutor_c
                0x00016583                .dwarf.0002.dStateExecutor_c<13dActorState_c>::dStateExecutor_c
                0x000167b1                .dwarf.0002.dStateWrapperBase_c<13dActorState_c>::dStateWrapperBase_c
                0x00016a6b                .dwarf.0002.dStateMgrBase_c::dStateMgrBase_c
                0x00016d0b                .dwarf.0006.onDelete__12dEndingMgr_cFv
                0x00016db9                .dwarf.0006.init__12dEndingMgr_cFv
                0x000170a9                .dwarf.0002.dState_c<12dEndingMgr_c>::dState_c
                0x0001719a                .dwarf.0007.StateID_DemoSt__12dEndingMgr_c
                0x000171e7                .dwarf.0006.beginState_DemoSt__12dEndingMgr_cFv
                0x00017269                .dwarf.0006.endState_DemoSt__12dEndingMgr_cFv
                0x000172bd                .dwarf.0006.executeState_DemoSt__12dEndingMgr_cFv
                0x00017444                .dwarf.0007.StateID_GoRight__12dEndingMgr_c
                0x00017493                .dwarf.0006.beginState_GoRight__12dEndingMgr_cFv
                0x00017692                .dwarf.0006.endState_GoRight__12dEndingMgr_cFv
                0x000176e8                .dwarf.0006.executeState_GoRight__12dEndingMgr_cFv
                0x000177fe                .dwarf.0007.StateID_LookUp__12dEndingMgr_c
                0x0001784b                .dwarf.0006.beginState_LookUp__12dEndingMgr_cFv
                0x000178cd                .dwarf.0006.endState_LookUp__12dEndingMgr_cFv
                0x00017921                .dwarf.0006.executeState_LookUp__12dEndingMgr_cFv
                0x000179ad                .dwarf.0007.StateID_JumpOntoSwitch__12dEndingMgr_c
                0x00017a0a                .dwarf.0006.beginState_JumpOntoSwitch__12dEndingMgr_cFv
                0x00017b2f                .dwarf.0006.endState_JumpOntoSwitch__12dEndingMgr_cFv
                0x00017b93                .dwarf.0006.executeState_JumpOntoSwitch__12dEndingMgr_cFv
                0x00017c56                .dwarf.0002.dState_c<18dActorMultiState_c>::dState_c
                0x00017d47                .dwarf.0002.dStateMethodExecutor_c<18dActorMultiState_c>::dStateMethodExecutor_c
                0x00017f0b                .dwarf.0002.dStateExecutor_c<18dActorMultiState_c>::dStateExecutor_c
                0x00018139                .dwarf.0002.dStateWrapperBase_c<18dActorMultiState_c>::dStateWrapperBase_c
                0x000182f1                .dwarf.0002.dStateWrapper_c<18dActorMultiState_c>::dStateWrapper_c
                0x000184f4                .dwarf.0002.MultiStateMgrBase::MultiStateMgrBase
                0x0001864f                .dwarf.0002.MultiStateMgr::MultiStateMgr
                0x0001878c                .dwarf.0002.dActorMultiState_c::dActorMultiState_c
                0x0001883d                .dwarf.0013.EntityDeathInfo::EntityDeathInfo
                0x00018bcf                .dwarf.0002.freezeMgr_c::freezeMgr_c
                0x00019e42                .dwarf.0002.dEn_c::dEn_c
                0x0001a646                .dwarf.0002.m3d::fanm_c::fanm_c
                0x0001a86e                .dwarf.0002.m3d::anmChr_c::anmChr_c
                0x0001a952                .dwarf.0002.m3d::anmTexPat_c::child_c::child_c
                0x0001aca7                .dwarf.0002.m3d::anmTexPat_c::anmTexPat_c
                0x0001ae1b                .dwarf.0002.EGG::Effect7C::Effect7C
                0x0001b5d7                .dwarf.0002.EGG::Effect::Effect
                0x0001ba15                .dwarf.0002.mEf::effect_c::effect_c
                0x0001bc9e                .dwarf.0002.mEf::es2::es2
                0x0001bfdb                .dwarf.0002.daEnBossKoopaDemoPeach_c::daEnBossKoopaDemoPeach_c
                0x0001c33e                .dwarf.0007.StateID_ThanksPeach__12dEndingMgr_c
                0x0001c395                .dwarf.0006.beginState_ThanksPeach__12dEndingMgr_cFv
                0x0001c427                .dwarf.0006.endState_ThanksPeach__12dEndingMgr_cFv
                0x0001c500                .dwarf.0006.executeState_ThanksPeach__12dEndingMgr_cFv
                0x0001c755                .dwarf.0002.dState_c<10daPlBase_c>::dState_c
                0x0001c846                .dwarf.0002.dStateMethodExecutor_c<10daPlBase_c>::dStateMethodExecutor_c
                0x0001ca0a                .dwarf.0002.dStateExecutor_c<10daPlBase_c>::dStateExecutor_c
                0x0001cc38                .dwarf.0002.dStateWrapperBase_c<10daPlBase_c>::dStateWrapperBase_c
                0x0001cd0e                .dwarf.0006._vf70__12dEndingMgr_cFv
                0x0001cdc3                .dwarf.0007.ChestnutFileList
                0x0001d091                .dwarf.0002.dState_c<14daEnChestnut_c>::dState_c
                0x0001d182                .dwarf.0007.StateID_Idle__14daEnChestnut_c
                0x0001d1cd                .dwarf.0007.StateID_Shake__14daEnChestnut_c
                0x0001d21a                .dwarf.0007.StateID_Fall__14daEnChestnut_c
                0x0001d265                .dwarf.0007.StateID_Explode__14daEnChestnut_c
                0x0001d594                .dwarf.0002.daEnChestnut_c::daEnChestnut_c
                0x0001d874                .dwarf.0006.build__14daEnChestnut_cFv
                0x0001d9d7                .dwarf.0002.nw4r::g3d::ResMdl::ResMdl
                0x0001da95                .dwarf.0002.nw4r::g3d::ResAnmChr::ResAnmChr
                0x0001db47                .dwarf.0013.ActivePhysics::Info::Info
                0x0001dd0f                .dwarf.0006.onCreate__14daEnChestnut_cFv
                0x0001de85                .dwarf.0006.playAnimation__14daEnChestnut_cFPCcb
                0x0001df54                .dwarf.0006.onDelete__14daEnChestnut_cFv
                0x0001dfd0                .dwarf.0006.onExecute__14daEnChestnut_cFv
                0x0001e048                .dwarf.0006.onDraw__14daEnChestnut_cFv
                0x0001e0c0                .dwarf.0006.nearestPlayerDistance__14daEnChestnut_cFv
                0x0001e1dd                .dwarf.0006.beginState_Idle__14daEnChestnut_cFv
                0x0001e263                .dwarf.0006.endState_Idle__14daEnChestnut_cFv
                0x0001e2b5                .dwarf.0006.executeState_Idle__14daEnChestnut_cFv
                0x0001e365                .dwarf.0006.beginState_Shake__14daEnChestnut_cFv
                0x0001e417                .dwarf.0006.endState_Shake__14daEnChestnut_cFv
                0x0001e46b                .dwarf.0006.executeState_Shake__14daEnChestnut_cFv
                0x0001e51d                .dwarf.0006.beginState_Fall__14daEnChestnut_cFv
                0x0001e5ed                .dwarf.0006.endState_Fall__14daEnChestnut_cFv
                0x0001e63f                .dwarf.0006.executeState_Fall__14daEnChestnut_cFv
                0x0001e6c9                .dwarf.0006.beginState_Explode__14daEnChestnut_cFv
                0x0001e77f                .dwarf.0006.endState_Explode__14daEnChestnut_cFv
                0x0001e805                .dwarf.0013.S16Vec::S16Vec
                0x0001e887                .dwarf.0006.executeState_Explode__14daEnChestnut_cFv
                0x0001e988                .dwarf.0013.IceActorSpawnInfo::IceActorSpawnInfo
                0x0001ea49                .dwarf.0006.CreateIceActors__14daEnChestnut_cFv
                0x0001eb12                .dwarf.0006.canBePowed__14daEnChestnut_cFv
                0x0001eb62                .dwarf.0006.powBlockActivated__14daEnChestnut_cFb
                0x0001ec49                .dwarf.0006.collisionCat1_Fireball_E_Explosion__14daEnChestnut_cFP13ActivePhysicsP13ActivePhysics
                0x0001ed18                .dwarf.0006.collisionCat5_Mario__14daEnChestnut_cFP13ActivePhysicsP13ActivePhysics
                0x0001ee65                .dwarf.0006.spawnObject__14daEnChestnut_cFv
                0x0001efc4                .dwarf.0007.FlipBlockFileList
                0x0001f293                .dwarf.0002.dState_c<15daEnFlipBlock_c>::dState_c
                0x0001f384                .dwarf.0007.StateID_Wait__15daEnFlipBlock_c
                0x0001f3d0                .dwarf.0007.StateID_Flipping__15daEnFlipBlock_c
                0x0001f6b7                .dwarf.0002.daEnBlockMain_c::daEnBlockMain_c
                0x000203c4                .dwarf.0002.daEnFlipBlock_c::daEnFlipBlock_c
                0x00020539                .dwarf.0006.onCreate__15daEnFlipBlock_cFv
                0x000205e6                .dwarf.0006.onDelete__15daEnFlipBlock_cFv
                0x00020663                .dwarf.0006.onExecute__15daEnFlipBlock_cFv
                0x000206e2                .dwarf.0006.onDraw__15daEnFlipBlock_cFv
                0x00020755                .dwarf.0006.build__15daEnFlipBlock_cFv
                0x000207f5                .dwarf.0006.blockWasHit__15daEnFlipBlock_cFb
                0x00020874                .dwarf.0006.calledWhenUpMoveExecutes__15daEnFlipBlock_cFv
                0x00020907                .dwarf.0006.calledWhenDownMoveExecutes__15daEnFlipBlock_cFv
                0x0002099e                .dwarf.0006.beginState_Wait__15daEnFlipBlock_cFv
                0x000209f5                .dwarf.0006.endState_Wait__15daEnFlipBlock_cFv
                0x00020a48                .dwarf.0006.executeState_Wait__15daEnFlipBlock_cFv
                0x00020afb                .dwarf.0006.beginState_Flipping__15daEnFlipBlock_cFv
                0x00020b84                .dwarf.0006.executeState_Flipping__15daEnFlipBlock_cFv
                0x00020c17                .dwarf.0006.endState_Flipping__15daEnFlipBlock_cFv
                0x00020c9c                .dwarf.0006.playerOverlaps__15daEnFlipBlock_cFv
                0x00020eb6                .dwarf.0004.daEnMagicPlatform_c::CollisionType
                0x00021118                .dwarf.0002.StandOnTopCollider::StandOnTopCollider
                0x00021452                .dwarf.0002.TileRenderer::TileRenderer
                0x00021781                .dwarf.0002.daEnMagicPlatform_c::daEnMagicPlatform_c
                0x00021b9a                .dwarf.0006.build__19daEnMagicPlatform_cFv
                0x00021ffc                .dwarf.0006.onCreate__19daEnMagicPlatform_cFv
                0x000220e3                .dwarf.0006.onDelete__19daEnMagicPlatform_cFv
                0x0002215e                .dwarf.0006.onExecute__19daEnMagicPlatform_cFv
                0x000221db                .dwarf.0006.setupMovement__19daEnMagicPlatform_cFv
                0x000222a9                .dwarf.0006.handleMovement__19daEnMagicPlatform_cFv
                0x000223cf                .dwarf.0002.mRect::mRect
                0x0002247a                .dwarf.0006.findSourceArea__19daEnMagicPlatform_cFv
                0x000225b3                .dwarf.0006.createTiles__19daEnMagicPlatform_cFv
                0x00022754                .dwarf.0006.deleteTiles__19daEnMagicPlatform_cFv
                0x000227d1                .dwarf.0006.updateTilePositions__19daEnMagicPlatform_cFv
                0x00022941                .dwarf.0006.checkVisibility__19daEnMagicPlatform_cFv
                0x00022bf4                .dwarf.0002.TileRenderer::List::List
                0x00022c89                .dwarf.0006.setVisible__19daEnMagicPlatform_cFb
                0x00022d6d                .dwarf.0007.instance__13dScCutScene_c
                0x00022e3e                .dwarf.0002.FunctionChain::FunctionChain
                0x00023063                .dwarf.0002.dScene_c::dScene_c
                0x00023150                .dwarf.0013.dMovieScene_s::dMovieScene_s
                0x00023278                .dwarf.0013.dMovieData_s::dMovieData_s
                0x00023314                .dwarf.0002.dState_c<14dYesNoWindow_c>::dState_c
                0x00023405                .dwarf.0002.dStateMethodExecutor_c<14dYesNoWindow_c>::dStateMethodExecutor_c
                0x000235c9                .dwarf.0002.dStateExecutor_c<14dYesNoWindow_c>::dStateExecutor_c
                0x000237f7                .dwarf.0002.dStateWrapperBase_c<14dYesNoWindow_c>::dStateWrapperBase_c
                0x000239af                .dwarf.0002.dStateWrapper_c<14dYesNoWindow_c>::dStateWrapper_c
                0x00023ad7                .dwarf.0002.dYesNoWindow_c::dYesNoWindow_c
                0x00024138                .dwarf.0002.dScCutScene_c::dScCutScene_c
                0x00024360                .dwarf.0006.build__13dScCutScene_cFv
                0x000243f8                .dwarf.0004.Actors
                0x00027b88                .dwarf.0006.__ct__13dScCutScene_cFv
                0x00027c50                .dwarf.0006.__dt__13dScCutScene_cFv
                0x00027d63                .dwarf.0006.onCreate__13dScCutScene_cFv
                0x00027e51                .dwarf.0006.onDelete__13dScCutScene_cFv
                0x00027ee3                .dwarf.0006.onExecute__13dScCutScene_cFv
                0x0002829f                .dwarf.0006.onDraw__13dScCutScene_cFv
                0x00028310                .dwarf.0006.CutSceneDrawFunc__Fv
                0x00028390                .dwarf.0006.goToNextScene__13dScCutScene_cFv
                0x0002847c                .dwarf.0006.ExitStageWrapper
                0x00028557                .dwarf.0006.EnterOpeningLevel
                0x0002866f                .dwarf.0002.daBonePiece_c::daBonePiece_c
                0x00028769                .dwarf.0006.build__13daBonePiece_cFv
                0x0002886f                .dwarf.0006.onCreate__13daBonePiece_cFv
                0x0002896e                .dwarf.0006.onDelete__13daBonePiece_cFv
                0x000289b9                .dwarf.0006.onExecute__13daBonePiece_cFv
                0x00028a30                .dwarf.0006.onDraw__13daBonePiece_cFv
                0x00028aca                .dwarf.0007.SongNameList
                0x00028b22                .dwarf.0013.HijackedStream::HijackedStream
                0x00028c71                .dwarf.0013.Hijacker::Hijacker
                0x00028d3b                .dwarf.0007.Hijackers
                0x00028d62                .dwarf.0006.hijackMusicWithSongName__FPCcibiiPi
                0x00028fa8                .dwarf.0013.DVDHandle::DVDHandle
                0x000291ef                .dwarf.0006.FixFilesize__FUi
                0x00029332                .dwarf.0006.after_course_getMusicForZone
                0x000293e3                .dwarf.0007.lastLevelIDs
                0x0002942d                .dwarf.0006.WriteAsciiToTextBox__FPQ34nw4r3lyt7TextBoxPCc
                0x000295a7                .dwarf.0006.getNewerLevelNumberString__FiiPw
                0x0002966d                .dwarf.0006.getUnspentStarCoinCount__Fv
                0x00029716                .dwarf.0006.getStarCoinCount__Fv
                0x0002983b                .dwarf.0013.GEIFS::GEIFS
                0x000298d5                .dwarf.0013.dLevelInfo_c::entry_s::entry_s
                0x00029a91                .dwarf.0013.dLevelInfo_c::section_s::section_s
                0x00029b05                .dwarf.0006.GrabExitInfoForFileSelect
                0x00029c3f                .dwarf.0006.DamagePlayer__FP5dEn_cP13ActivePhysicsP13ActivePhysics
                0x00029da9                .dwarf.0002.daKameckDemo::daKameckDemo
                0x00029eec                .dwarf.0002.daBoss::daBoss
                0x00029fcd                .dwarf.0006.SetupKameck__FP6daBossP12daKameckDemo
                0x0002a0a5                .dwarf.0006.CleanupKameck__FP6daBossP12daKameckDemo
                0x0002a12d                .dwarf.0006.GrowBoss__FP6daBossP12daKameckDemofffi
                0x0002a2c9                .dwarf.0006.OutroSetup__FP6daBoss
                0x0002a372                .dwarf.0006.ShrinkBoss__FP6daBossP7Point3dfi
                0x0002a454                .dwarf.0006.BossExplode__FP6daBossP7Point3d
                0x0002a520                .dwarf.0006.BossGoalForAllPlayers__Fv
                0x0002a5b4                .dwarf.0006.PlayerVictoryCries__FP6daBoss
                0x0002a601                .dwarf.0006.LoadFile__FP10FileHandlePCc
                0x0002a711                .dwarf.0006.FreeFile__FP10FileHandle
                0x0002a89d                .dwarf.0002.File::File
                0x0002a90c                .dwarf.0006.__ct__4FileFv
                0x0002a96f                .dwarf.0006.__dt__4FileFv
                0x0002a9d2                .dwarf.0006.open__4FileFPCc
                0x0002aa84                .dwarf.0006.close__4FileFv
                0x0002aae5                .dwarf.0006.isOpen__4FileFv
                0x0002ab4c                .dwarf.0006.ptr__4FileFv
                0x0002abad                .dwarf.0006.length__4FileFv
                0x0002ad26                .dwarf.0002.dDvdLoader_c::dDvdLoader_c
                0x0002ae0c                .dwarf.0007.s_levelInfoLoader
                0x0002ae3b                .dwarf.0007.s_levelInfoLoaded
                0x0002aeb6                .dwarf.0013.dLevelInfo_c::header_s::header_s
                0x0002b081                .dwarf.0002.dLevelInfo_c::dLevelInfo_c
                0x0002b0ea                .dwarf.0007.s_info__12dLevelInfo_c
                0x0002b127                .dwarf.0006.LoadLevelInfo__Fv
                0x0002b19d                .dwarf.0006.load__12dLevelInfo_cFPv
                0x0002b2fc                .dwarf.0006.searchBySlot__12dLevelInfo_cFii
                0x0002b451                .dwarf.0006.searchByDisplayNum__12dLevelInfo_cFii
                0x0002b5b2                .dwarf.0006.UpdateFSStars__Fv
                0x0002b7e6                .dwarf.0007.instance__14dScKoopatlas_c
                0x0002bacc                .dwarf.0002.dState_c<14dScKoopatlas_c>::dState_c
                0x0002bbbd                .dwarf.0007.StateID_Limbo__14dScKoopatlas_c
                0x0002c1cd                .dwarf.0002.dScKoopatlas_c::dScKoopatlas_c
                0x0002ca4c                .dwarf.0006.beginState_Limbo__14dScKoopatlas_cFv
                0x0002caa4                .dwarf.0006.endState_Limbo__14dScKoopatlas_cFv
                0x0002caf8                .dwarf.0007.StateID_ContinueWait__14dScKoopatlas_c
                0x0002cb53                .dwarf.0007.StateID_Normal__14dScKoopatlas_c
                0x0002cba2                .dwarf.0006.beginState_Normal__14dScKoopatlas_cFv
                0x0002cbfc                .dwarf.0006.endState_Normal__14dScKoopatlas_cFv
                0x0002cc52                .dwarf.0007.StateID_CompletionMsg__14dScKoopatlas_c
                0x0002ccaf                .dwarf.0007.StateID_CompletionMsgHideWait__14dScKoopatlas_c
                0x0002cd1c                .dwarf.0006.beginState_CompletionMsgHideWait__14dScKoopatlas_cFv
                0x0002cd94                .dwarf.0006.endState_CompletionMsgHideWait__14dScKoopatlas_cFv
                0x0002ce08                .dwarf.0007.StateID_CSMenu__14dScKoopatlas_c
                0x0002ce57                .dwarf.0006.beginState_CSMenu__14dScKoopatlas_cFv
                0x0002ceb1                .dwarf.0006.endState_CSMenu__14dScKoopatlas_cFv
                0x0002cf07                .dwarf.0007.StateID_TitleConfirmOpenWait__14dScKoopatlas_c
                0x0002cf72                .dwarf.0006.beginState_TitleConfirmOpenWait__14dScKoopatlas_cFv
                0x0002cfe8                .dwarf.0006.endState_TitleConfirmOpenWait__14dScKoopatlas_cFv
                0x0002d05a                .dwarf.0007.StateID_TitleConfirmSelect__14dScKoopatlas_c
                0x0002d0c1                .dwarf.0006.beginState_TitleConfirmSelect__14dScKoopatlas_cFv
                0x0002d133                .dwarf.0006.endState_TitleConfirmSelect__14dScKoopatlas_cFv
                0x0002d1a1                .dwarf.0007.StateID_TitleConfirmHitWait__14dScKoopatlas_c
                0x0002d20a                .dwarf.0006.beginState_TitleConfirmHitWait__14dScKoopatlas_cFv
                0x0002d27e                .dwarf.0006.endState_TitleConfirmHitWait__14dScKoopatlas_cFv
                0x0002d2ee                .dwarf.0007.StateID_PlayerChangeWait__14dScKoopatlas_c
                0x0002d351                .dwarf.0006.beginState_PlayerChangeWait__14dScKoopatlas_cFv
                0x0002d3bf                .dwarf.0006.endState_PlayerChangeWait__14dScKoopatlas_cFv
                0x0002d429                .dwarf.0007.StateID_EasyPairingWait__14dScKoopatlas_c
                0x0002d48a                .dwarf.0006.beginState_EasyPairingWait__14dScKoopatlas_cFv
                0x0002d4f6                .dwarf.0006.endState_EasyPairingWait__14dScKoopatlas_cFv
                0x0002d55e                .dwarf.0007.StateID_PowerupsWait__14dScKoopatlas_c
                0x0002d5b9                .dwarf.0006.beginState_PowerupsWait__14dScKoopatlas_cFv
                0x0002d61f                .dwarf.0006.endState_PowerupsWait__14dScKoopatlas_cFv
                0x0002d681                .dwarf.0007.StateID_ShopWait__14dScKoopatlas_c
                0x0002d6d4                .dwarf.0006.beginState_ShopWait__14dScKoopatlas_cFv
                0x0002d732                .dwarf.0006.endState_ShopWait__14dScKoopatlas_cFv
                0x0002d78c                .dwarf.0007.StateID_CoinsWait__14dScKoopatlas_c
                0x0002d7e1                .dwarf.0006.beginState_CoinsWait__14dScKoopatlas_cFv
                0x0002d841                .dwarf.0006.endState_CoinsWait__14dScKoopatlas_cFv
                0x0002d89d                .dwarf.0007.StateID_SaveOpen__14dScKoopatlas_c
                0x0002d8f0                .dwarf.0006.beginState_SaveOpen__14dScKoopatlas_cFv
                0x0002d94e                .dwarf.0006.endState_SaveOpen__14dScKoopatlas_cFv
                0x0002d9a8                .dwarf.0007.StateID_SaveSelect__14dScKoopatlas_c
                0x0002d9ff                .dwarf.0006.beginState_SaveSelect__14dScKoopatlas_cFv
                0x0002da61                .dwarf.0006.endState_SaveSelect__14dScKoopatlas_cFv
                0x0002dabf                .dwarf.0007.StateID_SaveWindowClose__14dScKoopatlas_c
                0x0002db20                .dwarf.0006.beginState_SaveWindowClose__14dScKoopatlas_cFv
                0x0002db8c                .dwarf.0006.endState_SaveWindowClose__14dScKoopatlas_cFv
                0x0002dbf4                .dwarf.0007.StateID_SaveDo__14dScKoopatlas_c
                0x0002dc43                .dwarf.0006.beginState_SaveDo__14dScKoopatlas_cFv
                0x0002dc9d                .dwarf.0006.endState_SaveDo__14dScKoopatlas_cFv
                0x0002dcf3                .dwarf.0007.StateID_SaveEndWindow__14dScKoopatlas_c
                0x0002dd50                .dwarf.0006.beginState_SaveEndWindow__14dScKoopatlas_cFv
                0x0002ddb8                .dwarf.0006.endState_SaveEndWindow__14dScKoopatlas_cFv
                0x0002de1c                .dwarf.0007.StateID_SaveEndCloseWait__14dScKoopatlas_c
                0x0002de7f                .dwarf.0006.beginState_SaveEndCloseWait__14dScKoopatlas_cFv
                0x0002deed                .dwarf.0006.endState_SaveEndCloseWait__14dScKoopatlas_cFv
                0x0002df57                .dwarf.0007.StateID_SaveError__14dScKoopatlas_c
                0x0002dfac                .dwarf.0006.beginState_SaveError__14dScKoopatlas_cFv
                0x0002e00c                .dwarf.0006.endState_SaveError__14dScKoopatlas_cFv
                0x0002e068                .dwarf.0006.build__14dScKoopatlas_cFv
                0x0002e126                .dwarf.0007.initFunctions
                0x0002e151                .dwarf.0006.__ct__14dScKoopatlas_cFv
                0x0002e2dd                .dwarf.0002.dStateWrapper_c<14dScKoopatlas_c>::dStateWrapper_c
                0x0002e4d9                .dwarf.0002.dStateWrapperBase_c<14dScKoopatlas_c>::dStateWrapperBase_c
                0x0002e6d6                .dwarf.0002.dStateMgr_c::dStateMgr_c
                0x0002e827                .dwarf.0002.dStateExecutor_c<14dScKoopatlas_c>::dStateExecutor_c
                0x0002e98a                .dwarf.0002.dStateMethodExecutor_c<14dScKoopatlas_c>::dStateMethodExecutor_c
                0x0002eb0d                .dwarf.0002.dStateMethodExecutorBase_c::dStateMethodExecutorBase_c
                0x0002ec4f                .dwarf.0002.dStateExecutorBase_c::dStateExecutorBase_c
                0x0002ed43                .dwarf.0002.dStatePointless_c::dStatePointless_c
                0x0002ed99                .dwarf.0006.WMInit_StartLoading__FPv
                0x0002ede6                .dwarf.0006.WMInit_LoadStaticFiles__FPv
                0x0002ee39                .dwarf.0006.WMInit_LoadSIAnims__FPv
                0x0002ee8a                .dwarf.0006.WMInit_EndLoading__FPv
                0x0002eed9                .dwarf.0006.WMInit_LoadResources1__FPv
                0x0002ef76                .dwarf.0006.WMInit_LoadResources2__FPv
                0x0002f013                .dwarf.0006.WMInit_SetupWait__FPv
                0x0002f0c3                .dwarf.0006.WMInit_SetupExtra__FPv
                0x0002f226                .dwarf.0006.WMInit_SetupWipe__FPv
                0x0002f2b9                .dwarf.0006.startMusic__14dScKoopatlas_cFv
                0x0002f30b                .dwarf.0006.onCreate__14dScKoopatlas_cFv
                0x0002f67e                .dwarf.0006.onDelete__14dScKoopatlas_cFv
                0x0002f6fa                .dwarf.0006.canDoStuff__14dScKoopatlas_cFv
                0x0002f780                .dwarf.0006.mapIsRunning__14dScKoopatlas_cFv
                0x0002f80a                .dwarf.0006.onExecute__14dScKoopatlas_cFv
                0x0002f882                .dwarf.0006.executeState_Limbo__14dScKoopatlas_cFv
                0x0002f8de                .dwarf.0006.beginState_ContinueWait__14dScKoopatlas_cFv
                0x0002f9f6                .dwarf.0006.executeState_ContinueWait__14dScKoopatlas_cFv
                0x0002fade                .dwarf.0006.endState_ContinueWait__14dScKoopatlas_cFv
                0x0002fb46                .dwarf.0006.executeState_Normal__14dScKoopatlas_cFv
                0x0002fc18                .dwarf.0006.executeState_CSMenu__14dScKoopatlas_cFv
                0x0002fce9                .dwarf.0006.executeState_TitleConfirmOpenWait__14dScKoopatlas_cFv
                0x0002fd93                .dwarf.0006.executeState_TitleConfirmSelect__14dScKoopatlas_cFv
                0x0002fe71                .dwarf.0006.executeState_TitleConfirmHitWait__14dScKoopatlas_cFv
                0x0002ff1f                .dwarf.0006.executeState_PlayerChangeWait__14dScKoopatlas_cFv
                0x00030109                .dwarf.0006.executeState_EasyPairingWait__14dScKoopatlas_cFv
                0x00030225                .dwarf.0006.executeState_PowerupsWait__14dScKoopatlas_cFv
                0x000302c5                .dwarf.0006.executeState_ShopWait__14dScKoopatlas_cFv
                0x00030357                .dwarf.0006.executeState_CoinsWait__14dScKoopatlas_cFv
                0x000303eb                .dwarf.0006.executeState_SaveOpen__14dScKoopatlas_cFv
                0x0003047d                .dwarf.0006.executeState_SaveSelect__14dScKoopatlas_cFv
                0x0003054b                .dwarf.0006.executeState_SaveWindowClose__14dScKoopatlas_cFv
                0x000305f1                .dwarf.0006.executeState_SaveDo__14dScKoopatlas_cFv
                0x00030691                .dwarf.0006.executeState_SaveEndWindow__14dScKoopatlas_cFv
                0x00030733                .dwarf.0006.executeState_SaveEndCloseWait__14dScKoopatlas_cFv
                0x000307d5                .dwarf.0006.executeState_SaveError__14dScKoopatlas_cFv
                0x00030867                .dwarf.0013.StartLevelInfo::StartLevelInfo
                0x00030a1c                .dwarf.0006.startLevel__14dScKoopatlas_cFPQ212dLevelInfo_c7entry_s
                0x00030b2d                .dwarf.0006.iterateMapList__14dScKoopatlas_cFPFUiPCcii_UiUiPi
                0x00030eaa                .dwarf.0006.getMapNameForIndex__14dScKoopatlas_cFi
                0x00030f64                .dwarf.0006.getIndexForMapName__14dScKoopatlas_cFPCc
                0x00031020                .dwarf.0006.showSaveWindow__14dScKoopatlas_cFv
                0x00031176                .dwarf.0006.beginState_CompletionMsg__14dScKoopatlas_cFv
                0x0003120e                .dwarf.0006.endState_CompletionMsg__14dScKoopatlas_cFv
                0x000312bc                .dwarf.0006.executeState_CompletionMsg__14dScKoopatlas_cFv
                0x000314c0                .dwarf.0006.executeState_CompletionMsgHideWait__14dScKoopatlas_cFv
                0x0003156c                .dwarf.0006.NewerMapDrawFunc__Fv
                0x000315f2                .dwarf.0007.instance__12daWMPlayer_c
                0x00031862                .dwarf.0002.daWMPlayer_c::daWMPlayer_c
                0x00031c41                .dwarf.0002.nw4r::g3d::ResAnmTexPat::ResAnmTexPat
                0x00031c8a                .dwarf.0006.onCreate__12daWMPlayer_cFv
                0x00031d9e                .dwarf.0006.onDelete__12daWMPlayer_cFv
                0x0003228f                .dwarf.0002.mMtx::mMtx
                0x000322d2                .dwarf.0006.onExecute__12daWMPlayer_cFv
                0x000323b0                .dwarf.0006.onDraw__12daWMPlayer_cFv
                0x00032426                .dwarf.0006.startAnimation__12daWMPlayer_cFifff
                0x000325ea                .dwarf.0006.bindPats__12daWMPlayer_cFv
                0x000326ef                .dwarf.0006.build__12daWMPlayer_cFv
                0x00032798                .dwarf.0007.instance__8dWMHud_c
                0x00032a81                .dwarf.0002.dWMHud_c::dWMHud_c
                0x000330a2                .dwarf.0006.build__8dWMHud_cFv
                0x00033134                .dwarf.0006.__ct__8dWMHud_cFv
                0x00033469                .dwarf.0006.onCreate__8dWMHud_cFv
                0x00033541                .dwarf.0006.loadInitially__8dWMHud_cFv
                0x000335e7                .dwarf.0006.onDelete__8dWMHud_cFv
                0x0003365c                .dwarf.0006.onExecute__8dWMHud_cFv
                0x000336f6                .dwarf.0006.onDraw__8dWMHud_cFv
                0x00033761                .dwarf.0006.hideAll__8dWMHud_cFv
                0x000337ca                .dwarf.0006.unhideAll__8dWMHud_cFv
                0x00033837                .dwarf.0006.playShowAnim__8dWMHud_cFi
                0x000338ce                .dwarf.0006.playHideAnim__8dWMHud_cFi
                0x00033bb4                .dwarf.0002.nw4r::ut::CharWriter::CharWriter
                0x00034047                .dwarf.0002.nw4r::ut::TextWriter::TextWriter
                0x0003418e                .dwarf.0006.loadHeaderInfo__8dWMHud_cFv
                0x000345b2                .dwarf.0006.loadFooterInfo__8dWMHud_cFv
                0x00034821                .dwarf.0006.enteredNode__8dWMHud_cFP9dKPNode_s
                0x000348c7                .dwarf.0006.leftNode__8dWMHud_cFv
                0x00034932                .dwarf.0006.hideFooter__8dWMHud_cFv
                0x000349a1                .dwarf.0006.showFooter__8dWMHud_cFv
                0x00034a90                .dwarf.0006.setupLives__8dWMHud_cFv
                0x00034c48                .dwarf.0006.updatePressableButtonThingies__8dWMHud_cFv
                0x00034d2c                .dwarf.0007.instance__14dWorldCamera_c
                0x0003519c                .dwarf.0002.EGG::Frustum::Frustum
                0x00035456                .dwarf.0013.EGG::Screen::Info::Info
                0x0003591c                .dwarf.0002.EGG::Screen::Screen
                0x00035c12                .dwarf.0002.EGG::LookAtCamera::LookAtCamera
                0x00035f52                .dwarf.0002.EGG::ProjectOrtho::ProjectOrtho
                0x00036293                .dwarf.0002.dWorldCamera_c::dWorldCamera_c
                0x00036713                .dwarf.0006.build__14dWorldCamera_cFv
                0x000367ac                .dwarf.0006.__ct__14dWorldCamera_cFv
                0x00036854                .dwarf.0013.SSM::SSM
                0x00036907                .dwarf.0006.onCreate__14dWorldCamera_cFv
                0x000369ad                .dwarf.0006.onDelete__14dWorldCamera_cFv
                0x000369f9                .dwarf.0006.onExecute__14dWorldCamera_cFv
                0x00036ac9                .dwarf.0006.panToBounds__14dWorldCamera_cFffff
                0x00036e7d                .dwarf.0006.panToPosition__14dWorldCamera_cFfff
                0x00037049                .dwarf.0006.onDraw__14dWorldCamera_cFv
                0x0003710b                .dwarf.0006.calculateScreenGeometry__14dWorldCamera_cFv
                0x000371a7                .dwarf.0006.doStuff__14dWorldCamera_cFf
                0x0003723c                .dwarf.0006.generateCameraMatrices__14dWorldCamera_cFv
                0x000373e2                .dwarf.0006.updateCameras__14dWorldCamera_cFv
                0x000374ae                .dwarf.0007.instance__8dWMMap_c
                0x000375f1                .dwarf.0002.BGGMEffectRenderer::BGGMEffectRenderer
                0x00037750                .dwarf.0002.m3d::anmTexSrt_c::child_c::child_c
                0x00037a92                .dwarf.0002.m3d::anmTexSrt_c::anmTexSrt_c
                0x00037c34                .dwarf.0002.dWMMap_c::dWMMap_c
                0x00037ee0                .dwarf.0006.build__8dWMMap_cFv
                0x00037f72                .dwarf.0006.__ct__8dWMMap_cFv
                0x00038294                .dwarf.0002.nw4r::g3d::ResFile::ResFile
                0x00038353                .dwarf.0002.nw4r::g3d::ResAnmTexSrt::ResAnmTexSrt
                0x0003839c                .dwarf.0006.onCreate__8dWMMap_cFv
                0x000385b8                .dwarf.0006.onDelete__8dWMMap_cFv
                0x000385fd                .dwarf.0006.onExecute__8dWMMap_cFv
                0x0003866e                .dwarf.0006.onDraw__8dWMMap_cFv
                0x000388c8                .dwarf.0002.dWMMap_c::renderer_c::renderer_c
                0x00038a51                .dwarf.0006.drawOpa__Q28dWMMap_c10renderer_cFv
                0x00038a9e                .dwarf.0006.drawXlu__Q28dWMMap_c10renderer_cFv
                0x00038b49                .dwarf.0013._gx_color::_gx_color
                0x00038bef                .dwarf.0006.drawLayers__Q28dWMMap_c10renderer_cFv
                0x00038dc1                .dwarf.0006.beginRendering__Q28dWMMap_c10renderer_cFv
                0x00038efb                .dwarf.0006.renderTileLayer__Q28dWMMap_c10renderer_cFP10dKPLayer_sPA16_A16_Us
                0x00039583                .dwarf.0006.renderDoodadLayer__Q28dWMMap_c10renderer_cFP10dKPLayer_s
                0x00039a0a                .dwarf.0006.renderPathLayer__8dWMMap_cFP10dKPLayer_s
                0x00039b43                .dwarf.0006.endRendering__Q28dWMMap_c10renderer_cFv
                0x00039b9a                .dwarf.0006.loadTexture__Q28dWMMap_c10renderer_cFP10_gx_texobj
                0x00039c49                .dwarf.0006.loadCamera__Q28dWMMap_c10renderer_cFv
                0x00039ccc                .dwarf.0006.loadCamera__Q28dWMMap_c10renderer_cFPA4_f
                0x00039dc0                .dwarf.0006.doEffects__8dWMMap_cFv
                0x0003a079                .dwarf.0006.spinLaunchStar__8dWMMap_cFv
                0x0003a46e                .dwarf.0002.dKPNodeExtra_c::dKPNodeExtra_c
                0x0003ab6a                .dwarf.0013.dKPNode_s::dKPNode_s
                0x0003b068                .dwarf.0006.getOppositeExitTo__9dKPNode_sFP9dKPPath_sb
                0x0003b199                .dwarf.0006.getExitCount__9dKPNode_sFb
                0x0003b27d                .dwarf.0006.isUnlocked__9dKPNode_sFv
                0x0003b389                .dwarf.0002.nw4r::g3d::ResAnmClr::ResAnmClr
                0x0003b3cf                .dwarf.0006.setupNodeExtra__9dKPNode_sFv
                0x0003b623                .dwarf.0006.setLayerAlpha__9dKPNode_sFUc
                0x0003b6db                .dwarf.0004.dKPPath_s::Animation
                0x0003b888                .dwarf.0013.dKPPath_s::dKPPath_s
                0x0003ba27                .dwarf.0006.setLayerAlpha__9dKPPath_sFUc
                0x0003babf                .dwarf.0004.dKPLayer_s::LayerTypes
                0x0003c31f                .dwarf.0004.dKPDoodad_s::animation_s::LoopTypes
                0x0003c36c                .dwarf.0004.dKPDoodad_s::animation_s::CurveTypes
                0x0003c3ac                .dwarf.0004.dKPDoodad_s::animation_s::AnimTypes
                0x0003c440                .dwarf.0013.dKPDoodad_s::animation_s::animation_s
                0x0003c63b                .dwarf.0013.dKPDoodad_s::dKPDoodad_s
                0x0003ce46                .dwarf.0013.dKPLayer_s::dKPLayer_s
                0x0003d329                .dwarf.0006.findNodeID__10dKPLayer_sFP9dKPNode_s
                0x0003d4a5                .dwarf.0013.dKPWorldDef_s::dKPWorldDef_s
                0x0003d721                .dwarf.0013.dKPMapFile_s::dKPMapFile_s
                0x0003da84                .dwarf.0002.dKPMapData_c::dKPMapData_c
                0x0003dc18                .dwarf.0006.__ct__12dKPMapData_cFv
                0x0003dc84                .dwarf.0006.__dt__12dKPMapData_cFv
                0x0003dcf0                .dwarf.0006.load__12dKPMapData_cFPCc
                0x0003dde2                .dwarf.0006.loadTilesets__12dKPMapData_cFv
                0x0003df0d                .dwarf.0006.unloadTilesets__12dKPMapData_cFv
                0x0003dfa6                .dwarf.0006.fixup__12dKPMapData_cFv
                0x0003e23f                .dwarf.0006.findWorldDef__12dKPMapData_cCFi
                0x0003e323                .dwarf.0007.MaybeFinishingLevel
                0x0003e374                .dwarf.0007.LastLevelPlayed
                0x0003e3a1                .dwarf.0007.CanFinishCoins
                0x0003e3cb                .dwarf.0007.CanFinishExits
                0x0003e3f5                .dwarf.0007.CanFinishWorld
                0x0003e41f                .dwarf.0007.CanFinishAlmostAllCoins
                0x0003e452                .dwarf.0007.CanFinishAllCoins
                0x0003e47f                .dwarf.0007.CanFinishAllExits
                0x0003e4ac                .dwarf.0007.CanFinishEverything
                0x0003e4db                .dwarf.0006.ResetAllCompletionCandidates__Fv
                0x0003e56b                .dwarf.0006.getPressedDir__Fi
                0x0003e600                .dwarf.0013.HermiteKey::HermiteKey
                0x0003e933                .dwarf.0002.dWMPathManager_c::dWMPathManager_c
                0x0003f316                .dwarf.0006.setup__16dWMPathManager_cFv
                0x0003f8c2                .dwarf.0006.ClearOldPathAvailabilityData__Fv
                0x0003f928                .dwarf.0006.__dt__16dWMPathManager_cFv
                0x0003fdfe                .dwarf.0006.unlockPaths__16dWMPathManager_cFv
                0x0004036c                .dwarf.0006.finalisePathUnlocks__16dWMPathManager_cFv
                0x000403f6                .dwarf.0006.evaluateUnlockCondition__16dWMPathManager_cFRPUcP9SaveBlocki
                0x000407cc                .dwarf.0006.doingThings__16dWMPathManager_cFv
                0x00040966                .dwarf.0006.execute__16dWMPathManager_cFv
                0x00040dfd                .dwarf.0004.PlayerAnim
                0x000417d1                .dwarf.0004.SFX
                0x0004e173                .dwarf.0006.startMovementTo__16dWMPathManager_cFP9dKPPath_s
                0x0004e53b                .dwarf.0006.moveThroughPath__16dWMPathManager_cFi
                0x0004eb84                .dwarf.0006.copyWorldDefToSave__16dWMPathManager_cFPC13dKPWorldDef_s
                0x0004ec65                .dwarf.0006.activatePoint__16dWMPathManager_cFv
                0x0004ee2d                .dwarf.0006.unlockAllPaths__16dWMPathManager_cFc
                0x0004ef91                .dwarf.0006.findCameraBoundsForUnlockedPaths__16dWMPathManager_cFv
                0x0004f07d                .dwarf.0006.visitNodeForCamCheck__16dWMPathManager_cFP9dKPNode_s
                0x0004f1a4                .dwarf.0006.addNodeToCameraBounds__16dWMPathManager_cFP9dKPNode_s
                0x0004f501                .dwarf.0002.dState_c<9dWMShop_c>::dState_c
                0x0004f5f2                .dwarf.0007.StateID_Hidden__9dWMShop_c
                0x0004f63b                .dwarf.0007.StateID_ShowWait__9dWMShop_c
                0x0004f688                .dwarf.0007.StateID_ButtonActivateWait__9dWMShop_c
                0x0004f6e9                .dwarf.0007.StateID_CoinCountdown__9dWMShop_c
                0x0004f740                .dwarf.0007.StateID_Wait__9dWMShop_c
                0x0004f785                .dwarf.0007.StateID_HideWait__9dWMShop_c
                0x0004f9e7                .dwarf.0002.dWMShop_c::ShopModel_c::ShopModel_c
                0x0004fb9b                .dwarf.0004.dWMShop_c::ItemTypes
                0x0004fc4b                .dwarf.0006.setupItem__Q29dWMShop_c11ShopModel_cFffQ29dWMShop_c9ItemTypes
                0x0004fe51                .dwarf.0006.setupLakitu__Q29dWMShop_c11ShopModel_cFi
                0x0004ff5c                .dwarf.0006.playAnim__Q29dWMShop_c11ShopModel_cFPCcfc
                0x0005007b                .dwarf.0006.execute__Q29dWMShop_c11ShopModel_cFv
                0x000500f4                .dwarf.0006.draw__Q29dWMShop_c11ShopModel_cFv
                0x000501d4                .dwarf.0007.instance__9dWMShop_c
                0x00050540                .dwarf.0002.dWMShop_c::dWMShop_c
                0x00050b71                .dwarf.0006.build__9dWMShop_cFv
                0x00050c04                .dwarf.0006.__ct__9dWMShop_cFv
                0x00050d84                .dwarf.0002.dStateWrapper_c<9dWMShop_c>::dStateWrapper_c
                0x00050f80                .dwarf.0002.dStateWrapperBase_c<9dWMShop_c>::dStateWrapperBase_c
                0x00051152                .dwarf.0002.dStateExecutor_c<9dWMShop_c>::dStateExecutor_c
                0x000512b5                .dwarf.0002.dStateMethodExecutor_c<9dWMShop_c>::dStateMethodExecutor_c
                0x0005156e                .dwarf.0006.onCreate__9dWMShop_cFv
                0x000516ab                .dwarf.0006.onDelete__9dWMShop_cFv
                0x0005171b                .dwarf.0006.onExecute__9dWMShop_cFv
                0x000517aa                .dwarf.0006.onDraw__9dWMShop_cFv
                0x00051816                .dwarf.0006.specialDraw1__9dWMShop_cFv
                0x000518a7                .dwarf.0006.show__9dWMShop_cFi
                0x0005193d                .dwarf.0006.beginState_Hidden__9dWMShop_cFv
                0x00051991                .dwarf.0006.executeState_Hidden__9dWMShop_cFv
                0x000519e9                .dwarf.0006.endState_Hidden__9dWMShop_cFv
                0x00051a39                .dwarf.0006.beginState_ShowWait__9dWMShop_cFv
                0x00051ac1                .dwarf.0006.executeState_ShowWait__9dWMShop_cFv
                0x00051b4d                .dwarf.0006.endState_ShowWait__9dWMShop_cFv
                0x00051bd1                .dwarf.0006.beginState_ButtonActivateWait__9dWMShop_cFv
                0x00051c3d                .dwarf.0006.executeState_ButtonActivateWait__9dWMShop_cFv
                0x00051cdd                .dwarf.0006.endState_ButtonActivateWait__9dWMShop_cFv
                0x00051d45                .dwarf.0006.beginState_Wait__9dWMShop_cFv
                0x00051dc5                .dwarf.0006.executeState_Wait__9dWMShop_cFv
                0x00051ea9                .dwarf.0006.endState_Wait__9dWMShop_cFv
                0x00051ef5                .dwarf.0006.beginState_HideWait__9dWMShop_cFv
                0x00051f83                .dwarf.0006.executeState_HideWait__9dWMShop_cFv
                0x0005200f                .dwarf.0006.endState_HideWait__9dWMShop_cFv
                0x000520d1                .dwarf.0007.Inventory__9dWMShop_c
                0x000521a1                .dwarf.0006.loadModels__9dWMShop_cFv
                0x00052292                .dwarf.0006.deleteModels__9dWMShop_cFv
                0x00052326                .dwarf.0006.loadInfo__9dWMShop_cFv
                0x000525f7                .dwarf.0002.SaveFirstBlock::SaveFirstBlock
                0x00052893                .dwarf.0002.SaveFile::SaveFile
                0x00052a8f                .dwarf.0006.buyItem__9dWMShop_cFi
                0x00052d1f                .dwarf.0006.beginState_CoinCountdown__9dWMShop_cFv
                0x00052dab                .dwarf.0006.endState_CoinCountdown__9dWMShop_cFv
                0x00052e09                .dwarf.0006.executeState_CoinCountdown__9dWMShop_cFv
                0x00052f8b                .dwarf.0006.showSelectCursor__9dWMShop_cFv
                0x00053007                .dwarf.0007.instance__13dWMStarCoin_c
                0x00053513                .dwarf.0002.dWMStarCoin_c::dWMStarCoin_c
                0x00053ab9                .dwarf.0006.build__13dWMStarCoin_cFv
                0x00053b51                .dwarf.0006.__ct__13dWMStarCoin_cFv
                0x00053cdc                .dwarf.0002.dStateWrapper_c<13dWMStarCoin_c>::dStateWrapper_c
                0x00053ed8                .dwarf.0002.dStateWrapperBase_c<13dWMStarCoin_c>::dStateWrapperBase_c
                0x000540aa                .dwarf.0002.dStateExecutor_c<13dWMStarCoin_c>::dStateExecutor_c
                0x0005420d                .dwarf.0002.dStateMethodExecutor_c<13dWMStarCoin_c>::dStateMethodExecutor_c
                0x00054575                .dwarf.0002.dState_c<13dWMStarCoin_c>::dState_c
                0x00054666                .dwarf.0007.StateID_Hidden__13dWMStarCoin_c
                0x000546b4                .dwarf.0007.StateID_ShowWait__13dWMStarCoin_c
                0x00054706                .dwarf.0007.StateID_ShowSectionWait__13dWMStarCoin_c
                0x00054766                .dwarf.0007.StateID_Wait__13dWMStarCoin_c
                0x000547b0                .dwarf.0007.StateID_HideSectionWait__13dWMStarCoin_c
                0x00054810                .dwarf.0007.StateID_HideWait__13dWMStarCoin_c
                0x00054aca                .dwarf.0006.onCreate__13dWMStarCoin_cFv
                0x00054ce0                .dwarf.0006.onDelete__13dWMStarCoin_cFv
                0x00054d5b                .dwarf.0006.show__13dWMStarCoin_cFv
                0x00054dd0                .dwarf.0006.onExecute__13dWMStarCoin_cFv
                0x00054e47                .dwarf.0006.onDraw__13dWMStarCoin_cFv
                0x00054eb8                .dwarf.0006.showLeftArrow__13dWMStarCoin_cFv
                0x00054f33                .dwarf.0006.showRightArrow__13dWMStarCoin_cFv
                0x00054fb0                .dwarf.0006.hideLeftArrow__13dWMStarCoin_cFv
                0x0005502b                .dwarf.0006.hideRightArrow__13dWMStarCoin_cFv
                0x000550a8                .dwarf.0006.setLeftArrowVisible__13dWMStarCoin_cFb
                0x00055156                .dwarf.0006.setRightArrowVisible__13dWMStarCoin_cFb
                0x00055206                .dwarf.0006.canScrollLeft__13dWMStarCoin_cCFv
                0x00055287                .dwarf.0006.canScrollRight__13dWMStarCoin_cCFv
                0x0005530a                .dwarf.0006.loadInfo__13dWMStarCoin_cFv
                0x0005556c                .dwarf.0006.loadSectionInfo__13dWMStarCoin_cFv
                0x00055a19                .dwarf.0006.beginState_Hidden__13dWMStarCoin_cFv
                0x00055a72                .dwarf.0006.executeState_Hidden__13dWMStarCoin_cFv
                0x00055acf                .dwarf.0006.endState_Hidden__13dWMStarCoin_cFv
                0x00055bbd                .dwarf.0006.beginState_ShowWait__13dWMStarCoin_cFv
                0x00055c50                .dwarf.0006.executeState_ShowWait__13dWMStarCoin_cFv
                0x00055ce1                .dwarf.0006.endState_ShowWait__13dWMStarCoin_cFv
                0x00055d3a                .dwarf.0006.beginState_ShowSectionWait__13dWMStarCoin_cFv
                0x00055dcf                .dwarf.0006.executeState_ShowSectionWait__13dWMStarCoin_cFv
                0x00055e6e                .dwarf.0006.endState_ShowSectionWait__13dWMStarCoin_cFv
                0x00055ed5                .dwarf.0006.showSecretMessage__13dWMStarCoin_cFPCwPPCwiPPCwi
                0x000560e5                .dwarf.0006.beginState_Wait__13dWMStarCoin_cFv
                0x0005652f                .dwarf.0006.executeState_Wait__13dWMStarCoin_cFv
                0x0005666d                .dwarf.0006.endState_Wait__13dWMStarCoin_cFv
                0x000566be                .dwarf.0006.beginState_HideSectionWait__13dWMStarCoin_cFv
                0x00056753                .dwarf.0006.executeState_HideSectionWait__13dWMStarCoin_cFv
                0x000567f8                .dwarf.0006.endState_HideSectionWait__13dWMStarCoin_cFv
                0x0005685f                .dwarf.0006.beginState_HideWait__13dWMStarCoin_cFv
                0x000568e6                .dwarf.0006.executeState_HideWait__13dWMStarCoin_cFv
                0x00056977                .dwarf.0006.endState_HideWait__13dWMStarCoin_cFv
                0x00056ac9                .dwarf.0002.nw4r::snd::StrmSoundHandle::StrmSoundHandle
                0x00056d0f                .dwarf.0002.dKPMusic::dKPMusic
                0x00056d4c                .dwarf.0006.play__8dKPMusicFi
                0x00056e26                .dwarf.0006.loadInfo__8dKPMusicFv
                0x00056e91                .dwarf.0006.execute__8dKPMusicFv
                0x00057221                .dwarf.0006.stop__8dKPMusicFv
                0x00057284                .dwarf.0006.playStarMusic__8dKPMusicFv
                0x00057412                .dwarf.0002.dTexMapColouriser_c::dTexMapColouriser_c
                0x000574bb                .dwarf.0006.__ct__19dTexMapColouriser_cFv
                0x0005752e                .dwarf.0006.__dt__19dTexMapColouriser_cFv
                0x000575a1                .dwarf.0006.resetAndClear__19dTexMapColouriser_cFv
                0x00057622                .dwarf.0006.setTexMap__19dTexMapColouriser_cFPQ34nw4r3lyt6TexMap
                0x000576d6                .dwarf.0006.applyAlso__19dTexMapColouriser_cFPQ34nw4r3lyt6TexMap
                0x00057784                .dwarf.0006.colourise__19dTexMapColouriser_cFiii
                0x00057bb9                .dwarf.0006.LoadPregameStyleNameAndNumber__FPQ23m2d13EmbedLayout_c
                0x0005805f                .dwarf.0002.PregameLytHandler::PregameLytHandler
                0x00058c85                .dwarf.0006.hijack_loadLevelNumber__17PregameLytHandlerFv
                0x00058d7f                .dwarf.0006.InsertPauseWindowText
                0x00058e2b                .dwarf.0013.FileHandle::FileHandle
                0x00058e9b                .dwarf.0007.fh
                0x00058ee9                .dwarf.0013.AnimDef_Header::AnimDef_Header
                0x00058f8d                .dwarf.0013.AnimDef_Entry::AnimDef_Entry
                0x000590a8                .dwarf.0006.DoTiles__FPv
                0x0005924c                .dwarf.0006.DestroyTiles__FPv
                0x0005928d                .dwarf.0006.CopyAnimTile
                0x00059436                .dwarf.0007.KeyCounter
                0x0005945c                .dwarf.0006.endKeyLevel__FP13dStageActor_c
                0x000594d1                .dwarf.0006.startEndKeyLevel__FP13dStageActor_c
                0x0005954a                .dwarf.0006.soundsEndKeyLevel__FP13dStageActor_c
                0x000596c6                .dwarf.0007.NoMichaelBuble
                0x000596f0                .dwarf.0006.MarioStateChanger__FPvP12dStateBase_cUi
                0x000597c2                .dwarf.0006.ResetAfterLevel__Fb
                0x00059866                .dwarf.0006.FuckinBubbles__Fv
                0x00059a18                .dwarf.0013.LevelSpecial::LevelSpecial
                0x00059c8e                .dwarf.0006.LevelSpecial_Create__FP12LevelSpecial
                0x00059d35                .dwarf.0006.LevelSpecial_Execute__FP12LevelSpecial
                0x00059dc0                .dwarf.0006.LevelSpecial_Update__FP12LevelSpecial
                0x00059f24                .dwarf.0007.MSarcNameList
                0x0005a419                .dwarf.0002.daMrSun_c::daMrSun_c
                0x0005a92f                .dwarf.0006.build__9daMrSun_cFv
                0x0005ac40                .dwarf.0002.dState_c<9daMrSun_c>::dState_c
                0x0005ad31                .dwarf.0007.StateID_Follow__9daMrSun_c
                0x0005ad7a                .dwarf.0007.StateID_Swoop__9daMrSun_c
                0x0005adc1                .dwarf.0007.StateID_Spiral__9daMrSun_c
                0x0005ae0a                .dwarf.0007.StateID_Spit__9daMrSun_c
                0x0005ae4f                .dwarf.0007.StateID_Spin__9daMrSun_c
                0x0005ae94                .dwarf.0007.StateID_Wait__9daMrSun_c
                0x0005aed9                .dwarf.0006.playerCollision__9daMrSun_cFP13ActivePhysicsP13ActivePhysics
                0x0005afd3                .dwarf.0006.collisionCat1_Fireball_E_Explosion__9daMrSun_cFP13ActivePhysicsP13ActivePhysics
                0x0005b06c                .dwarf.0006.collisionCat2_IceBall_15_YoshiIce__9daMrSun_cFP13ActivePhysicsP13ActivePhysics
                0x0005b155                .dwarf.0006.collisionCat9_RollingObject__9daMrSun_cFP13ActivePhysicsP13ActivePhysics
                0x0005b210                .dwarf.0006.collisionCat13_Hammer__9daMrSun_cFP13ActivePhysicsP13ActivePhysics
                0x0005b2bf                .dwarf.0006.collisionCat3_StarPower__9daMrSun_cFP13ActivePhysicsP13ActivePhysics
                0x0005b372                .dwarf.0006.collisionCatD_Drill__9daMrSun_cFP13ActivePhysicsP13ActivePhysics
                0x0005b478                .dwarf.0006.collisionCat7_GroundPound__9daMrSun_cFP13ActivePhysicsP13ActivePhysics
                0x0005b58a                .dwarf.0006.collisionCat7_GroundPoundYoshi__9daMrSun_cFP13ActivePhysicsP13ActivePhysics
                0x0005b6a6                .dwarf.0006.collisionCatA_PenguinMario__9daMrSun_cFP13ActivePhysicsP13ActivePhysics
                0x0005b7ba                .dwarf.0006.collisionCat5_Mario__9daMrSun_cFP13ActivePhysicsP13ActivePhysics
                0x0005b8c0                .dwarf.0006.dieFall_Execute__9daMrSun_cFv
                0x0005b967                .dwarf.0006.onCreate__9daMrSun_cFv
                0x0005ba8c                .dwarf.0006.onDelete__9daMrSun_cFv
                0x0005bad2                .dwarf.0006.onExecute__9daMrSun_cFv
                0x0005bb50                .dwarf.0006.onDraw__9daMrSun_cFv
                0x0005bbbc                .dwarf.0006.updateModelMatrices__9daMrSun_cFv
                0x0005bc92                .dwarf.0006.beginState_Follow__9daMrSun_cFv
                0x0005bd10                .dwarf.0006.executeState_Follow__9daMrSun_cFv
                0x0005bddf                .dwarf.0006.endState_Follow__9daMrSun_cFv
                0x0005be59                .dwarf.0006.beginState_Swoop__9daMrSun_cFv
                0x0005bfbc                .dwarf.0006.executeState_Swoop__9daMrSun_cFv
                0x0005c042                .dwarf.0006.endState_Swoop__9daMrSun_cFv
                0x0005c0ba                .dwarf.0006.beginState_Spiral__9daMrSun_cFv
                0x0005c138                .dwarf.0006.executeState_Spiral__9daMrSun_cFv
                0x0005c228                .dwarf.0006.endState_Spiral__9daMrSun_cFv
                0x0005c278                .dwarf.0006.beginState_Spit__9daMrSun_cFv
                0x0005c2f2                .dwarf.0006.executeState_Spit__9daMrSun_cFv
                0x0005c3e5                .dwarf.0006.endState_Spit__9daMrSun_cFv
                0x0005c45b                .dwarf.0006.beginState_Spin__9daMrSun_cFv
                0x0005c4d5                .dwarf.0006.executeState_Spin__9daMrSun_cFv
                0x0005c68f                .dwarf.0006.endState_Spin__9daMrSun_cFv
                0x0005c705                .dwarf.0006.beginState_Wait__9daMrSun_cFv
                0x0005c7ac                .dwarf.0006.executeState_Wait__9daMrSun_cFv
                0x0005c888                .dwarf.0006.endState_Wait__9daMrSun_cFv
                0x0005ca0e                .dwarf.0002.daFireLaser_c::daFireLaser_c
                0x0005cb21                .dwarf.0006.build__13daFireLaser_cFv
                0x0005ce37                .dwarf.0002.dState_c<13daFireLaser_c>::dState_c
                0x0005cf28                .dwarf.0007.StateID_pewpewpew__13daFireLaser_c
                0x0005cf7c                .dwarf.0006.onCreate__13daFireLaser_cFv
                0x0005d01b                .dwarf.0006.onDelete__13daFireLaser_cFv
                0x0005d066                .dwarf.0006.onExecute__13daFireLaser_cFv
                0x0005d0e3                .dwarf.0006.onDraw__13daFireLaser_cFv
                0x0005d12a                .dwarf.0006.beginState_pewpewpew__13daFireLaser_cFv
                0x0005d1b3                .dwarf.0006.executeState_pewpewpew__13daFireLaser_cFv
                0x0005d2b4                .dwarf.0006.endState_pewpewpew__13daFireLaser_cFv
                0x0005d30f                .dwarf.0006.ThwompHammer__FP5dEn_cP13ActivePhysicsP13ActivePhysics
                0x0005d3f5                .dwarf.0006.BooHammer__FP5dEn_cP13ActivePhysicsP13ActivePhysics
                0x0005d4d2                .dwarf.0006.UrchinHammer__FP5dEn_cP13ActivePhysicsP13ActivePhysics
                0x0005d62f                .dwarf.0002.m3d::anmClr_c::child_c::child_c
                0x0005d95d                .dwarf.0002.m3d::anmClr_c::anmClr_c
                0x0005da5e                .dwarf.0002.dPlayerModel_c::dPlayerModel_c
                0x0005de66                .dwarf.0002.dHammerSuitRenderer_c::dHammerSuitRenderer_c
                0x0005dfbd                .dwarf.0006.build__21dHammerSuitRenderer_cFv
                0x0005e00f                .dwarf.0006.__ct__21dHammerSuitRenderer_cFv
                0x0005e084                .dwarf.0006.__dt__21dHammerSuitRenderer_cFv
                0x0005e0f9                .dwarf.0006.setup__21dHammerSuitRenderer_cFP21dPlayerModelHandler_c
                0x0005e265                .dwarf.0002.nw4r::g3d::ResNode::ResNode
                0x0005e2a9                .dwarf.0006.setup__21dHammerSuitRenderer_cFP21dPlayerModelHandler_ci
                0x0005e462                .dwarf.0006.draw__21dHammerSuitRenderer_cFv
                0x0005e529                .dwarf.0002.dState_c<12dStockItem_c>::dState_c
                0x0005e61a                .dwarf.0002.dStateMethodExecutor_c<12dStockItem_c>::dStateMethodExecutor_c
                0x0005e7de                .dwarf.0002.dStateExecutor_c<12dStockItem_c>::dStateExecutor_c
                0x0005ea0c                .dwarf.0002.dStateWrapperBase_c<12dStockItem_c>::dStateWrapperBase_c
                0x0005ebc4                .dwarf.0002.dStateWrapper_c<12dStockItem_c>::dStateWrapper_c
                0x0005ee0f                .dwarf.0002.dStockItemShadow_c::dStockItemShadow_c
                0x0005f287                .dwarf.0002.dStockItem_c::dStockItem_c
                0x0005f992                .dwarf.0006.setScalesOfSomeThings__12dStockItem_cFv
                0x0005fd2c                .dwarf.0002.RandomTileData::Entry::Entry
                0x0005ff00                .dwarf.0002.RandomTileData::NameList::NameList
                0x0005ff84                .dwarf.0002.RandomTileData::Section::Section
                0x0006007a                .dwarf.0002.RandomTileData::RandomTileData
                0x0006013b                .dwarf.0006.getSection__14RandomTileDataFPCc
                0x00060228                .dwarf.0007.instance__14RandomTileData
                0x0006026e                .dwarf.0007.RandTileLoader
                0x0006029a                .dwarf.0006.RandTileLoadHook
                0x00060444                .dwarf.0002.TilemapClass::TilemapClass
                0x00060721                .dwarf.0002.RTilemapClass::RTilemapClass
                0x0006079f                .dwarf.0006.IdentifyTilesets
                0x00060895                .dwarf.0013.BGRender::BGRender
                0x00060b7e                .dwarf.0006.TryAndRandomise
                0x00060f82                .dwarf.0013.SomethingAboutShrooms::info_s::info_s
                0x0006112c                .dwarf.0002.SomethingAboutShrooms::SomethingAboutShrooms
                0x00061316                .dwarf.0002.dRotatorThing_c::dRotatorThing_c
                0x00061610                .dwarf.0002.daObjKinoko_c::daObjKinoko_c
                0x000617b7                .dwarf.0006.creationHook__13daObjKinoko_cFv
                0x00061a98                .dwarf.0006.drawHook__13daObjKinoko_cFv
                0x00061b50                .dwarf.0004.daChengeBlock_c::Pattern
                0x00061c9b                .dwarf.0002.daChengeBlock_c::daChengeBlock_c
                0x00061e82                .dwarf.0004.daChengeBlock_c::Action
                0x00061eba                .dwarf.0006.doStuff__15daChengeBlock_cFQ215daChengeBlock_c6Actionb
                0x00062285                .dwarf.0013.BgActor::BgActor
                0x000623d6                .dwarf.0013.LineGod::LineGod
                0x0006261d                .dwarf.0006.LineGod_Create__FP7LineGod
                0x000626b4                .dwarf.0006.LineGod_Execute__FP7LineGod
                0x0006277d                .dwarf.0013.BgActorDef::BgActorDef
                0x000628e8                .dwarf.0006.LineGod_BuildList__FP7LineGod
                0x00062b7a                .dwarf.0006.LineGod_AppendToList__FP7LineGodP7BgActor
                0x00062c4d                .dwarf.0006.LineGod_Update__FP7LineGod
                0x00062dfa                .dwarf.0006.TilesetFixerHack__FPvPvii
                0x00062f66                .dwarf.0013.ObjLookupEntry::ObjLookupEntry
                0x00062ffe                .dwarf.0006.DoFixes__Fii
                0x00063231                .dwarf.0006.SwapObjData__FPUci
                0x00063301                .dwarf.0007.PalaceDudeFileList
                0x000633e1                .dwarf.0002.dPalaceDude_c::dPalaceDude_c
                0x00063494                .dwarf.0006.build__13dPalaceDude_cFv
                0x0006352c                .dwarf.0006.onExecute__13dPalaceDude_cFv
                0x000638c7                .dwarf.0002.dState_c<16daEnEventBlock_c>::dState_c
                0x000639b8                .dwarf.0007.StateID_Wait__16daEnEventBlock_c
                0x00063a05                .dwarf.0004.daEnEventBlock_c::Mode
                0x00063b99                .dwarf.0002.daEnEventBlock_c::daEnEventBlock_c
                0x00063cd9                .dwarf.0006.onCreate__16daEnEventBlock_cFv
                0x00063da6                .dwarf.0006.onDelete__16daEnEventBlock_cFv
                0x00063e49                .dwarf.0006.onExecute__16daEnEventBlock_cFv
                0x00063ef3                .dwarf.0006.build__16daEnEventBlock_cFv
                0x00063f94                .dwarf.0006.equaliseEvents__16daEnEventBlock_cFv
                0x00064056                .dwarf.0006.blockWasHit__16daEnEventBlock_cFb
                0x000640dc                .dwarf.0006.calledWhenUpMoveExecutes__16daEnEventBlock_cFv
                0x00064170                .dwarf.0006.calledWhenDownMoveExecutes__16daEnEventBlock_cFv
                0x00064208                .dwarf.0006.beginState_Wait__16daEnEventBlock_cFv
                0x00064260                .dwarf.0006.endState_Wait__16daEnEventBlock_cFv
                0x000642b4                .dwarf.0006.executeState_Wait__16daEnEventBlock_cFv
                0x00064368                .dwarf.0007.instance__16dMsgBoxManager_c
                0x0006462c                .dwarf.0002.dMsgBoxManager_c::dMsgBoxManager_c
                0x00064885                .dwarf.0006.build__16dMsgBoxManager_cFv
                0x00064a44                .dwarf.0002.dStateWrapper_c<16dMsgBoxManager_c>::dStateWrapper_c
                0x00064c40                .dwarf.0002.dStateWrapperBase_c<16dMsgBoxManager_c>::dStateWrapperBase_c
                0x00064e12                .dwarf.0002.dStateExecutor_c<16dMsgBoxManager_c>::dStateExecutor_c
                0x00064f75                .dwarf.0002.dStateMethodExecutor_c<16dMsgBoxManager_c>::dStateMethodExecutor_c
                0x0006513b                .dwarf.0006.onCreate__16dMsgBoxManager_cFv
                0x000651bf                .dwarf.0006.onExecute__16dMsgBoxManager_cFv
                0x00065239                .dwarf.0006.onDraw__16dMsgBoxManager_cFv
                0x000652ad                .dwarf.0006.onDelete__16dMsgBoxManager_cFv
                0x000655d7                .dwarf.0002.dState_c<16dMsgBoxManager_c>::dState_c
                0x000656c8                .dwarf.0007.StateID_LoadRes__16dMsgBoxManager_c
                0x0006571b                .dwarf.0006.beginState_LoadRes__16dMsgBoxManager_cFv
                0x00065779                .dwarf.0006.endState_LoadRes__16dMsgBoxManager_cFv
                0x000657d3                .dwarf.0006.executeState_LoadRes__16dMsgBoxManager_cFv
                0x00065865                .dwarf.0007.StateID_Wait__16dMsgBoxManager_c
                0x000658b2                .dwarf.0006.beginState_Wait__16dMsgBoxManager_cFv
                0x0006590a                .dwarf.0006.endState_Wait__16dMsgBoxManager_cFv
                0x0006595e                .dwarf.0006.executeState_Wait__16dMsgBoxManager_cFv
                0x000659e8                .dwarf.0013.dMsgBoxManager_c::entry_s::entry_s
                0x00065ace                .dwarf.0013.dMsgBoxManager_c::header_s::header_s
                0x00065b3b                .dwarf.0006.showMessage__16dMsgBoxManager_cFibi
                0x00065cb1                .dwarf.0007.StateID_BoxAppearWait__16dMsgBoxManager_c
                0x00065d10                .dwarf.0006.beginState_BoxAppearWait__16dMsgBoxManager_cFv
                0x00065de0                .dwarf.0006.executeState_BoxAppearWait__16dMsgBoxManager_cFv
                0x00065e7e                .dwarf.0006.endState_BoxAppearWait__16dMsgBoxManager_cFv
                0x00065ee4                .dwarf.0007.StateID_ShownWait__16dMsgBoxManager_c
                0x00065f3b                .dwarf.0006.beginState_ShownWait__16dMsgBoxManager_cFv
                0x00065f9d                .dwarf.0006.executeState_ShownWait__16dMsgBoxManager_cFv
                0x00066065                .dwarf.0006.endState_ShownWait__16dMsgBoxManager_cFv
                0x000660c3                .dwarf.0007.StateID_BoxDisappearWait__16dMsgBoxManager_c
                0x00066128                .dwarf.0006.beginState_BoxDisappearWait__16dMsgBoxManager_cFv
                0x000661f8                .dwarf.0006.executeState_BoxDisappearWait__16dMsgBoxManager_cFv
                0x000662b9                .dwarf.0006.endState_BoxDisappearWait__16dMsgBoxManager_cFv
                0x000665fb                .dwarf.0002.dState_c<14daEnMsgBlock_c>::dState_c
                0x000666ec                .dwarf.0007.StateID_Wait__14daEnMsgBlock_c
                0x0006687b                .dwarf.0002.daEnMsgBlock_c::daEnMsgBlock_c
                0x00066947                .dwarf.0006.onCreate__14daEnMsgBlock_cFv
                0x00066a12                .dwarf.0006.onDelete__14daEnMsgBlock_cFv
                0x00066ab3                .dwarf.0006.onExecute__14daEnMsgBlock_cFv
                0x00066b31                .dwarf.0006.build__14daEnMsgBlock_cFv
                0x00066bae                .dwarf.0006.blockWasHit__14daEnMsgBlock_cFb
                0x00066c32                .dwarf.0006.calledWhenUpMoveExecutes__14daEnMsgBlock_cFv
                0x00066cc4                .dwarf.0006.calledWhenDownMoveExecutes__14daEnMsgBlock_cFv
                0x00066d5a                .dwarf.0006.beginState_Wait__14daEnMsgBlock_cFv
                0x00066db0                .dwarf.0006.endState_Wait__14daEnMsgBlock_cFv
                0x00066e02                .dwarf.0006.executeState_Wait__14daEnMsgBlock_cFv
                0x00066f42                .dwarf.0013.EventLooper::EventLooper
                0x00067149                .dwarf.0006.EventLooper_Create__FP11EventLooper
                0x000672ae                .dwarf.0006.EventLooper_Execute__FP11EventLooper
                0x00067336                .dwarf.0006.EventLooper_Update__FP11EventLooper
                0x000674cb                .dwarf.0002.dSpriteSpawner_c::dSpriteSpawner_c
                0x000675fd                .dwarf.0006.build__16dSpriteSpawner_cFv
                0x00067698                .dwarf.0006.onCreate__16dSpriteSpawner_cFv
                0x0006775e                .dwarf.0006.onExecute__16dSpriteSpawner_cFv
                0x00067963                .dwarf.0002.SpriteSpawnerTimed::SpriteSpawnerTimed
                0x00067a84                .dwarf.0006.build__18SpriteSpawnerTimedFv
                0x00067aff                .dwarf.0006.onCreate__18SpriteSpawnerTimedFv
                0x00067bc0                .dwarf.0006.onExecute__18SpriteSpawnerTimedFv
                0x00067c65                .dwarf.0007.TMarcNameList
                0x000681d5                .dwarf.0002.daTopman::daTopman
                0x00068536                .dwarf.0006.build__8daTopmanFv
                0x0006884c                .dwarf.0002.dState_c<8daTopman>::dState_c
                0x0006893d                .dwarf.0007.StateID_Walk__8daTopman
                0x00068981                .dwarf.0007.StateID_Turn__8daTopman
                0x000689c5                .dwarf.0007.StateID_Wait__8daTopman
                0x00068a09                .dwarf.0007.StateID_KnockBack__8daTopman
                0x00068a57                .dwarf.0007.StateID_Die__8daTopman
                0x00068a99                .dwarf.0006.playerCollision__8daTopmanFP13ActivePhysicsP13ActivePhysics
                0x00068ba9                .dwarf.0006.yoshiCollision__8daTopmanFP13ActivePhysicsP13ActivePhysics
                0x00068ca0                .dwarf.0006.collisionCatD_Drill__8daTopmanFP13ActivePhysicsP13ActivePhysics
                0x00068d99                .dwarf.0006.collisionCat7_GroundPound__8daTopmanFP13ActivePhysicsP13ActivePhysics
                0x00068eaa                .dwarf.0006.collisionCat7_GroundPoundYoshi__8daTopmanFP13ActivePhysicsP13ActivePhysics
                0x00068fc5                .dwarf.0006.collisionCat9_RollingObject__8daTopmanFP13ActivePhysicsP13ActivePhysics
                0x000690a7                .dwarf.0006.collisionCat3_StarPower__8daTopmanFP13ActivePhysicsP13ActivePhysics
                0x0006915f                .dwarf.0006.collisionCat13_Hammer__8daTopmanFP13ActivePhysicsP13ActivePhysics
                0x00069213                .dwarf.0006.collisionCatA_PenguinMario__8daTopmanFP13ActivePhysicsP13ActivePhysics
                0x000692f3                .dwarf.0006.collisionCat14_YoshiFire__8daTopmanFP13ActivePhysicsP13ActivePhysics
                0x000693cf                .dwarf.0006.collisionCat1_Fireball_E_Explosion__8daTopmanFP13ActivePhysicsP13ActivePhysics
                0x000694bf                .dwarf.0006._vf148__8daTopmanFv
                0x0006952c                .dwarf.0006._vf14C__8daTopmanFv
                0x000695c7                .dwarf.0013.DoSomethingCool::DoSomethingCool
                0x00069791                .dwarf.0007.my_struct
                0x000697b8                .dwarf.0006.CreateIceActors__8daTopmanFv
                0x00069862                .dwarf.0006.addScoreWhenHit__8daTopmanFPv
                0x000698b2                .dwarf.0006.calculateTileCollisions__8daTopmanFv
                0x00069986                .dwarf.0006.bindAnimChr_and_setUpdateRate__8daTopmanFPCciff
                0x00069be4                .dwarf.0013.lineSensor_s::lineSensor_s
                0x00069dda                .dwarf.0013.pointSensor_s::pointSensor_s
                0x00069f0a                .dwarf.0006.onCreate__8daTopmanFv
                0x0006a021                .dwarf.0006.onDelete__8daTopmanFv
                0x0006a086                .dwarf.0006.onExecute__8daTopmanFv
                0x0006a13e                .dwarf.0006.onDraw__8daTopmanFv
                0x0006a1af                .dwarf.0006.updateModelMatrices__8daTopmanFv
                0x0006a230                .dwarf.0006.beginState_Walk__8daTopmanFv
                0x0006a2a9                .dwarf.0006.executeState_Walk__8daTopmanFv
                0x0006a372                .dwarf.0006.endState_Walk__8daTopmanFv
                0x0006a3e7                .dwarf.0006.beginState_Turn__8daTopmanFv
                0x0006a460                .dwarf.0006.executeState_Turn__8daTopmanFv
                0x0006a522                .dwarf.0006.endState_Turn__8daTopmanFv
                0x0006a56d                .dwarf.0006.beginState_Wait__8daTopmanFv
                0x0006a5e6                .dwarf.0006.executeState_Wait__8daTopmanFv
                0x0006a6af                .dwarf.0006.endState_Wait__8daTopmanFv
                0x0006a6fa                .dwarf.0006.beginState_Die__8daTopmanFv
                0x0006a771                .dwarf.0006.executeState_Die__8daTopmanFv
                0x0006a7ec                .dwarf.0006.endState_Die__8daTopmanFv
                0x0006a835                .dwarf.0006.beginState_KnockBack__8daTopmanFv
                0x0006a8b8                .dwarf.0006.executeState_KnockBack__8daTopmanFv
                0x0006a96a                .dwarf.0006.endState_KnockBack__8daTopmanFv
                0x0006aa0c                .dwarf.0007.MGarcNameList
                0x0006b1ac                .dwarf.0002.daMegaGoomba_c::daMegaGoomba_c
                0x0006b687                .dwarf.0006.build__14daMegaGoomba_cFv
                0x0006b704                .dwarf.0006.removeMyActivePhysics__14daMegaGoomba_cFv
                0x0006b790                .dwarf.0006.addMyActivePhysics__14daMegaGoomba_cFv
                0x0006b816                .dwarf.0006.setNewActivePhysicsRect__FP14daMegaGoomba_cP7Point3d
                0x0006ba3b                .dwarf.0006.powBlockActivated__14daMegaGoomba_cFb
                0x0006bd35                .dwarf.0002.dState_c<14daMegaGoomba_c>::dState_c
                0x0006be26                .dwarf.0007.StateID_Shrink__14daMegaGoomba_c
                0x0006be75                .dwarf.0007.StateID_Walk__14daMegaGoomba_c
                0x0006bec0                .dwarf.0007.StateID_Turn__14daMegaGoomba_c
                0x0006bf0b                .dwarf.0006.takeHit__14daMegaGoomba_cFc
                0x0006bfe6                .dwarf.0006.spriteCollision__14daMegaGoomba_cFP13ActivePhysicsP13ActivePhysics
                0x0006c05b                .dwarf.0006.playerCollision__14daMegaGoomba_cFP13ActivePhysicsP13ActivePhysics
                0x0006c149                .dwarf.0006.tryHandleJumpedOn__14daMegaGoomba_cFP13ActivePhysicsP13ActivePhysics
                0x0006c2c0                .dwarf.0006.collisionCat7_GroundPound__14daMegaGoomba_cFP13ActivePhysicsP13ActivePhysics
                0x0006c3cf                .dwarf.0006.collisionCat7_GroundPoundYoshi__14daMegaGoomba_cFP13ActivePhysicsP13ActivePhysics
                0x0006c4f1                .dwarf.0006.collisionCat1_Fireball_E_Explosion__14daMegaGoomba_cFP13ActivePhysicsP13ActivePhysics
                0x0006c590                .dwarf.0006.collisionCat2_IceBall_15_YoshiIce__14daMegaGoomba_cFP13ActivePhysicsP13ActivePhysics
                0x0006c62d                .dwarf.0006.collisionCat3_StarPower__14daMegaGoomba_cFP13ActivePhysicsP13ActivePhysics
                0x0006c735                .dwarf.0006.collisionCat9_RollingObject__14daMegaGoomba_cFP13ActivePhysicsP13ActivePhysics
                0x0006c7f6                .dwarf.0006.collisionCatA_PenguinMario__14daMegaGoomba_cFP13ActivePhysicsP13ActivePhysics
                0x0006c8b5                .dwarf.0006.collisionCatD_Drill__14daMegaGoomba_cFP13ActivePhysicsP13ActivePhysics
                0x0006c9c1                .dwarf.0006.collisionCat11_PipeCannon__14daMegaGoomba_cFP13ActivePhysicsP13ActivePhysics
                0x0006ca4e                .dwarf.0006.collisionCat13_Hammer__14daMegaGoomba_cFP13ActivePhysicsP13ActivePhysics
                0x0006cad3                .dwarf.0006.collisionCat14_YoshiFire__14daMegaGoomba_cFP13ActivePhysicsP13ActivePhysics
                0x0006cb8e                .dwarf.0006.addScoreWhenHit__14daMegaGoomba_cFPv
                0x0006cbe5                .dwarf.0006._vf120__14daMegaGoomba_cFP13ActivePhysicsP13ActivePhysics
                0x0006cc4c                .dwarf.0006._vf110__14daMegaGoomba_cFP13ActivePhysicsP13ActivePhysics
                0x0006ccb3                .dwarf.0006._vf108__14daMegaGoomba_cFP13ActivePhysicsP13ActivePhysics
                0x0006cd1a                .dwarf.0006.bindAnimChr_and_setUpdateRate__14daMegaGoomba_cFPCciff
                0x0006ce80                .dwarf.0006.dieFall_Begin__14daMegaGoomba_cFv
                0x0006cefc                .dwarf.0006.dieFall_Execute__14daMegaGoomba_cFv
                0x0006cf7c                .dwarf.0006.setupBodyModel__14daMegaGoomba_cFv
                0x0006d076                .dwarf.0006.setupCollision__14daMegaGoomba_cFv
                0x0006d113                .dwarf.0006.onCreate__14daMegaGoomba_cFv
                0x0006d18f                .dwarf.0006.onDelete__14daMegaGoomba_cFv
                0x0006d20b                .dwarf.0006.onExecute__14daMegaGoomba_cFv
                0x0006d283                .dwarf.0006.onDraw__14daMegaGoomba_cFv
                0x0006d2fb                .dwarf.0006.updateModelMatrices__14daMegaGoomba_cFv
                0x0006d383                .dwarf.0006.beginState_Shrink__14daMegaGoomba_cFv
                0x0006d432                .dwarf.0006.executeState_Shrink__14daMegaGoomba_cFv
                0x0006d4e4                .dwarf.0006.endState_Shrink__14daMegaGoomba_cFv
                0x0006d564                .dwarf.0006.beginState_Turn__14daMegaGoomba_cFv
                0x0006d5e4                .dwarf.0006.executeState_Turn__14daMegaGoomba_cFv
                0x0006d6f3                .dwarf.0006.endState_Turn__14daMegaGoomba_cFv
                0x0006d76f                .dwarf.0006.beginState_Walk__14daMegaGoomba_cFv
                0x0006d7ef                .dwarf.0006.executeState_Walk__14daMegaGoomba_cFv
                0x0006d925                .dwarf.0006.endState_Walk__14daMegaGoomba_cFv
                0x0006d977                .dwarf.0006.stunPlayers__14daMegaGoomba_cFv
                0x0006da33                .dwarf.0006.unstunPlayers__14daMegaGoomba_cFv
                0x0006daf3                .dwarf.0006.dieOther_Begin__14daMegaGoomba_cFv
                0x0006db71                .dwarf.0006.dieOther_End__14daMegaGoomba_cFv
                0x0006dbf1                .dwarf.0006.dieOther_Execute__14daMegaGoomba_cFv
                0x0006e126                .dwarf.0002.daFuzzyBear_c::daFuzzyBear_c
                0x0006e573                .dwarf.0006.build__13daFuzzyBear_cFv
                0x0006e895                .dwarf.0002.dState_c<13daFuzzyBear_c>::dState_c
                0x0006e986                .dwarf.0007.StateID_Grow__13daFuzzyBear_c
                0x0006e9d0                .dwarf.0007.StateID_Bounce__13daFuzzyBear_c
                0x0006ea1e                .dwarf.0007.StateID_RolyPoly__13daFuzzyBear_c
                0x0006ea70                .dwarf.0007.StateID_Wait__13daFuzzyBear_c
                0x0006eaba                .dwarf.0007.StateID_Outro__13daFuzzyBear_c
                0x0006eb06                .dwarf.0006.playerCollision__13daFuzzyBear_cFP13ActivePhysicsP13ActivePhysics
                0x0006ec05                .dwarf.0006.yoshiCollision__13daFuzzyBear_cFP13ActivePhysicsP13ActivePhysics
                0x0006ed02                .dwarf.0006.collisionCat1_Fireball_E_Explosion__13daFuzzyBear_cFP13ActivePhysicsP13ActivePhysics
                0x0006eda0                .dwarf.0006.collisionCat7_GroundPound__13daFuzzyBear_cFP13ActivePhysicsP13ActivePhysics
                0x0006eea4                .dwarf.0006.collisionCat7_GroundPoundYoshi__13daFuzzyBear_cFP13ActivePhysicsP13ActivePhysics
                0x0006efb9                .dwarf.0006.collisionCat9_RollingObject__13daFuzzyBear_cFP13ActivePhysicsP13ActivePhysics
                0x0006f0f2                .dwarf.0006.collisionCat13_Hammer__13daFuzzyBear_cFP13ActivePhysicsP13ActivePhysics
                0x0006f21f                .dwarf.0006.collisionCat2_IceBall_15_YoshiIce__13daFuzzyBear_cFP13ActivePhysicsP13ActivePhysics
                0x0006f2bb                .dwarf.0006.collisionCat14_YoshiFire__13daFuzzyBear_cFP13ActivePhysicsP13ActivePhysics
                0x0006f345                .dwarf.0006.collisionCatA_PenguinMario__13daFuzzyBear_cFP13ActivePhysicsP13ActivePhysics
                0x0006f45e                .dwarf.0006.bindAnimChr_and_setUpdateRate__13daFuzzyBear_cFPCciff
                0x0006f5c3                .dwarf.0006.setupBodyModel__13daFuzzyBear_cFv
                0x0006f6bc                .dwarf.0006.onCreate__13daFuzzyBear_cFv
                0x0006f764                .dwarf.0006.onDelete__13daFuzzyBear_cFv
                0x0006f7af                .dwarf.0006.onExecute__13daFuzzyBear_cFv
                0x0006f826                .dwarf.0006.onDraw__13daFuzzyBear_cFv
                0x0006f897                .dwarf.0006.updateModelMatrices__13daFuzzyBear_cFv
                0x0006f91e                .dwarf.0006.beginState_Grow__13daFuzzyBear_cFv
                0x0006f99d                .dwarf.0006.executeState_Grow__13daFuzzyBear_cFv
                0x0006fa45                .dwarf.0006.endState_Grow__13daFuzzyBear_cFv
                0x0006fac0                .dwarf.0006.beginState_Bounce__13daFuzzyBear_cFv
                0x0006fb43                .dwarf.0006.executeState_Bounce__13daFuzzyBear_cFv
                0x0006fcfe                .dwarf.0006.endState_Bounce__13daFuzzyBear_cFv
                0x0006fd53                .dwarf.0006.beginState_RolyPoly__13daFuzzyBear_cFv
                0x0006fdda                .dwarf.0006.executeState_RolyPoly__13daFuzzyBear_cFv
                0x0006febe                .dwarf.0006.endState_RolyPoly__13daFuzzyBear_cFv
                0x0006ff41                .dwarf.0006.beginState_Wait__13daFuzzyBear_cFv
                0x0006ffc0                .dwarf.0006.executeState_Wait__13daFuzzyBear_cFv
                0x00070049                .dwarf.0006.endState_Wait__13daFuzzyBear_cFv
                0x0007009a                .dwarf.0006.beginState_Outro__13daFuzzyBear_cFv
                0x00070121                .dwarf.0006.executeState_Outro__13daFuzzyBear_cFv
                0x000701c5                .dwarf.0006.endState_Outro__13daFuzzyBear_cFv
                0x000704b8                .dwarf.0002.dState_c<15daEnMegaDosun_c>::dState_c
                0x000705a9                .dwarf.0007.StateID_UpWait__15daEnMegaDosun_c
                0x000705f9                .dwarf.0007.StateID_DownMoveWait__15daEnMegaDosun_c
                0x00070655                .dwarf.0007.StateID_PuruMove__15daEnMegaDosun_c
                0x000706a9                .dwarf.0007.StateID_DownMove__15daEnMegaDosun_c
                0x000706fd                .dwarf.0007.StateID_DownWait__15daEnMegaDosun_c
                0x00070751                .dwarf.0007.StateID_UpMove__15daEnMegaDosun_c
                0x000707a1                .dwarf.0007.StateID_Grow__15daEnMegaDosun_c
                0x000707ed                .dwarf.0007.StateID_Outro__15daEnMegaDosun_c
                0x00070981                .dwarf.0002.m3d::anmVis_c::anmVis_c
                0x00070e4e                .dwarf.0002.daEnMegaDosun_c::daEnMegaDosun_c
                0x0007129d                .dwarf.0006.build__15daEnMegaDosun_cFv
                0x00071321                .dwarf.0006.powBlockActivated__15daEnMegaDosun_cFb
                0x0007137c                .dwarf.0006.playerCollision__15daEnMegaDosun_cFP13ActivePhysicsP13ActivePhysics
                0x0007147d                .dwarf.0006.collisionCat1_Fireball_E_Explosion__15daEnMegaDosun_cFP13ActivePhysicsP13ActivePhysics
                0x0007151d                .dwarf.0006.collisionCat2_IceBall_15_YoshiIce__15daEnMegaDosun_cFP13ActivePhysicsP13ActivePhysics
                0x000715bb                .dwarf.0006.collisionCat7_GroundPound__15daEnMegaDosun_cFP13ActivePhysicsP13ActivePhysics
                0x000716d4                .dwarf.0006.collisionCat9_RollingObject__15daEnMegaDosun_cFP13ActivePhysicsP13ActivePhysics
                0x00071766                .dwarf.0006.collisionCat13_Hammer__15daEnMegaDosun_cFP13ActivePhysicsP13ActivePhysics
                0x000717ec                .dwarf.0006.collisionCat14_YoshiFire__15daEnMegaDosun_cFP13ActivePhysicsP13ActivePhysics
                0x00071878                .dwarf.0006.collisionCatA_PenguinMario__15daEnMegaDosun_cFP13ActivePhysicsP13ActivePhysics
                0x00071a0e                .dwarf.0002.nw4r::g3d::ResAnmVis::ResAnmVis
                0x00071a54                .dwarf.0006.setupBodyModel__15daEnMegaDosun_cFv
                0x00071b30                .dwarf.0006.onCreate__15daEnMegaDosun_cFv
                0x00071c22                .dwarf.0006.onExecute__15daEnMegaDosun_cFv
                0x00071ce8                .dwarf.0006.onDraw__15daEnMegaDosun_cFv
                0x00071d5b                .dwarf.0006.onDelete__15daEnMegaDosun_cFv
                0x00071da8                .dwarf.0006.beginState_Grow__15daEnMegaDosun_cFv
                0x00071e29                .dwarf.0006.executeState_Grow__15daEnMegaDosun_cFv
                0x00071ed3                .dwarf.0006.endState_Grow__15daEnMegaDosun_cFv
                0x00071f50                .dwarf.0006.beginState_UpWait__15daEnMegaDosun_cFv
                0x00071fd5                .dwarf.0006.executeState_UpWait__15daEnMegaDosun_cFv
                0x00072064                .dwarf.0006.endState_UpWait__15daEnMegaDosun_cFv
                0x000720e5                .dwarf.0006.beginState_DownMoveWait__15daEnMegaDosun_cFv
                0x00072176                .dwarf.0006.executeState_DownMoveWait__15daEnMegaDosun_cFv
                0x00072211                .dwarf.0006.endState_DownMoveWait__15daEnMegaDosun_cFv
                0x00072274                .dwarf.0006.beginState_PuruMove__15daEnMegaDosun_cFv
                0x0007231d                .dwarf.0006.executeState_PuruMove__15daEnMegaDosun_cFv
                0x000723da                .dwarf.0006.endState_PuruMove__15daEnMegaDosun_cFv
                0x00072435                .dwarf.0006.beginState_DownMove__15daEnMegaDosun_cFv
                0x000724be                .dwarf.0006.executeState_DownMove__15daEnMegaDosun_cFv
                0x000725a1                .dwarf.0006.endState_DownMove__15daEnMegaDosun_cFv
                0x000725fc                .dwarf.0006.beginState_DownWait__15daEnMegaDosun_cFv
                0x0007265b                .dwarf.0006.executeState_DownWait__15daEnMegaDosun_cFv
                0x000726ee                .dwarf.0006.endState_DownWait__15daEnMegaDosun_cFv
                0x00072749                .dwarf.0006.beginState_UpMove__15daEnMegaDosun_cFv
                0x000727d4                .dwarf.0006.executeState_UpMove__15daEnMegaDosun_cFv
                0x00072863                .dwarf.0006.endState_UpMove__15daEnMegaDosun_cFv
                0x000728ba                .dwarf.0006.beginState_Outro__15daEnMegaDosun_cFv
                0x0007293d                .dwarf.0006.executeState_Outro__15daEnMegaDosun_cFv
                0x00072a1e                .dwarf.0006.endState_Outro__15daEnMegaDosun_cFv
                0x00072e76                .dwarf.0002.daRamboo_c::daRamboo_c
                0x00073214                .dwarf.0006.build__10daRamboo_cFv
                0x00073545                .dwarf.0002.dState_c<10daRamboo_c>::dState_c
                0x00073636                .dwarf.0007.StateID_Grow__10daRamboo_c
                0x0007367d                .dwarf.0007.StateID_Advance__10daRamboo_c
                0x000736ca                .dwarf.0007.StateID_Wait__10daRamboo_c
                0x00073711                .dwarf.0007.StateID_Flee__10daRamboo_c
                0x00073758                .dwarf.0007.StateID_Outro__10daRamboo_c
                0x000737a1                .dwarf.0006.playerCollision__10daRamboo_cFP13ActivePhysicsP13ActivePhysics
                0x00073891                .dwarf.0006.collisionCat1_Fireball_E_Explosion__10daRamboo_cFP13ActivePhysicsP13ActivePhysics
                0x00073958                .dwarf.0006.collisionCat2_IceBall_15_YoshiIce__10daRamboo_cFP13ActivePhysicsP13ActivePhysics
                0x000739f1                .dwarf.0006.collisionCat9_RollingObject__10daRamboo_cFP13ActivePhysicsP13ActivePhysics
                0x00073afb                .dwarf.0006.collisionCat13_Hammer__10daRamboo_cFP13ActivePhysicsP13ActivePhysics
                0x00073c07                .dwarf.0006.collisionCat7_GroundPound__10daRamboo_cFP13ActivePhysicsP13ActivePhysics
                0x00073d1b                .dwarf.0006.collisionCatA_PenguinMario__10daRamboo_cFP13ActivePhysicsP13ActivePhysics
                0x00073e31                .dwarf.0006.bindAnimChr_and_setUpdateRates__10daRamboo_cFPCcRQ23m3d8anmChr_cRQ23m3d5mdl_cf
                0x00073fbe                .dwarf.0006.setupModels__10daRamboo_cFv
                0x00074184                .dwarf.0006.onCreate__10daRamboo_cFv
                0x000742a1                .dwarf.0006.onDelete__10daRamboo_cFv
                0x000742e9                .dwarf.0006.onExecute__10daRamboo_cFv
                0x00074369                .dwarf.0006.onDraw__10daRamboo_cFv
                0x000743d7                .dwarf.0006.updateModelMatrices__10daRamboo_cFv
                0x0007445b                .dwarf.0006.beginState_Grow__10daRamboo_cFv
                0x000744d7                .dwarf.0006.executeState_Grow__10daRamboo_cFv
                0x000745ac                .dwarf.0006.endState_Grow__10daRamboo_cFv
                0x00074624                .dwarf.0006.RightmostPlayerPos__Fv
                0x000746df                .dwarf.0006.beginState_Advance__10daRamboo_cFv
                0x00074761                .dwarf.0006.executeState_Advance__10daRamboo_cFv
                0x00074805                .dwarf.0006.endState_Advance__10daRamboo_cFv
                0x00074859                .dwarf.0006.beginState_Wait__10daRamboo_cFv
                0x000748d5                .dwarf.0006.executeState_Wait__10daRamboo_cFv
                0x0007495b                .dwarf.0006.endState_Wait__10daRamboo_cFv
                0x000749d3                .dwarf.0006.beginState_Flee__10daRamboo_cFv
                0x00074a4f                .dwarf.0006.executeState_Flee__10daRamboo_cFv
                0x00074ad5                .dwarf.0006.endState_Flee__10daRamboo_cFv
                0x00074b23                .dwarf.0006.beginState_Outro__10daRamboo_cFv
                0x00074ba1                .dwarf.0006.executeState_Outro__10daRamboo_cFv
                0x00074c9d                .dwarf.0006.endState_Outro__10daRamboo_cFv
                0x00075298                .dwarf.0002.daBalboa_c::daBalboa_c
                0x000757bc                .dwarf.0006.build__10daBalboa_cFv
                0x00075adb                .dwarf.0002.dState_c<10daBalboa_c>::dState_c
                0x00075bcc                .dwarf.0007.StateID_Grow__10daBalboa_c
                0x00075c13                .dwarf.0007.StateID_ManholeUp__10daBalboa_c
                0x00075c64                .dwarf.0007.StateID_HeadPoke__10daBalboa_c
                0x00075cb3                .dwarf.0007.StateID_AllOut__10daBalboa_c
                0x00075cfe                .dwarf.0007.StateID_ThrowWrench__10daBalboa_c
                0x00075d53                .dwarf.0007.StateID_BackDown__10daBalboa_c
                0x00075da2                .dwarf.0007.StateID_Outro__10daBalboa_c
                0x00075deb                .dwarf.0007.StateID_Damage__10daBalboa_c
                0x00075e36                .dwarf.0007.StateID_RevengeUp__10daBalboa_c
                0x00075e87                .dwarf.0007.StateID_Revenge__10daBalboa_c
                0x00075ed4                .dwarf.0006.balbieCollisionCallback__FP13ActivePhysicsP13ActivePhysics
                0x00075f9c                .dwarf.0006.addScoreWhenHit__10daBalboa_cFPv
                0x00075fef                .dwarf.0006.prePlayerCollision__10daBalboa_cFP13ActivePhysicsP13ActivePhysics
                0x000760e3                .dwarf.0006.playerCollision__10daBalboa_cFP13ActivePhysicsP13ActivePhysics
                0x000761ec                .dwarf.0006.collisionCat7_GroundPound__10daBalboa_cFP13ActivePhysicsP13ActivePhysics
                0x00076319                .dwarf.0006.collisionCatD_Drill__10daBalboa_cFP13ActivePhysicsP13ActivePhysics
                0x00076421                .dwarf.0006.collisionCat1_Fireball_E_Explosion__10daBalboa_cFP13ActivePhysicsP13ActivePhysics
                0x000764bc                .dwarf.0006.collisionCat2_IceBall_15_YoshiIce__10daBalboa_cFP13ActivePhysicsP13ActivePhysics
                0x00076555                .dwarf.0006.collisionCat9_RollingObject__10daBalboa_cFP13ActivePhysicsP13ActivePhysics
                0x000765e2                .dwarf.0006.collisionCat13_Hammer__10daBalboa_cFP13ActivePhysicsP13ActivePhysics
                0x00076663                .dwarf.0006.collisionCatA_PenguinMario__10daBalboa_cFP13ActivePhysicsP13ActivePhysics
                0x00076746                .dwarf.0006.setupModels__10daBalboa_cFv
                0x00076842                .dwarf.0006.bindAnimChr_and_setUpdateRate__10daBalboa_cFPCciff
                0x000769a4                .dwarf.0006.onCreate__10daBalboa_cFv
                0x00076a76                .dwarf.0006.onDelete__10daBalboa_cFv
                0x00076abe                .dwarf.0006.onExecute__10daBalboa_cFv
                0x00076b32                .dwarf.0006.onDraw__10daBalboa_cFv
                0x00076ba0                .dwarf.0006.updateModelMatrices__10daBalboa_cFv
                0x00076c81                .dwarf.0006.beginState_Grow__10daBalboa_cFv
                0x00076cfd                .dwarf.0006.executeState_Grow__10daBalboa_cFv
                0x00076da2                .dwarf.0006.endState_Grow__10daBalboa_cFv
                0x00076e1a                .dwarf.0006.beginState_ManholeUp__10daBalboa_cFv
                0x00076ee6                .dwarf.0006.executeState_ManholeUp__10daBalboa_cFv
                0x00076f76                .dwarf.0006.endState_ManholeUp__10daBalboa_cFv
                0x00076fce                .dwarf.0006.beginState_HeadPoke__10daBalboa_cFv
                0x00077052                .dwarf.0006.executeState_HeadPoke__10daBalboa_cFv
                0x000770e0                .dwarf.0006.endState_HeadPoke__10daBalboa_cFv
                0x00077136                .dwarf.0006.beginState_AllOut__10daBalboa_cFv
                0x000771b6                .dwarf.0006.executeState_AllOut__10daBalboa_cFv
                0x00077240                .dwarf.0006.endState_AllOut__10daBalboa_cFv
                0x00077292                .dwarf.0006.beginState_ThrowWrench__10daBalboa_cFv
                0x0007731c                .dwarf.0006.executeState_ThrowWrench__10daBalboa_cFv
                0x00077454                .dwarf.0006.endState_ThrowWrench__10daBalboa_cFv
                0x000774b0                .dwarf.0006.beginState_BackDown__10daBalboa_cFv
                0x00077534                .dwarf.0006.executeState_BackDown__10daBalboa_cFv
                0x000775c2                .dwarf.0006.endState_BackDown__10daBalboa_cFv
                0x00077618                .dwarf.0006.beginState_Outro__10daBalboa_cFv
                0x00077696                .dwarf.0006.executeState_Outro__10daBalboa_cFv
                0x00077737                .dwarf.0006.endState_Outro__10daBalboa_cFv
                0x00077787                .dwarf.0006.beginState_Damage__10daBalboa_cFv
                0x00077807                .dwarf.0006.executeState_Damage__10daBalboa_cFv
                0x00077897                .dwarf.0006.endState_Damage__10daBalboa_cFv
                0x00077919                .dwarf.0006.beginState_RevengeUp__10daBalboa_cFv
                0x0007799f                .dwarf.0006.executeState_RevengeUp__10daBalboa_cFv
                0x00077a2f                .dwarf.0006.endState_RevengeUp__10daBalboa_cFv
                0x00077a87                .dwarf.0006.beginState_Revenge__10daBalboa_cFv
                0x00077b09                .dwarf.0006.executeState_Revenge__10daBalboa_cFv
                0x00077c39                .dwarf.0006.endState_Revenge__10daBalboa_cFv
                0x00077f57                .dwarf.0002.dState_c<8daWrench>::dState_c
                0x00078048                .dwarf.0007.StateID_Straight__8daWrench
                0x00078094                .dwarf.0007.StateID_Kaboom__8daWrench
                0x000783de                .dwarf.0002.daWrench::daWrench
                0x000785d9                .dwarf.0006.playerCollision__8daWrenchFP13ActivePhysicsP13ActivePhysics
                0x000786d2                .dwarf.0006.collisionCat1_Fireball_E_Explosion__8daWrenchFP13ActivePhysicsP13ActivePhysics
                0x0007876a                .dwarf.0006.collisionCat2_IceBall_15_YoshiIce__8daWrenchFP13ActivePhysicsP13ActivePhysics
                0x00078800                .dwarf.0006.collisionCat9_RollingObject__8daWrenchFP13ActivePhysicsP13ActivePhysics
                0x0007888a                .dwarf.0006.collisionCat13_Hammer__8daWrenchFP13ActivePhysicsP13ActivePhysics
                0x00078932                .dwarf.0006.collisionCat14_YoshiFire__8daWrenchFP13ActivePhysicsP13ActivePhysics
                0x000789b6                .dwarf.0006.collisionCat7_GroundPound__8daWrenchFP13ActivePhysicsP13ActivePhysics
                0x00078a8e                .dwarf.0006.build__8daWrenchFv
                0x00078be0                .dwarf.0006.onCreate__8daWrenchFv
                0x00078ccc                .dwarf.0006.onDelete__8daWrenchFv
                0x00078d11                .dwarf.0006.onDraw__8daWrenchFv
                0x00078d82                .dwarf.0006.updateModelMatrices__8daWrenchFv
                0x00078e23                .dwarf.0006.onExecute__8daWrenchFv
                0x00078edb                .dwarf.0006.beginState_Kaboom__8daWrenchFv
                0x00078f78                .dwarf.0006.executeState_Kaboom__8daWrenchFv
                0x00078ff9                .dwarf.0006.endState_Kaboom__8daWrenchFv
                0x00079048                .dwarf.0006.beginState_Straight__8daWrenchFv
                0x000790e9                .dwarf.0006.executeState_Straight__8daWrenchFv
                0x0007916e                .dwarf.0006.endState_Straight__8daWrenchFv
                0x000791e4                .dwarf.0007.SSarcNameList
                0x00079866                .dwarf.0002.daSamurshai::daSamurshai
                0x00079d1d                .dwarf.0006.build__11daSamurshaiFv
                0x0007a04f                .dwarf.0002.dState_c<11daSamurshai>::dState_c
                0x0007a140                .dwarf.0007.StateID_Intro__11daSamurshai
                0x0007a18a                .dwarf.0007.StateID_Walk__11daSamurshai
                0x0007a1d2                .dwarf.0007.StateID_Turn__11daSamurshai
                0x0007a21a                .dwarf.0007.StateID_Chop__11daSamurshai
                0x0007a262                .dwarf.0007.StateID_ChargeSlash__11daSamurshai
                0x0007a2b8                .dwarf.0007.StateID_Uppercut__11daSamurshai
                0x0007a308                .dwarf.0007.StateID_SpinAttack__11daSamurshai
                0x0007a35c                .dwarf.0007.StateID_Damage__11daSamurshai
                0x0007a3a8                .dwarf.0007.StateID_Outro__11daSamurshai
                0x0007a3f2                .dwarf.0006.ChucksAndKnucks__FP13ActivePhysicsP13ActivePhysics
                0x0007a4a4                .dwarf.0006.playerCollision__11daSamurshaiFP13ActivePhysicsP13ActivePhysics
                0x0007a5ee                .dwarf.0006.yoshiCollision__11daSamurshaiFP13ActivePhysicsP13ActivePhysics
                0x0007a6e9                .dwarf.0006.collisionCatD_Drill__11daSamurshaiFP13ActivePhysicsP13ActivePhysics
                0x0007a7f2                .dwarf.0006.collisionCat7_GroundPound__11daSamurshaiFP13ActivePhysicsP13ActivePhysics
                0x0007a8da                .dwarf.0006.collisionCat7_GroundPoundYoshi__11daSamurshaiFP13ActivePhysicsP13ActivePhysics
                0x0007a9f9                .dwarf.0006.collisionCat9_RollingObject__11daSamurshaiFP13ActivePhysicsP13ActivePhysics
                0x0007aabd                .dwarf.0006.collisionCat3_StarPower__11daSamurshaiFP13ActivePhysicsP13ActivePhysics
                0x0007ab43                .dwarf.0006.collisionCatA_PenguinMario__11daSamurshaiFP13ActivePhysicsP13ActivePhysics
                0x0007ac21                .dwarf.0006.collisionCat14_YoshiFire__11daSamurshaiFP13ActivePhysicsP13ActivePhysics
                0x0007aca9                .dwarf.0006.collisionCat1_Fireball_E_Explosion__11daSamurshaiFP13ActivePhysicsP13ActivePhysics
                0x0007ad45                .dwarf.0006.collisionCat2_IceBall_15_YoshiIce__11daSamurshaiFP13ActivePhysicsP13ActivePhysics
                0x0007addf                .dwarf.0006.collisionCat13_Hammer__11daSamurshaiFP13ActivePhysicsP13ActivePhysics
                0x0007ae61                .dwarf.0006.addScoreWhenHit__11daSamurshaiFPv
                0x0007aeb5                .dwarf.0006.powBlockActivated__11daSamurshaiFb
                0x0007af0c                .dwarf.0006.calculateTileCollisions__11daSamurshaiFv
                0x0007afc2                .dwarf.0006.bindAnimChr_and_setUpdateRate__11daSamurshaiFPCciff
                0x0007b213                .dwarf.0006.onCreate__11daSamurshaiFv
                0x0007b382                .dwarf.0006.onDelete__11daSamurshaiFv
                0x0007b3cb                .dwarf.0006.onExecute__11daSamurshaiFv
                0x0007b440                .dwarf.0006.onDraw__11daSamurshaiFv
                0x0007b4af                .dwarf.0006.updateModelMatrices__11daSamurshaiFv
                0x0007b534                .dwarf.0006.beginState_Intro__11daSamurshaiFv
                0x0007b61d                .dwarf.0006.executeState_Intro__11daSamurshaiFv
                0x0007b6f1                .dwarf.0006.endState_Intro__11daSamurshaiFv
                0x0007b78c                .dwarf.0006.randomPlayer__11daSamurshaiFv
                0x0007b862                .dwarf.0006.beginState_Walk__11daSamurshaiFv
                0x0007b8df                .dwarf.0006.executeState_Walk__11daSamurshaiFv
                0x0007ba09                .dwarf.0006.endState_Walk__11daSamurshaiFv
                0x0007ba58                .dwarf.0006.beginState_Turn__11daSamurshaiFv
                0x0007bad5                .dwarf.0006.executeState_Turn__11daSamurshaiFv
                0x0007bb9b                .dwarf.0006.endState_Turn__11daSamurshaiFv
                0x0007bbea                .dwarf.0006.beginState_Chop__11daSamurshaiFv
                0x0007bc67                .dwarf.0006.executeState_Chop__11daSamurshaiFv
                0x0007bcf4                .dwarf.0006.endState_Chop__11daSamurshaiFv
                0x0007bd43                .dwarf.0006.beginState_ChargeSlash__11daSamurshaiFv
                0x0007bdce                .dwarf.0006.executeState_ChargeSlash__11daSamurshaiFv
                0x0007beac                .dwarf.0006.endState_ChargeSlash__11daSamurshaiFv
                0x0007bf33                .dwarf.0006.beginState_Uppercut__11daSamurshaiFv
                0x0007bfb8                .dwarf.0006.executeState_Uppercut__11daSamurshaiFv
                0x0007c072                .dwarf.0006.endState_Uppercut__11daSamurshaiFv
                0x0007c0f3                .dwarf.0006.beginState_SpinAttack__11daSamurshaiFv
                0x0007c182                .dwarf.0006.executeState_SpinAttack__11daSamurshaiFv
                0x0007c234                .dwarf.0006.endState_SpinAttack__11daSamurshaiFv
                0x0007c28f                .dwarf.0006.beginState_Damage__11daSamurshaiFv
                0x0007c316                .dwarf.0006.executeState_Damage__11daSamurshaiFv
                0x0007c3a1                .dwarf.0006.endState_Damage__11daSamurshaiFv
                0x0007c41e                .dwarf.0006.beginState_Outro__11daSamurshaiFv
                0x0007c4a3                .dwarf.0006.executeState_Outro__11daSamurshaiFv
                0x0007c52c                .dwarf.0006.endState_Outro__11daSamurshaiFv
                0x0007c57d                .dwarf.0006.isNearWall__11daSamurshaiFv
                0x0007c6e2                .dwarf.0006.poodleCollisionCallback__FP13ActivePhysicsP13ActivePhysics
                0x0007cca2                .dwarf.0002.daPodouble::daPodouble
                0x0007d045                .dwarf.0006.build__10daPodoubleFv
                0x0007d376                .dwarf.0002.dState_c<10daPodouble>::dState_c
                0x0007d467                .dwarf.0007.StateID_Bounce__10daPodouble
                0x0007d4b2                .dwarf.0007.StateID_Spit__10daPodouble
                0x0007d4f9                .dwarf.0007.StateID_Damage__10daPodouble
                0x0007d544                .dwarf.0007.StateID_Grow__10daPodouble
                0x0007d58b                .dwarf.0007.StateID_Outro__10daPodouble
                0x0007d5d4                .dwarf.0007.StateID_SyncDie__10daPodouble
                0x0007d621                .dwarf.0006.playerCollision__10daPodoubleFP13ActivePhysicsP13ActivePhysics
                0x0007d71d                .dwarf.0006.yoshiCollision__10daPodoubleFP13ActivePhysicsP13ActivePhysics
                0x0007d817                .dwarf.0006.collisionCat7_GroundPound__10daPodoubleFP13ActivePhysicsP13ActivePhysics
                0x0007d92b                .dwarf.0006.collisionCat7_GroundPoundYoshi__10daPodoubleFP13ActivePhysicsP13ActivePhysics
                0x0007da49                .dwarf.0006.collisionCatA_PenguinMario__10daPodoubleFP13ActivePhysicsP13ActivePhysics
                0x0007db5f                .dwarf.0006.collisionCatD_Drill__10daPodoubleFP13ActivePhysicsP13ActivePhysics
                0x0007dbdc                .dwarf.0006.collisionCat9_RollingObject__10daPodoubleFP13ActivePhysicsP13ActivePhysics
                0x0007dc69                .dwarf.0006.collisionCat3_StarPower__10daPodoubleFP13ActivePhysicsP13ActivePhysics
                0x0007dcee                .dwarf.0006.collisionCat13_Hammer__10daPodoubleFP13ActivePhysicsP13ActivePhysics
                0x0007dd9b                .dwarf.0006.collisionCat14_YoshiFire__10daPodoubleFP13ActivePhysicsP13ActivePhysics
                0x0007de80                .dwarf.0006.collisionCat1_Fireball_E_Explosion__10daPodoubleFP13ActivePhysicsP13ActivePhysics
                0x0007df51                .dwarf.0006.collisionCat2_IceBall_15_YoshiIce__10daPodoubleFP13ActivePhysicsP13ActivePhysics
                0x0007e048                .dwarf.0006.updateHitboxSize__10daPodoubleFv
                0x0007e0c6                .dwarf.0006.onCreate__10daPodoubleFv
                0x0007e21a                .dwarf.0006.onDelete__10daPodoubleFv
                0x0007e262                .dwarf.0006.onExecute__10daPodoubleFv
                0x0007e46c                .dwarf.0006.onDraw__10daPodoubleFv
                0x0007e4e0                .dwarf.0006.beginState_Grow__10daPodoubleFv
                0x0007e55c                .dwarf.0006.executeState_Grow__10daPodoubleFv
                0x0007e6cd                .dwarf.0006.endState_Grow__10daPodoubleFv
                0x0007e745                .dwarf.0006.beginState_Bounce__10daPodoubleFv
                0x0007e7c5                .dwarf.0006.executeState_Bounce__10daPodoubleFv
                0x0007e84f                .dwarf.0006.endState_Bounce__10daPodoubleFv
                0x0007e8cb                .dwarf.0006.beginState_Spit__10daPodoubleFv
                0x0007e947                .dwarf.0006.executeState_Spit__10daPodoubleFv
                0x0007eaa3                .dwarf.0006.endState_Spit__10daPodoubleFv
                0x0007eb1b                .dwarf.0006.beginState_Damage__10daPodoubleFv
                0x0007eb9b                .dwarf.0006.executeState_Damage__10daPodoubleFv
                0x0007ecb7                .dwarf.0006.endState_Damage__10daPodoubleFv
                0x0007ed33                .dwarf.0006.beginState_Outro__10daPodoubleFv
                0x0007ee21                .dwarf.0006.executeState_Outro__10daPodoubleFv
                0x0007eef2                .dwarf.0006.endState_Outro__10daPodoubleFv
                0x0007ef42                .dwarf.0006.beginState_SyncDie__10daPodoubleFv
                0x0007efee                .dwarf.0006.executeState_SyncDie__10daPodoubleFv
                0x0007f074                .dwarf.0006.endState_SyncDie__10daPodoubleFv
                0x0007f73d                .dwarf.0002.daDreidel::daDreidel
                0x0007fb7b                .dwarf.0006.build__9daDreidelFv
                0x0007fe98                .dwarf.0002.dState_c<9daDreidel>::dState_c
                0x0007ff89                .dwarf.0007.StateID_Walk__9daDreidel
                0x0007ffce                .dwarf.0007.StateID_Turn__9daDreidel
                0x00080013                .dwarf.0007.StateID_KnockBack__9daDreidel
                0x00080062                .dwarf.0007.StateID_ChargePrep__9daDreidel
                0x000800b3                .dwarf.0007.StateID_Charge__9daDreidel
                0x000800fc                .dwarf.0007.StateID_ChargeRecover__9daDreidel
                0x00080153                .dwarf.0007.StateID_Damage__9daDreidel
                0x0008019c                .dwarf.0007.StateID_Grow__9daDreidel
                0x000801e1                .dwarf.0007.StateID_Outro__9daDreidel
                0x00080228                .dwarf.0006.addScoreWhenHit__9daDreidelFPv
                0x00080279                .dwarf.0006.spriteCollision__9daDreidelFP13ActivePhysicsP13ActivePhysics
                0x00080373                .dwarf.0006.playerCollision__9daDreidelFP13ActivePhysicsP13ActivePhysics
                0x000804a8                .dwarf.0006.yoshiCollision__9daDreidelFP13ActivePhysicsP13ActivePhysics
                0x000805a0                .dwarf.0006.collisionCatD_Drill__9daDreidelFP13ActivePhysicsP13ActivePhysics
                0x000806a6                .dwarf.0006.collisionCat7_GroundPound__9daDreidelFP13ActivePhysicsP13ActivePhysics
                0x000807b8                .dwarf.0006.collisionCat7_GroundPoundYoshi__9daDreidelFP13ActivePhysicsP13ActivePhysics
                0x000808d4                .dwarf.0006.collisionCat9_RollingObject__9daDreidelFP13ActivePhysicsP13ActivePhysics
                0x0008098f                .dwarf.0006.collisionCatA_PenguinMario__9daDreidelFP13ActivePhysicsP13ActivePhysics
                0x00080a48                .dwarf.0006.collisionCat3_StarPower__9daDreidelFP13ActivePhysicsP13ActivePhysics
                0x00080acb                .dwarf.0006.collisionCat13_Hammer__9daDreidelFP13ActivePhysicsP13ActivePhysics
                0x00080b4a                .dwarf.0006.collisionCat14_YoshiFire__9daDreidelFP13ActivePhysicsP13ActivePhysics
                0x00080bcf                .dwarf.0006.collisionCat1_Fireball_E_Explosion__9daDreidelFP13ActivePhysicsP13ActivePhysics
                0x00080c68                .dwarf.0006.collisionCat2_IceBall_15_YoshiIce__9daDreidelFP13ActivePhysicsP13ActivePhysics
                0x00080cff                .dwarf.0006.powBlockActivated__9daDreidelFb
                0x00080d53                .dwarf.0006.calculateTileCollisions__9daDreidelFv
                0x00080e28                .dwarf.0006.bindAnimChr_and_setUpdateRate__9daDreidelFPCciff
                0x0008106d                .dwarf.0006.onCreate__9daDreidelFv
                0x0008117f                .dwarf.0006.onDelete__9daDreidelFv
                0x000811c5                .dwarf.0006.onExecute__9daDreidelFv
                0x00081237                .dwarf.0006.onDraw__9daDreidelFv
                0x000812a3                .dwarf.0006.updateModelMatrices__9daDreidelFv
                0x00081325                .dwarf.0006.beginState_Grow__9daDreidelFv
                0x0008139f                .dwarf.0006.executeState_Grow__9daDreidelFv
                0x00081442                .dwarf.0006.endState_Grow__9daDreidelFv
                0x000814b8                .dwarf.0006.beginState_Walk__9daDreidelFv
                0x00081532                .dwarf.0006.executeState_Walk__9daDreidelFv
                0x000815f4                .dwarf.0006.endState_Walk__9daDreidelFv
                0x0008166a                .dwarf.0006.beginState_Turn__9daDreidelFv
                0x000816e4                .dwarf.0006.executeState_Turn__9daDreidelFv
                0x000817ad                .dwarf.0006.endState_Turn__9daDreidelFv
                0x00081823                .dwarf.0006.beginState_KnockBack__9daDreidelFv
                0x000818a7                .dwarf.0006.executeState_KnockBack__9daDreidelFv
                0x0008195a                .dwarf.0006.endState_KnockBack__9daDreidelFv
                0x000819da                .dwarf.0006.beginState_ChargePrep__9daDreidelFv
                0x00081a66                .dwarf.0006.executeState_ChargePrep__9daDreidelFv
                0x00081af6                .dwarf.0006.endState_ChargePrep__9daDreidelFv
                0x00081b4e                .dwarf.0006.beginState_Charge__9daDreidelFv
                0x00081bcc                .dwarf.0006.executeState_Charge__9daDreidelFv
                0x00081c98                .dwarf.0006.endState_Charge__9daDreidelFv
                0x00081d12                .dwarf.0006.beginState_ChargeRecover__9daDreidelFv
                0x00081da4                .dwarf.0006.executeState_ChargeRecover__9daDreidelFv
                0x00081e3a                .dwarf.0006.endState_ChargeRecover__9daDreidelFv
                0x00081e98                .dwarf.0006.beginState_Damage__9daDreidelFv
                0x00081f67                .dwarf.0006.executeState_Damage__9daDreidelFv
                0x0008201a                .dwarf.0006.endState_Damage__9daDreidelFv
                0x00082094                .dwarf.0006.beginState_Outro__9daDreidelFv
                0x00082116                .dwarf.0006.executeState_Outro__9daDreidelFv
                0x000821b5                .dwarf.0006.endState_Outro__9daDreidelFv
                0x00082226                .dwarf.0007.PCCarcNameList
                0x00082252                .dwarf.0006.CConDraw__FP5dEn_c
                0x0008232d                .dwarf.0006.CConExecute__FP5dEn_c
                0x00082432                .dwarf.0006.CCafterCreate__FP5dEn_cUi
                0x00082593                .dwarf.0006.CConExecuteMove__FP5dEn_c
                0x0008278c                .dwarf.0006.newClownCtor__FP5dEn_c
                0x000827ff                .dwarf.0006.newClownDtor__FP5dEn_cUi
                0x000828bb                .dwarf.0006.JrClownForPlayer_playAccelSound
                0x00082a37                .dwarf.0002.daClownShot::daClownShot
                0x00082b29                .dwarf.0006.playerCollision__11daClownShotFP13ActivePhysicsP13ActivePhysics
                0x00082b9b                .dwarf.0006.build__11daClownShotFv
                0x00082d09                .dwarf.0006.onCreate__11daClownShotFv
                0x00082e10                .dwarf.0006.onDraw__11daClownShotFv
                0x00082e9f                .dwarf.0006.onExecute__11daClownShotFv
                0x00082f8b                .dwarf.0006.Amp_NewPreSpriteCollision
                0x0008303a                .dwarf.0006.KazanRock_CollisionCallback
                0x000830e6                .dwarf.0007.CBarcNameList
                0x00083573                .dwarf.0002.daCaptainBowser::daCaptainBowser
                0x00084085                .dwarf.0006.build__15daCaptainBowserFv
                0x000843c7                .dwarf.0002.dState_c<15daCaptainBowser>::dState_c
                0x000844b8                .dwarf.0007.StateID_Wait__15daCaptainBowser
                0x00084504                .dwarf.0007.StateID_Throw__15daCaptainBowser
                0x00084552                .dwarf.0007.StateID_Fire__15daCaptainBowser
                0x0008459e                .dwarf.0007.StateID_Roar__15daCaptainBowser
                0x000845ea                .dwarf.0007.StateID_Damage__15daCaptainBowser
                0x0008463a                .dwarf.0007.StateID_Intro__15daCaptainBowser
                0x00084688                .dwarf.0007.StateID_FinalAttack__15daCaptainBowser
                0x000846e2                .dwarf.0007.StateID_Outro__15daCaptainBowser
                0x00084730                .dwarf.0007.StateID_PanToExit__15daCaptainBowser
                0x00084786                .dwarf.0006.addScoreWhenHit__15daCaptainBowserFPv
                0x000847de                .dwarf.0006.collisionCat13_Hammer__15daCaptainBowserFP13ActivePhysicsP13ActivePhysics
                0x000848b7                .dwarf.0006.spriteCollision__15daCaptainBowserFP13ActivePhysicsP13ActivePhysics
                0x0008498b                .dwarf.0006.playerCollision__15daCaptainBowserFP13ActivePhysicsP13ActivePhysics
                0x00084a8c                .dwarf.0006.bindAnimChr_and_setUpdateRate__15daCaptainBowserFPCciff
                0x00084e23                .dwarf.0006.onCreate__15daCaptainBowserFv
                0x0008501a                .dwarf.0006.onDelete__15daCaptainBowserFv
                0x00085091                .dwarf.0006.afterExecute__15daCaptainBowserFi
                0x0008513d                .dwarf.0006.onExecute__15daCaptainBowserFv
                0x00085290                .dwarf.0006.onDraw__15daCaptainBowserFv
                0x0008532a                .dwarf.0006.beginState_Intro__15daCaptainBowserFv
                0x000853ad                .dwarf.0006.executeState_Intro__15daCaptainBowserFv
                0x00085493                .dwarf.0006.endState_Intro__15daCaptainBowserFv
                0x00085512                .dwarf.0006.beginState_Wait__15daCaptainBowserFv
                0x00085593                .dwarf.0006.executeState_Wait__15daCaptainBowserFv
                0x00085643                .dwarf.0006.endState_Wait__15daCaptainBowserFv
                0x00085696                .dwarf.0006.beginState_Throw__15daCaptainBowserFv
                0x00085719                .dwarf.0006.executeState_Throw__15daCaptainBowserFv
                0x000857e4                .dwarf.0006.endState_Throw__15daCaptainBowserFv
                0x00085839                .dwarf.0006.beginState_Fire__15daCaptainBowserFv
                0x000858ba                .dwarf.0006.executeState_Fire__15daCaptainBowserFv
                0x00085945                .dwarf.0006.endState_Fire__15daCaptainBowserFv
                0x00085998                .dwarf.0006.beginState_Roar__15daCaptainBowserFv
                0x00085a19                .dwarf.0006.executeState_Roar__15daCaptainBowserFv
                0x00085ada                .dwarf.0006.endState_Roar__15daCaptainBowserFv
                0x00085b57                .dwarf.0006.beginState_Damage__15daCaptainBowserFv
                0x00085bdc                .dwarf.0006.executeState_Damage__15daCaptainBowserFv
                0x00085c6b                .dwarf.0006.endState_Damage__15daCaptainBowserFv
                0x00085cec                .dwarf.0006.initiateDeathSequence__15daCaptainBowserFv
                0x00085d91                .dwarf.0006.beginState_FinalAttack__15daCaptainBowserFv
                0x00085ea2                .dwarf.0006.executeState_FinalAttack__15daCaptainBowserFv
                0x00086105                .dwarf.0006.endState_FinalAttack__15daCaptainBowserFv
                0x00086166                .dwarf.0006.beginState_Outro__15daCaptainBowserFv
                0x00086362                .dwarf.0006.executeState_Outro__15daCaptainBowserFv
                0x00086a51                .dwarf.0006.endState_Outro__15daCaptainBowserFv
                0x00086aa6                .dwarf.0006.beginState_PanToExit__15daCaptainBowserFv
                0x00086b31                .dwarf.0006.endState_PanToExit__15daCaptainBowserFv
                0x00086b8e                .dwarf.0006.executeState_PanToExit__15daCaptainBowserFv
                0x00086ceb                .dwarf.0013.TypeInfo::TypeInfo
                0x00086f5a                .dwarf.0007.KPTarcNameList
                0x00087226                .dwarf.0002.dState_c<12daKoopaThrow>::dState_c
                0x00087317                .dwarf.0007.StateID_Straight__12daKoopaThrow
                0x00087678                .dwarf.0002.daKoopaThrow::daKoopaThrow
                0x00087902                .dwarf.0006.playerCollision__12daKoopaThrowFP13ActivePhysicsP13ActivePhysics
                0x00087a11                .dwarf.0006.spriteCollision__12daKoopaThrowFP13ActivePhysicsP13ActivePhysics
                0x00087a84                .dwarf.0006.collisionCat1_Fireball_E_Explosion__12daKoopaThrowFP13ActivePhysicsP13ActivePhysics
                0x00087b21                .dwarf.0006.collisionCat2_IceBall_15_YoshiIce__12daKoopaThrowFP13ActivePhysicsP13ActivePhysics
                0x00087bbc                .dwarf.0006.collisionCat9_RollingObject__12daKoopaThrowFP13ActivePhysicsP13ActivePhysics
                0x00087c4b                .dwarf.0006.collisionCat13_Hammer__12daKoopaThrowFP13ActivePhysicsP13ActivePhysics
                0x00087cf8                .dwarf.0006.collisionCat14_YoshiFire__12daKoopaThrowFP13ActivePhysicsP13ActivePhysics
                0x00087d81                .dwarf.0006.collisionCat7_GroundPound__12daKoopaThrowFP13ActivePhysicsP13ActivePhysics
                0x00087e91                .dwarf.0006.build__12daKoopaThrowFv
                0x00087ffd                .dwarf.0006.onCreate__12daKoopaThrowFv
                0x00088148                .dwarf.0006.onDelete__12daKoopaThrowFv
                0x000881bc                .dwarf.0006.onDraw__12daKoopaThrowFv
                0x00088232                .dwarf.0006.updateModelMatrices__12daKoopaThrowFv
                0x000882d8                .dwarf.0006.onExecute__12daKoopaThrowFv
                0x00088395                .dwarf.0006.beginState_Straight__12daKoopaThrowFv
                0x0008843b                .dwarf.0006.executeState_Straight__12daKoopaThrowFv
                0x000884c5                .dwarf.0006.endState_Straight__12daKoopaThrowFv
                0x00088659                .dwarf.0002.daKoopaBreath::daKoopaBreath
                0x000886ce                .dwarf.0006.playerCollision__13daKoopaBreathFP13ActivePhysicsP13ActivePhysics
                0x000887cd                .dwarf.0006.spriteCollision__13daKoopaBreathFP13ActivePhysicsP13ActivePhysics
                0x00088841                .dwarf.0006.build__13daKoopaBreathFv
                0x000888c3                .dwarf.0006.onCreate__13daKoopaBreathFv
                0x00088986                .dwarf.0006.onExecute__13daKoopaBreathFv
                0x00088a44                .dwarf.0007.BridgeBowserHP
                0x00088a6e                .dwarf.0007.lastBomb
                0x00088b1d                .dwarf.0002.daBossKoopa_c::daBossKoopa_c
                0x00088b8b                .dwarf.0006.BowserDoomSpriteCollision__FP5dEn_cP13ActivePhysicsP13ActivePhysics
                0x00088cc7                .dwarf.0006.BowserDoomStart__FP13dStageActor_c
                0x00088d47                .dwarf.0006.BowserDoomExecute__FP13dStageActor_c
                0x00088dd5                .dwarf.0006.BowserDoomEnd__FP13dStageActor_c
                0x00088e55                .dwarf.0006.BowserStartEnd__FP13dStageActor_c
                0x00088ecb                .dwarf.0007.BDarcNameList
                0x000891a8                .dwarf.0002.dDroppedBomb::dDroppedBomb
                0x0008927a                .dwarf.0006.playerCollision__12dDroppedBombFP13ActivePhysicsP13ActivePhysics
                0x00089372                .dwarf.0006.build__12dDroppedBombFv
                0x000893e7                .dwarf.0006.collisionCat1_Fireball_E_Explosion__12dDroppedBombFP13ActivePhysicsP13ActivePhysics
                0x00089484                .dwarf.0006.collisionCat2_IceBall_15_YoshiIce__12dDroppedBombFP13ActivePhysicsP13ActivePhysics
                0x0008951f                .dwarf.0006.collisionCat9_RollingObject__12dDroppedBombFP13ActivePhysicsP13ActivePhysics
                0x000895ae                .dwarf.0006.collisionCat13_Hammer__12dDroppedBombFP13ActivePhysicsP13ActivePhysics
                0x00089631                .dwarf.0006.collisionCat14_YoshiFire__12dDroppedBombFP13ActivePhysicsP13ActivePhysics
                0x000896ba                .dwarf.0006.collisionCat7_GroundPound__12dDroppedBombFP13ActivePhysicsP13ActivePhysics
                0x00089745                .dwarf.0006.kill__12dDroppedBombFv
                0x0008989e                .dwarf.0006.onCreate__12dDroppedBombFv
                0x00089983                .dwarf.0006.onDelete__12dDroppedBombFv
                0x000899cd                .dwarf.0006.onDraw__12dDroppedBombFv
                0x00089a43                .dwarf.0006.updateModelMatrices__12dDroppedBombFv
                0x00089ae9                .dwarf.0006.onExecute__12dDroppedBombFv
                0x00089c8c                .dwarf.0002.dBombDrop::dBombDrop
                0x00089d79                .dwarf.0006.build__9dBombDropFv
                0x00089dea                .dwarf.0007.HackyBombDropVariable
                0x00089e1b                .dwarf.0006.onCreate__9dBombDropFv
                0x00089eba                .dwarf.0006.onDelete__9dBombDropFv
                0x00089f00                .dwarf.0006.onDraw__9dBombDropFv
                0x00089f42                .dwarf.0006.onExecute__9dBombDropFv
                0x0008a0b2                .dwarf.0002.EffectVideo::EffectVideo
                0x0008a1df                .dwarf.0006.build__11EffectVideoFv
                0x0008a253                .dwarf.0006.onCreate__11EffectVideoFv
                0x0008a2ea                .dwarf.0006.onDelete__11EffectVideoFv
                0x0008a333                .dwarf.0006.onExecute__11EffectVideoFv
                0x0008a76e                .dwarf.0002.daFakeStarCoin::daFakeStarCoin
                0x0008a8cf                .dwarf.0006.playerCollision__14daFakeStarCoinFP13ActivePhysicsP13ActivePhysics
                0x0008a96e                .dwarf.0006.collisionCat7_GroundPound__14daFakeStarCoinFP13ActivePhysicsP13ActivePhysics
                0x0008aa86                .dwarf.0006.collisionCat7_GroundPoundYoshi__14daFakeStarCoinFP13ActivePhysicsP13ActivePhysics
                0x0008aba8                .dwarf.0006.collisionCatD_Drill__14daFakeStarCoinFP13ActivePhysicsP13ActivePhysics
                0x0008acb4                .dwarf.0006.collisionCatA_PenguinMario__14daFakeStarCoinFP13ActivePhysicsP13ActivePhysics
                0x0008adce                .dwarf.0006.collisionCat1_Fireball_E_Explosion__14daFakeStarCoinFP13ActivePhysicsP13ActivePhysics
                0x0008ae97                .dwarf.0006.collisionCat2_IceBall_15_YoshiIce__14daFakeStarCoinFP13ActivePhysicsP13ActivePhysics
                0x0008af5e                .dwarf.0006.collisionCat9_RollingObject__14daFakeStarCoinFP13ActivePhysicsP13ActivePhysics
                0x0008b019                .dwarf.0006.collisionCat13_Hammer__14daFakeStarCoinFP13ActivePhysicsP13ActivePhysics
                0x0008b129                .dwarf.0006.collisionCat14_YoshiFire__14daFakeStarCoinFP13ActivePhysicsP13ActivePhysics
                0x0008b23f                .dwarf.0006.collisionCat3_StarPower__14daFakeStarCoinFP13ActivePhysicsP13ActivePhysics
                0x0008b353                .dwarf.0006.build__14daFakeStarCoinFv
                0x0008b3ca                .dwarf.0006.onCreate__14daFakeStarCoinFv
                0x0008b49f                .dwarf.0006.onDelete__14daFakeStarCoinFv
                0x0008b4eb                .dwarf.0006.onDraw__14daFakeStarCoinFv
                0x0008b563                .dwarf.0006.updateModelMatrices__14daFakeStarCoinFv
                0x0008b5eb                .dwarf.0006.onExecute__14daFakeStarCoinFv
                0x0008b686                .dwarf.0007.SGarcNameList
                0x0008beec                .dwarf.0002.daShyGuy::daShyGuy
                0x0008c72d                .dwarf.0006.build__8daShyGuyFv
                0x0008ca55                .dwarf.0002.dState_c<8daShyGuy>::dState_c
                0x0008cb46                .dwarf.0007.StateID_Walk__8daShyGuy
                0x0008cb8a                .dwarf.0007.StateID_Turn__8daShyGuy
                0x0008cbce                .dwarf.0007.StateID_RealWalk__8daShyGuy
                0x0008cc1a                .dwarf.0007.StateID_RealTurn__8daShyGuy
                0x0008cc66                .dwarf.0007.StateID_Jump__8daShyGuy
                0x0008ccaa                .dwarf.0007.StateID_Sleep__8daShyGuy
                0x0008ccf0                .dwarf.0007.StateID_Balloon_H__8daShyGuy
                0x0008cd3e                .dwarf.0007.StateID_Balloon_V__8daShyGuy
                0x0008cd8c                .dwarf.0007.StateID_Balloon_C__8daShyGuy
                0x0008cdda                .dwarf.0007.StateID_Judo__8daShyGuy
                0x0008ce1e                .dwarf.0007.StateID_Spike__8daShyGuy
                0x0008ce64                .dwarf.0007.StateID_GoDizzy__8daShyGuy
                0x0008ceae                .dwarf.0007.StateID_BalloonDrop__8daShyGuy
                0x0008cf00                .dwarf.0007.StateID_FireKnockBack__8daShyGuy
                0x0008cf56                .dwarf.0007.StateID_FlameHit__8daShyGuy
                0x0008cfa2                .dwarf.0007.StateID_Recover__8daShyGuy
                0x0008cfec                .dwarf.0007.StateID_Die__8daShyGuy
                0x0008d02e                .dwarf.0006.actorCanPopBalloon__FP13dStageActor_c
                0x0008d0cb                .dwarf.0006.shyCollisionCallback__FP13ActivePhysicsP13ActivePhysics
                0x0008d1a4                .dwarf.0006.ChucklesAndKnuckles__FP13ActivePhysicsP13ActivePhysics
                0x0008d25e                .dwarf.0006.balloonSmack__FP13ActivePhysicsP13ActivePhysics
                0x0008d30a                .dwarf.0006.spriteCollision__8daShyGuyFP13ActivePhysicsP13ActivePhysics
                0x0008d44d                .dwarf.0006.popBalloon__8daShyGuyFv
                0x0008d4c8                .dwarf.0006.playerCollision__8daShyGuyFP13ActivePhysicsP13ActivePhysics
                0x0008d638                .dwarf.0006.yoshiCollision__8daShyGuyFP13ActivePhysicsP13ActivePhysics
                0x0008d72f                .dwarf.0006.collisionCatD_Drill__8daShyGuyFP13ActivePhysicsP13ActivePhysics
                0x0008d7d9                .dwarf.0006.collisionCat7_GroundPound__8daShyGuyFP13ActivePhysicsP13ActivePhysics
                0x0008d8ea                .dwarf.0006.collisionCat7_GroundPoundYoshi__8daShyGuyFP13ActivePhysicsP13ActivePhysics
                0x0008da05                .dwarf.0006.collisionCat9_RollingObject__8daShyGuyFP13ActivePhysicsP13ActivePhysics
                0x0008db1a                .dwarf.0006.collisionCatA_PenguinMario__8daShyGuyFP13ActivePhysicsP13ActivePhysics
                0x0008dc2d                .dwarf.0006.collisionCat5_Mario__8daShyGuyFP13ActivePhysicsP13ActivePhysics
                0x0008dd32                .dwarf.0006.collisionCat11_PipeCannon__8daShyGuyFP13ActivePhysicsP13ActivePhysics
                0x0008de43                .dwarf.0006.collisionCat13_Hammer__8daShyGuyFP13ActivePhysicsP13ActivePhysics
                0x0008df4c                .dwarf.0006.collisionCat3_StarPower__8daShyGuyFP13ActivePhysicsP13ActivePhysics
                0x0008e078                .dwarf.0006.collisionCat14_YoshiFire__8daShyGuyFP13ActivePhysicsP13ActivePhysics
                0x0008e132                .dwarf.0006.collisionCat1_Fireball_E_Explosion__8daShyGuyFP13ActivePhysicsP13ActivePhysics
                0x0008e2b1                .dwarf.0006._vf148__8daShyGuyFv
                0x0008e31e                .dwarf.0006._vf14C__8daShyGuyFv
                0x0008e38b                .dwarf.0006.CreateIceActors__8daShyGuyFv
                0x0008e435                .dwarf.0006.calculateTileCollisions__8daShyGuyFv
                0x0008e509                .dwarf.0006.bindAnimChr_and_setUpdateRate__8daShyGuyFPCciff
                0x0008e74a                .dwarf.0006.onCreate__8daShyGuyFv
                0x0008e960                .dwarf.0006.onDelete__8daShyGuyFv
                0x0008e9a5                .dwarf.0006.onExecute__8daShyGuyFv
                0x0008ea16                .dwarf.0006.onDraw__8daShyGuyFv
                0x0008ea81                .dwarf.0006.updateModelMatrices__8daShyGuyFv
                0x0008eb02                .dwarf.0006.beginState_Walk__8daShyGuyFv
                0x0008eb7b                .dwarf.0006.executeState_Walk__8daShyGuyFv
                0x0008ebfe                .dwarf.0006.endState_Walk__8daShyGuyFv
                0x0008ec49                .dwarf.0006.beginState_Turn__8daShyGuyFv
                0x0008ecc2                .dwarf.0006.executeState_Turn__8daShyGuyFv
                0x0008ed84                .dwarf.0006.endState_Turn__8daShyGuyFv
                0x0008edcf                .dwarf.0006.beginState_Jump__8daShyGuyFv
                0x0008ee48                .dwarf.0006.executeState_Jump__8daShyGuyFv
                0x0008eee7                .dwarf.0006.endState_Jump__8daShyGuyFv
                0x0008ef32                .dwarf.0006.beginState_Sleep__8daShyGuyFv
                0x0008efad                .dwarf.0006.executeState_Sleep__8daShyGuyFv
                0x0008f02c                .dwarf.0006.endState_Sleep__8daShyGuyFv
                0x0008f079                .dwarf.0006.beginState_Balloon_H__8daShyGuyFv
                0x0008f0fc                .dwarf.0006.executeState_Balloon_H__8daShyGuyFv
                0x0008f183                .dwarf.0006.endState_Balloon_H__8daShyGuyFv
                0x0008f1d8                .dwarf.0006.beginState_Balloon_V__8daShyGuyFv
                0x0008f25b                .dwarf.0006.executeState_Balloon_V__8daShyGuyFv
                0x0008f2e2                .dwarf.0006.endState_Balloon_V__8daShyGuyFv
                0x0008f337                .dwarf.0006.beginState_Balloon_C__8daShyGuyFv
                0x0008f3ba                .dwarf.0006.executeState_Balloon_C__8daShyGuyFv
                0x0008f441                .dwarf.0006.endState_Balloon_C__8daShyGuyFv
                0x0008f496                .dwarf.0006.beginState_Judo__8daShyGuyFv
                0x0008f50f                .dwarf.0006.executeState_Judo__8daShyGuyFv
                0x0008f5b4                .dwarf.0006.endState_Judo__8daShyGuyFv
                0x0008f5ff                .dwarf.0006.beginState_Spike__8daShyGuyFv
                0x0008f67a                .dwarf.0006.executeState_Spike__8daShyGuyFv
                0x0008f76a                .dwarf.0006.endState_Spike__8daShyGuyFv
                0x0008f833                .dwarf.0006.willWalkOntoSuitableGround__8daShyGuyFv
                0x0008f946                .dwarf.0006.beginState_RealWalk__8daShyGuyFv
                0x0008f9c7                .dwarf.0006.executeState_RealWalk__8daShyGuyFv
                0x0008fa71                .dwarf.0006.endState_RealWalk__8daShyGuyFv
                0x0008fac4                .dwarf.0006.beginState_RealTurn__8daShyGuyFv
                0x0008fb45                .dwarf.0006.executeState_RealTurn__8daShyGuyFv
                0x0008fc0f                .dwarf.0006.endState_RealTurn__8daShyGuyFv
                0x0008fc62                .dwarf.0006.beginState_GoDizzy__8daShyGuyFv
                0x0008fce1                .dwarf.0006.executeState_GoDizzy__8daShyGuyFv
                0x0008fd6a                .dwarf.0006.endState_GoDizzy__8daShyGuyFv
                0x0008fdbb                .dwarf.0006.beginState_BalloonDrop__8daShyGuyFv
                0x0008fe42                .dwarf.0006.executeState_BalloonDrop__8daShyGuyFv
                0x0008fef2                .dwarf.0006.endState_BalloonDrop__8daShyGuyFv
                0x0008ff4b                .dwarf.0006.beginState_FireKnockBack__8daShyGuyFv
                0x0008ffd6                .dwarf.0006.executeState_FireKnockBack__8daShyGuyFv
                0x0009006b                .dwarf.0006.endState_FireKnockBack__8daShyGuyFv
                0x000900f2                .dwarf.0006.beginState_FlameHit__8daShyGuyFv
                0x00090179                .dwarf.0006.executeState_FlameHit__8daShyGuyFv
                0x00090210                .dwarf.0006.endState_FlameHit__8daShyGuyFv
                0x00090263                .dwarf.0006.beginState_Recover__8daShyGuyFv
                0x000902e8                .dwarf.0006.executeState_Recover__8daShyGuyFv
                0x00090377                .dwarf.0006.endState_Recover__8daShyGuyFv
                0x000903f2                .dwarf.0006.beginState_Die__8daShyGuyFv
                0x00090469                .dwarf.0006.executeState_Die__8daShyGuyFv
                0x000904e4                .dwarf.0006.endState_Die__8daShyGuyFv
                0x00090550                .dwarf.0007.SGGarcNameList
                0x00090ca8                .dwarf.0002.daShyGuyGiant::daShyGuyGiant
                0x00091041                .dwarf.0006.build__13daShyGuyGiantFv
                0x0009136f                .dwarf.0002.dState_c<13daShyGuyGiant>::dState_c
                0x00091460                .dwarf.0007.StateID_RealWalk__13daShyGuyGiant
                0x000914b2                .dwarf.0007.StateID_RealTurn__13daShyGuyGiant
                0x00091504                .dwarf.0007.StateID_Die__13daShyGuyGiant
                0x0009154c                .dwarf.0006.playerCollision__13daShyGuyGiantFP13ActivePhysicsP13ActivePhysics
                0x00091683                .dwarf.0006._vf278__13daShyGuyGiantFPv
                0x000916f7                .dwarf.0006.bouncePlayerWhenJumpedOn__13daShyGuyGiantFPv
                0x000917b7                .dwarf.0006.yoshiCollision__13daShyGuyGiantFP13ActivePhysicsP13ActivePhysics
                0x000918b4                .dwarf.0006.collisionCatD_Drill__13daShyGuyGiantFP13ActivePhysicsP13ActivePhysics
                0x000919bf                .dwarf.0006.collisionCat7_GroundPound__13daShyGuyGiantFP13ActivePhysicsP13ActivePhysics
                0x00091ad6                .dwarf.0006.collisionCat7_GroundPoundYoshi__13daShyGuyGiantFP13ActivePhysicsP13ActivePhysics
                0x00091bf7                .dwarf.0006.collisionCat9_RollingObject__13daShyGuyGiantFP13ActivePhysicsP13ActivePhysics
                0x00091cb3                .dwarf.0006.collisionCatA_PenguinMario__13daShyGuyGiantFP13ActivePhysicsP13ActivePhysics
                0x00091d93                .dwarf.0006.collisionCat5_Mario__13daShyGuyGiantFP13ActivePhysicsP13ActivePhysics
                0x00091e13                .dwarf.0006.collisionCat11_PipeCannon__13daShyGuyGiantFP13ActivePhysicsP13ActivePhysics
                0x00091e9f                .dwarf.0006.collisionCat13_Hammer__13daShyGuyGiantFP13ActivePhysicsP13ActivePhysics
                0x00091f23                .dwarf.0006.collisionCat3_StarPower__13daShyGuyGiantFP13ActivePhysicsP13ActivePhysics
                0x00091fab                .dwarf.0006.collisionCat14_YoshiFire__13daShyGuyGiantFP13ActivePhysicsP13ActivePhysics
                0x000920c0                .dwarf.0006.collisionCat1_Fireball_E_Explosion__13daShyGuyGiantFP13ActivePhysicsP13ActivePhysics
                0x000921e9                .dwarf.0006.collisionCat2_IceBall_15_YoshiIce__13daShyGuyGiantFP13ActivePhysicsP13ActivePhysics
                0x00092310                .dwarf.0006._vf148__13daShyGuyGiantFv
                0x00092383                .dwarf.0006._vf14C__13daShyGuyGiantFv
                0x000923f6                .dwarf.0006.CreateIceActors__13daShyGuyGiantFv
                0x000924a6                .dwarf.0006.addScoreWhenHit__13daShyGuyGiantFPv
                0x000924fc                .dwarf.0006.spawnHitEffectAtPosition__13daShyGuyGiantF7Point2d
                0x0009256a                .dwarf.0006.doSomethingWithHardHitAndSoftHitEffects__13daShyGuyGiantF7Point3d
                0x000925f6                .dwarf.0006.playEnemyDownSound2__13daShyGuyGiantFv
                0x00092653                .dwarf.0006.playHpdpSound1__13daShyGuyGiantFv
                0x000926a6                .dwarf.0006.playEnemyDownSound1__13daShyGuyGiantFv
                0x00092703                .dwarf.0006.playEnemyDownComboSound__13daShyGuyGiantFPv
                0x00092769                .dwarf.0006.playHpdpSound2__13daShyGuyGiantFv
                0x000927bc                .dwarf.0006._vf260__13daShyGuyGiantFPv
                0x00092800                .dwarf.0006._vf264__13daShyGuyGiantFP13dStageActor_c
                0x00092852                .dwarf.0006._vf268__13daShyGuyGiantFPv
                0x00092896                .dwarf.0006.powBlockActivated__13daShyGuyGiantFb
                0x000928ef                .dwarf.0006.calculateTileCollisions__13daShyGuyGiantFv
                0x000929c9                .dwarf.0006.bindAnimChr_and_setUpdateRate__13daShyGuyGiantFPCciff
                0x00092d1e                .dwarf.0006.onCreate__13daShyGuyGiantFv
                0x00092e93                .dwarf.0006.onDelete__13daShyGuyGiantFv
                0x00092ede                .dwarf.0006.onExecute__13daShyGuyGiantFv
                0x00092f55                .dwarf.0006.onDraw__13daShyGuyGiantFv
                0x00092fcc                .dwarf.0006.updateModelMatrices__13daShyGuyGiantFv
                0x00093073                .dwarf.0006.beginState_RealWalk__13daShyGuyGiantFv
                0x000930fa                .dwarf.0006.executeState_RealWalk__13daShyGuyGiantFv
                0x000931aa                .dwarf.0006.endState_RealWalk__13daShyGuyGiantFv
                0x00093203                .dwarf.0006.beginState_RealTurn__13daShyGuyGiantFv
                0x0009328a                .dwarf.0006.executeState_RealTurn__13daShyGuyGiantFv
                0x0009335a                .dwarf.0006.endState_RealTurn__13daShyGuyGiantFv
                0x000933b3                .dwarf.0006.beginState_Die__13daShyGuyGiantFv
                0x00093430                .dwarf.0006.executeState_Die__13daShyGuyGiantFv
                0x000934b1                .dwarf.0006.endState_Die__13daShyGuyGiantFv
                0x0009367c                .dwarf.0002.dMeteor::dMeteor
                0x00093836                .dwarf.0006.build__7dMeteorFv
                0x000938d4                .dwarf.0007.MEarcNameList
                0x000938ff                .dwarf.0006.playerCollision__7dMeteorFP13ActivePhysicsP13ActivePhysics
                0x000939f7                .dwarf.0006.MeteorPhysicsCallback__FP7dMeteorP5dEn_c
                0x00093acc                .dwarf.0006.collisionCat7_GroundPound__7dMeteorFP13ActivePhysicsP13ActivePhysics
                0x00093bdc                .dwarf.0006.onCreate__7dMeteorFv
                0x00093cc4                .dwarf.0006.onDelete__7dMeteorFv
                0x00093d08                .dwarf.0006.onExecute__7dMeteorFv
                0x00093d78                .dwarf.0006.onDraw__7dMeteorFv
                0x00093de2                .dwarf.0006.updateModelMatrices__7dMeteorFv
                0x00093e62                .dwarf.0006.kill__7dMeteorFv
                0x00094034                .dwarf.0002.daElectricLine::daElectricLine
                0x000941dd                .dwarf.0006.build__14daElectricLineFv
                0x000944f4                .dwarf.0002.dState_c<14daElectricLine>::dState_c
                0x000945e5                .dwarf.0007.StateID_Activate__14daElectricLine
                0x00094638                .dwarf.0007.StateID_Deactivate__14daElectricLine
                0x0009468f                .dwarf.0007.StateID_Die__14daElectricLine
                0x000946d8                .dwarf.0006.onCreate__14daElectricLineFv
                0x000947a9                .dwarf.0006.onDelete__14daElectricLineFv
                0x000947f5                .dwarf.0006.onExecute__14daElectricLineFv
                0x00094873                .dwarf.0006.onDraw__14daElectricLineFv
                0x000948bb                .dwarf.0006.beginState_Activate__14daElectricLineFv
                0x00094949                .dwarf.0006.executeState_Activate__14daElectricLineFv
                0x000949db                .dwarf.0006.endState_Activate__14daElectricLineFv
                0x00094a35                .dwarf.0006.beginState_Deactivate__14daElectricLineFv
                0x00094ac7                .dwarf.0006.executeState_Deactivate__14daElectricLineFv
                0x00094b5d                .dwarf.0006.endState_Deactivate__14daElectricLineFv
                0x00094be5                .dwarf.0006.beginState_Die__14daElectricLineFv
                0x00094c69                .dwarf.0006.executeState_Die__14daElectricLineFv
                0x00094cc1                .dwarf.0006.endState_Die__14daElectricLineFv
                0x00094d34                .dwarf.0007.TLCarcNameList
                0x000952e1                .dwarf.0002.dThunderCloud::dThunderCloud
                0x0009561a                .dwarf.0006.build__13dThunderCloudFv
                0x00095948                .dwarf.0002.dState_c<13dThunderCloud>::dState_c
                0x00095a39                .dwarf.0007.StateID_Follow__13dThunderCloud
                0x00095a87                .dwarf.0007.StateID_Lightning__13dThunderCloud
                0x00095adb                .dwarf.0007.StateID_Wait__13dThunderCloud
                0x00095b25                .dwarf.0006.powBlockActivated__13dThunderCloudFb
                0x00095b7e                .dwarf.0006.playerCollision__13dThunderCloudFP13ActivePhysicsP13ActivePhysics
                0x00095c88                .dwarf.0006.yoshiCollision__13dThunderCloudFP13ActivePhysicsP13ActivePhysics
                0x00095d85                .dwarf.0006.collisionCatD_Drill__13dThunderCloudFP13ActivePhysicsP13ActivePhysics
                0x00095e90                .dwarf.0006.collisionCat7_GroundPound__13dThunderCloudFP13ActivePhysicsP13ActivePhysics
                0x00095fa7                .dwarf.0006.collisionCat7_GroundPoundYoshi__13dThunderCloudFP13ActivePhysicsP13ActivePhysics
                0x000960c8                .dwarf.0006.collisionCatA_PenguinMario__13dThunderCloudFP13ActivePhysicsP13ActivePhysics
                0x000961e1                .dwarf.0006.collisionCat5_Mario__13dThunderCloudFP13ActivePhysicsP13ActivePhysics
                0x000962ec                .dwarf.0006.collisionCat11_PipeCannon__13dThunderCloudFP13ActivePhysicsP13ActivePhysics
                0x00096403                .dwarf.0006.collisionCat1_Fireball_E_Explosion__13dThunderCloudFP13ActivePhysicsP13ActivePhysics
                0x0009652c                .dwarf.0006.collisionCat14_YoshiFire__13dThunderCloudFP13ActivePhysicsP13ActivePhysics
                0x00096641                .dwarf.0006.collisionCat13_Hammer__13dThunderCloudFP13ActivePhysicsP13ActivePhysics
                0x0009671c                .dwarf.0006.collisionCat9_RollingObject__13dThunderCloudFP13ActivePhysicsP13ActivePhysics
                0x00096837                .dwarf.0006.collisionCat3_StarPower__13dThunderCloudFP13ActivePhysicsP13ActivePhysics
                0x00096938                .dwarf.0006._vf148__13dThunderCloudFv
                0x000969ab                .dwarf.0006._vf14C__13dThunderCloudFv
                0x00096a1e                .dwarf.0006.CreateIceActors__13dThunderCloudFv
                0x00096ace                .dwarf.0006.dieFall_Begin__13dThunderCloudFv
                0x00096b49                .dwarf.0006.dieFall_Execute__13dThunderCloudFv
                0x00096bf5                .dwarf.0006.bindAnimChr_and_setUpdateRate__13dThunderCloudFPCciff
                0x00096d5a                .dwarf.0006.onCreate__13dThunderCloudFv
                0x00096eaa                .dwarf.0006.onDelete__13dThunderCloudFv
                0x00096ef5                .dwarf.0006.onExecute__13dThunderCloudFv
                0x00096f78                .dwarf.0006.onDraw__13dThunderCloudFv
                0x00096fef                .dwarf.0006.updateModelMatrices__13dThunderCloudFv
                0x00097076                .dwarf.0006.beginState_Follow__13dThunderCloudFv
                0x000970f9                .dwarf.0006.executeState_Follow__13dThunderCloudFv
                0x000971cd                .dwarf.0006.endState_Follow__13dThunderCloudFv
                0x0009724c                .dwarf.0006.beginState_Wait__13dThunderCloudFv
                0x000972cb                .dwarf.0006.executeState_Wait__13dThunderCloudFv
                0x0009735a                .dwarf.0006.endState_Wait__13dThunderCloudFv
                0x0009745a                .dwarf.0006.lightningStrike__13dThunderCloudFv
                0x00097549                .dwarf.0006.beginState_Lightning__13dThunderCloudFv
                0x0009765e                .dwarf.0006.executeState_Lightning__13dThunderCloudFv
                0x00097744                .dwarf.0006.endState_Lightning__13dThunderCloudFv
                0x0009792d                .dwarf.0002.dMakeYourOwn::dMakeYourOwn
                0x00097b14                .dwarf.0006.build__12dMakeYourOwnFv
                0x00097b8f                .dwarf.0006.setupAnim__12dMakeYourOwnFPCcf
                0x00097c7e                .dwarf.0006.setupModel__12dMakeYourOwnFPCcPCcPCc
                0x00097da9                .dwarf.0006.onCreate__12dMakeYourOwnFv
                0x00097e4e                .dwarf.0006.onDelete__12dMakeYourOwnFv
                0x00097e98                .dwarf.0006.onExecute__12dMakeYourOwnFv
                0x00097f0e                .dwarf.0006.onDraw__12dMakeYourOwnFv
                0x00098220                .dwarf.0002.dChallengeStar::dChallengeStar
                0x00098363                .dwarf.0006.playerCollision__14dChallengeStarFP13ActivePhysicsP13ActivePhysics
                0x0009840e                .dwarf.0006.yoshiCollision__14dChallengeStarFP13ActivePhysicsP13ActivePhysics
                0x0009850c                .dwarf.0006.collisionCat3_StarPower__14dChallengeStarFP13ActivePhysicsP13ActivePhysics
                0x00098620                .dwarf.0006.collisionCat9_RollingObject__14dChallengeStarFP13ActivePhysicsP13ActivePhysics
                0x0009873c                .dwarf.0006.collisionCat7_GroundPound__14dChallengeStarFP13ActivePhysicsP13ActivePhysics
                0x00098854                .dwarf.0006.collisionCat7_GroundPoundYoshi__14dChallengeStarFP13ActivePhysicsP13ActivePhysics
                0x00098976                .dwarf.0006.collisionCatA_PenguinMario__14dChallengeStarFP13ActivePhysicsP13ActivePhysics
                0x00098a90                .dwarf.0006.build__14dChallengeStarFv
                0x00098b13                .dwarf.0006.onCreate__14dChallengeStarFv
                0x00098c31                .dwarf.0006.onDelete__14dChallengeStarFv
                0x00098c7d                .dwarf.0006.onDraw__14dChallengeStarFv
                0x00098cf5                .dwarf.0006.updateModelMatrices__14dChallengeStarFv
                0x00098d7d                .dwarf.0006.onExecute__14dChallengeStarFv
                0x00098e15                .dwarf.0007.Tempo
                0x00098ebe                .dwarf.0007.Songs
                0x00098f26                .dwarf.0007.Prizes
                0x00098f6d                .dwarf.0007.Notes
                0x00098fb3                .dwarf.0007.SAarcNameList
                0x00099002                .dwarf.0006.BonusMusicPlayer__Fi
                0x00099343                .dwarf.0002.dState_c<10dSongPrize>::dState_c
                0x00099434                .dwarf.0007.StateID_Wait__10dSongPrize
                0x0009947b                .dwarf.0007.StateID_Shrink__10dSongPrize
                0x000994c6                .dwarf.0007.StateID_Spin__10dSongPrize
                0x00099703                .dwarf.0002.dSongPrize::dSongPrize
                0x000999b3                .dwarf.0006.build__10dSongPrizeFv
                0x00099a2c                .dwarf.0006.onCreate__10dSongPrizeFv
                0x00099b28                .dwarf.0006.onDelete__10dSongPrizeFv
                0x00099b70                .dwarf.0006.onExecute__10dSongPrizeFv
                0x00099bea                .dwarf.0006.beforeDraw__10dSongPrizeFv
                0x00099c36                .dwarf.0006.onDraw__10dSongPrizeFv
                0x00099ca4                .dwarf.0006.beginState_Wait__10dSongPrizeFv
                0x00099cf6                .dwarf.0006.executeState_Wait__10dSongPrizeFv
                0x00099d4c                .dwarf.0006.endState_Wait__10dSongPrizeFv
                0x00099d9a                .dwarf.0006.beginState_Shrink__10dSongPrizeFv
                0x00099e1a                .dwarf.0006.executeState_Shrink__10dSongPrizeFv
                0x00099f04                .dwarf.0006.endState_Shrink__10dSongPrizeFv
                0x00099f56                .dwarf.0006.beginState_Spin__10dSongPrizeFv
                0x00099fd2                .dwarf.0006.executeState_Spin__10dSongPrizeFv
                0x0009a078                .dwarf.0006.endState_Spin__10dSongPrizeFv
                0x0009a0c6                .dwarf.0007.instance__10dSingAlong
                0x0009a3d0                .dwarf.0002.dSingAlong::dSingAlong
                0x0009a8f5                .dwarf.0006.build__10dSingAlongFv
                0x0009aaae                .dwarf.0002.dStateWrapper_c<10dSingAlong>::dStateWrapper_c
                0x0009acaa                .dwarf.0002.dStateWrapperBase_c<10dSingAlong>::dStateWrapperBase_c
                0x0009ae7c                .dwarf.0002.dStateExecutor_c<10dSingAlong>::dStateExecutor_c
                0x0009afdf                .dwarf.0002.dStateMethodExecutor_c<10dSingAlong>::dStateMethodExecutor_c
                0x0009b0a7                .dwarf.0006.onCreate__10dSingAlongFv
                0x0009b1a9                .dwarf.0006.onExecute__10dSingAlongFv
                0x0009b223                .dwarf.0006.onDraw__10dSingAlongFv
                0x0009b267                .dwarf.0006.onDelete__10dSingAlongFv
                0x0009b2b5                .dwarf.0006.RegisterNote__10dSingAlongFi
                0x0009b62d                .dwarf.0002.dState_c<10dSingAlong>::dState_c
                0x0009b71e                .dwarf.0007.StateID_Intro__10dSingAlong
                0x0009b767                .dwarf.0006.beginState_Intro__10dSingAlongFv
                0x0009b7bb                .dwarf.0006.endState_Intro__10dSingAlongFv
                0x0009b80b                .dwarf.0006.executeState_Intro__10dSingAlongFv
                0x0009b899                .dwarf.0007.StateID_Prize__10dSingAlong
                0x0009b8e2                .dwarf.0006.beginState_Prize__10dSingAlongFv
                0x0009b960                .dwarf.0006.executeState_Prize__10dSingAlongFv
                0x0009ba71                .dwarf.0006.endState_Prize__10dSingAlongFv
                0x0009bac1                .dwarf.0007.StateID_Call__10dSingAlong
                0x0009bb08                .dwarf.0006.beginState_Call__10dSingAlongFv
                0x0009bb84                .dwarf.0006.executeState_Call__10dSingAlongFv
                0x0009bc40                .dwarf.0006.endState_Call__10dSingAlongFv
                0x0009bc8e                .dwarf.0007.StateID_Response__10dSingAlong
                0x0009bcdd                .dwarf.0006.beginState_Response__10dSingAlongFv
                0x0009bd61                .dwarf.0006.executeState_Response__10dSingAlongFv
                0x0009bdf5                .dwarf.0006.endState_Response__10dSingAlongFv
                0x0009be4b                .dwarf.0007.StateID_Mistake__10dSingAlong
                0x0009be98                .dwarf.0006.beginState_Mistake__10dSingAlongFv
                0x0009bf1a                .dwarf.0006.executeState_Mistake__10dSingAlongFv
                0x0009c006                .dwarf.0006.endState_Mistake__10dSingAlongFv
                0x0009c084                .dwarf.0007.StateID_Failure__10dSingAlong
                0x0009c0d1                .dwarf.0006.beginState_Failure__10dSingAlongFv
                0x0009c153                .dwarf.0006.executeState_Failure__10dSingAlongFv
                0x0009c394                .dwarf.0006.endState_Failure__10dSingAlongFv
                0x0009c3e8                .dwarf.0007.StateID_Win__10dSingAlong
                0x0009c42d                .dwarf.0006.beginState_Win__10dSingAlongFv
                0x0009c4a7                .dwarf.0006.executeState_Win__10dSingAlongFv
                0x0009c6a2                .dwarf.0006.endState_Win__10dSingAlongFv
                0x0009c6ee                .dwarf.0006.addPowerups__10dSingAlongFv
                0x0009ca93                .dwarf.0002.dState_c<10dSongBlock>::dState_c
                0x0009cb84                .dwarf.0007.StateID_Wait__10dSongBlock
                0x0009cc86                .dwarf.0002.StageActorLight::StageActorLight
                0x0009cefc                .dwarf.0002.dSongBlock::dSongBlock
                0x0009d1df                .dwarf.0006.build__10dSongBlockFv
                0x0009d29e                .dwarf.0006.onCreate__10dSongBlockFv
                0x0009d3c6                .dwarf.0006.onDelete__10dSongBlockFv
                0x0009d43e                .dwarf.0006.onExecute__10dSongBlockFv
                0x0009d4b8                .dwarf.0006.beforeDraw__10dSongBlockFv
                0x0009d52e                .dwarf.0006.onDraw__10dSongBlockFv
                0x0009d59c                .dwarf.0006.blockWasHit__10dSongBlockFb
                0x0009d63c                .dwarf.0006.calledWhenUpMoveExecutes__10dSongBlockFv
                0x0009d6ca                .dwarf.0006.calledWhenDownMoveExecutes__10dSongBlockFv
                0x0009d75c                .dwarf.0006.glow__10dSongBlockFv
                0x0009d7c2                .dwarf.0006.unglow__10dSongBlockFv
                0x0009d82c                .dwarf.0006.beginState_Wait__10dSongBlockFv
                0x0009d87e                .dwarf.0006.endState_Wait__10dSongBlockFv
                0x0009d8cc                .dwarf.0006.executeState_Wait__10dSongBlockFv
                0x0009d99d                .dwarf.0007.GParcNameList
                0x0009de44                .dwarf.0002.dGoombaPie::dGoombaPie
                0x0009dff9                .dwarf.0006.build__10dGoombaPieFv
                0x0009e30c                .dwarf.0002.dState_c<10dGoombaPie>::dState_c
                0x0009e3fd                .dwarf.0007.StateID_Follow__10dGoombaPie
                0x0009e448                .dwarf.0007.StateID_Burst__10dGoombaPie
                0x0009e491                .dwarf.0006.pieCollisionCallback__FP13ActivePhysicsP13ActivePhysics
                0x0009e54c                .dwarf.0006.playerCollision__10dGoombaPieFP13ActivePhysicsP13ActivePhysics
                0x0009e65f                .dwarf.0006.spriteCollision__10dGoombaPieFP13ActivePhysicsP13ActivePhysics
                0x0009e6d0                .dwarf.0006.yoshiCollision__10dGoombaPieFP13ActivePhysicsP13ActivePhysics
                0x0009e7ca                .dwarf.0006.collisionCatD_Drill__10dGoombaPieFP13ActivePhysicsP13ActivePhysics
                0x0009e87d                .dwarf.0006.collisionCat7_GroundPound__10dGoombaPieFP13ActivePhysicsP13ActivePhysics
                0x0009e93c                .dwarf.0006.collisionCat7_GroundPoundYoshi__10dGoombaPieFP13ActivePhysicsP13ActivePhysics
                0x0009ea05                .dwarf.0006.collisionCat9_RollingObject__10dGoombaPieFP13ActivePhysicsP13ActivePhysics
                0x0009eac8                .dwarf.0006.collisionCat3_StarPower__10dGoombaPieFP13ActivePhysicsP13ActivePhysics
                0x0009eb83                .dwarf.0006.collisionCat13_Hammer__10dGoombaPieFP13ActivePhysicsP13ActivePhysics
                0x0009ec3a                .dwarf.0006.collisionCatA_PenguinMario__10dGoombaPieFP13ActivePhysicsP13ActivePhysics
                0x0009ecfb                .dwarf.0006.collisionCat14_YoshiFire__10dGoombaPieFP13ActivePhysicsP13ActivePhysics
                0x0009edb8                .dwarf.0006.collisionCat1_Fireball_E_Explosion__10dGoombaPieFP13ActivePhysicsP13ActivePhysics
                0x0009ee89                .dwarf.0006._vf148__10dGoombaPieFv
                0x0009eef9                .dwarf.0006._vf14C__10dGoombaPieFv
                0x0009ef69                .dwarf.0007.goombIceBlock
                0x0009ef94                .dwarf.0006.CreateIceActors__10dGoombaPieFv
                0x0009f045                .dwarf.0006.addScoreWhenHit__10dGoombaPieFPv
                0x0009f098                .dwarf.0006.onCreate__10dGoombaPieFv
                0x0009f170                .dwarf.0006.onDelete__10dGoombaPieFv
                0x0009f1b8                .dwarf.0006.onExecute__10dGoombaPieFv
                0x0009f22c                .dwarf.0006.onDraw__10dGoombaPieFv
                0x0009f29a                .dwarf.0006.beginState_Follow__10dGoombaPieFv
                0x0009f2f0                .dwarf.0006.executeState_Follow__10dGoombaPieFv
                0x0009f34a                .dwarf.0006.endState_Follow__10dGoombaPieFv
                0x0009f39c                .dwarf.0006.beginState_Burst__10dGoombaPieFv
                0x0009f41a                .dwarf.0006.executeState_Burst__10dGoombaPieFv
                0x0009f4a2                .dwarf.0006.endState_Burst__10dGoombaPieFv
                0x0009f4f2                .dwarf.0007.srr0
                0x0009f512                .dwarf.0004.NSMBWVer
                0x0009f57a                .dwarf.0006.GetRegionAndVersion__Fv
                0x0009f615                .dwarf.0006.GetErrorDescription__FUs
                0x0009f7e2                .dwarf.0013.OSContext::OSContext
                0x0009f9eb                .dwarf.0006.PrintContext__FUsPvUiUi
                0x0009fb1a                .dwarf.0006.translateActorID__F6Actors
                0x0009fbb1                .dwarf.0006.adjustID__F6Actors
                0x0009fc13                .dwarf.0006.getNsmbwVer__Fv
                0x0009fcb0                .dwarf.0007.__vt__10dGoombaPie
                0x0009fcf2                .dwarf.0007.__vt__10dSingAlong
                0x0009fd34                .dwarf.0007.__vt__29dStateWrapper_c<10dSingAlong>
                0x0009fd89                .dwarf.0007.__vt__33dStateWrapperBase_c<10dSingAlong>
                0x0009fde2                .dwarf.0007.__vt__30dStateExecutor_c<10dSingAlong>
                0x0009fe38                .dwarf.0007.__vt__36dStateMethodExecutor_c<10dSingAlong>
                0x0009fe94                .dwarf.0007.__vt__10dSongBlock
                0x0009fed6                .dwarf.0007.__vt__10dSongPrize
                0x0009ff18                .dwarf.0007.__vt__14dChallengeStar
                0x0009ff5e                .dwarf.0007.__vt__12dMakeYourOwn
                0x0009ffa2                .dwarf.0007.__vt__13dThunderCloud
                0x0009ffe7                .dwarf.0007.__vt__14daElectricLine
                0x000a002d                .dwarf.0007.__vt__7dMeteor
                0x000a006b                .dwarf.0007.__vt__13daShyGuyGiant
                0x000a00b0                .dwarf.0007.__vt__8daShyGuy
                0x000a00ef                .dwarf.0007.__vt__14daFakeStarCoin
                0x000a0135                .dwarf.0007.__vt__11EffectVideo
                0x000a0178                .dwarf.0007.__vt__9dBombDrop
                0x000a01b8                .dwarf.0007.__vt__12dDroppedBomb
                0x000a01fc                .dwarf.0007.__vt__13daKoopaBreath
                0x000a0241                .dwarf.0007.__vt__12daKoopaThrow
                0x000a0285                .dwarf.0007.__vt__15daCaptainBowser
                0x000a02cc                .dwarf.0007.__vt__11daClownShot
                0x000a030f                .dwarf.0007.__vt__9daDreidel
                0x000a034f                .dwarf.0007.__vt__10daPodouble
                0x000a0391                .dwarf.0007.__vt__11daSamurshai
                0x000a03d4                .dwarf.0007.__vt__8daWrench
                0x000a0413                .dwarf.0007.__vt__10daBalboa_c
                0x000a0455                .dwarf.0007.__vt__10daRamboo_c
                0x000a0497                .dwarf.0007.__vt__15daEnMegaDosun_c
                0x000a04de                .dwarf.0007.__vt__13daFuzzyBear_c
                0x000a0523                .dwarf.0007.__vt__14daMegaGoomba_c
                0x000a0569                .dwarf.0007.__vt__8daTopman
                0x000a05a8                .dwarf.0007.__vt__18SpriteSpawnerTimed
                0x000a05f2                .dwarf.0007.__vt__16dSpriteSpawner_c
                0x000a063a                .dwarf.0007.__vt__14daEnMsgBlock_c
                0x000a0680                .dwarf.0007.__vt__16daEnEventBlock_c
                0x000a06c8                .dwarf.0007.__vt__13dPalaceDude_c
                0x000a070d                .dwarf.0007.__vt__16dMsgBoxManager_c
                0x000a0755                .dwarf.0007.__vt__35dStateWrapper_c<16dMsgBoxManager_c>
                0x000a07b0                .dwarf.0007.__vt__39dStateWrapperBase_c<16dMsgBoxManager_c>
                0x000a080f                .dwarf.0007.__vt__36dStateExecutor_c<16dMsgBoxManager_c>
                0x000a086b                .dwarf.0007.__vt__42dStateMethodExecutor_c<16dMsgBoxManager_c>
                0x000a08cd                .dwarf.0007.__vt__13daFireLaser_c
                0x000a0912                .dwarf.0007.__vt__9daMrSun_c
                0x000a0952                .dwarf.0007.__vt__8dWMMap_c
                0x000a0991                .dwarf.0007.__vt__Q28dWMMap_c10renderer_c
                0x000a09de                .dwarf.0007.__vt__12daWMPlayer_c
                0x000a0a22                .dwarf.0007.__vt__14dWorldCamera_c
                0x000a0a68                .dwarf.0007.__vt__14dScKoopatlas_c
                0x000a0aae                .dwarf.0007.__vt__33dStateWrapper_c<14dScKoopatlas_c>
                0x000a0b07                .dwarf.0007.__vt__37dStateWrapperBase_c<14dScKoopatlas_c>
                0x000a0b64                .dwarf.0007.__vt__34dStateExecutor_c<14dScKoopatlas_c>
                0x000a0bbe                .dwarf.0007.__vt__40dStateMethodExecutor_c<14dScKoopatlas_c>
                0x000a0c1e                .dwarf.0007.__vt__8dWMHud_c
                0x000a0c5d                .dwarf.0007.__vt__13dWMStarCoin_c
                0x000a0ca2                .dwarf.0007.__vt__32dStateWrapper_c<13dWMStarCoin_c>
                0x000a0cfa                .dwarf.0007.__vt__36dStateWrapperBase_c<13dWMStarCoin_c>
                0x000a0d56                .dwarf.0007.__vt__33dStateExecutor_c<13dWMStarCoin_c>
                0x000a0daf                .dwarf.0007.__vt__39dStateMethodExecutor_c<13dWMStarCoin_c>
                0x000a0e0e                .dwarf.0007.__vt__9dWMShop_c
                0x000a0e4e                .dwarf.0007.__vt__27dStateWrapper_c<9dWMShop_c>
                0x000a0ea1                .dwarf.0007.__vt__31dStateWrapperBase_c<9dWMShop_c>
                0x000a0ef8                .dwarf.0007.__vt__28dStateExecutor_c<9dWMShop_c>
                0x000a0f4c                .dwarf.0007.__vt__34dStateMethodExecutor_c<9dWMShop_c>
                0x000a0fa6                .dwarf.0007.__vt__6daBoss
                0x000a0fe3                .dwarf.0007.__vt__13daBonePiece_c
                0x000a1028                .dwarf.0007.__vt__13dScCutScene_c
                0x000a106d                .dwarf.0007.__vt__19daEnMagicPlatform_c
                0x000a10b8                .dwarf.0007.__vt__15daEnFlipBlock_c
                0x000a10ff                .dwarf.0007.__vt__14daEnChestnut_c
                0x000a1145                .dwarf.0007.__vt__12dEndingMgr_c
                0x000a1189                .dwarf.0007.__vt__13dCreditsMgr_c
                0x000a11ce                .dwarf.0007.__vt__19dFlipbookRenderer_c
                0x000a1219                .dwarf.0007.__vt__13APDebugDrawer
                0x000a125e                .dwarf.0007.__vt__20dStateExecutorBase_c
                0x000a12aa                .dwarf.0007.__vt__26dStateMethodExecutorBase_c
                0x000a12fc                .dwarf.0007.__vt__17dStatePointless_c
                0x000a1345                .dwarf.0007.__vt__Q23m3d6proc_c
                0x000a1376                .dwarf.0006.isOutOfView__13dCreditsMgr_cFv
                0x000a1452                .dwarf.0002.dState_c<12daBossDemo_c>::dState_c
                0x000a1648                .dwarf.0002.daBossDemo_c::daBossDemo_c
                0x000a17ae                .dwarf.0017..39660
                0x000a1a47                .dwarf.0002.m3d::scnLeaf_c::scnLeaf_c
                0x000a1bad                .dwarf.0002.m3d::proc_c::proc_c
                0x000a1bf7                .dwarf.0006.afterExecute__10dSingAlongFi
                0x000a2169                .dwarf.0007.__vt__22dState_c<10dGoombaPie>
                0x000a21b7                .dwarf.0007.__vt__22dState_c<10dSongBlock>
                0x000a2205                .dwarf.0007.__vt__22dState_c<10dSingAlong>
                0x000a2253                .dwarf.0007.__vt__22dState_c<10dSongPrize>
                0x000a22a1                .dwarf.0007.__vt__25dState_c<13dThunderCloud>
                0x000a22f2                .dwarf.0007.__vt__26dState_c<14daElectricLine>
                0x000a2344                .dwarf.0007.__vt__25dState_c<13daShyGuyGiant>
                0x000a2395                .dwarf.0007.__vt__19dState_c<8daShyGuy>
                0x000a23e0                .dwarf.0007.__vt__24dState_c<12daKoopaThrow>
                0x000a2430                .dwarf.0007.__vt__27dState_c<15daCaptainBowser>
                0x000a2483                .dwarf.0007.__vt__20dState_c<9daDreidel>
                0x000a24cf                .dwarf.0007.__vt__22dState_c<10daPodouble>
                0x000a251d                .dwarf.0007.__vt__23dState_c<11daSamurshai>
                0x000a256c                .dwarf.0007.__vt__19dState_c<8daWrench>
                0x000a25b7                .dwarf.0007.__vt__22dState_c<10daBalboa_c>
                0x000a2605                .dwarf.0007.__vt__22dState_c<10daRamboo_c>
                0x000a2653                .dwarf.0007.__vt__27dState_c<15daEnMegaDosun_c>
                0x000a26a6                .dwarf.0007.__vt__25dState_c<13daFuzzyBear_c>
                0x000a26f7                .dwarf.0007.__vt__26dState_c<14daMegaGoomba_c>
                0x000a2749                .dwarf.0007.__vt__19dState_c<8daTopman>
                0x000a2794                .dwarf.0007.__vt__26dState_c<14daEnMsgBlock_c>
                0x000a27e6                .dwarf.0007.__vt__28dState_c<16daEnEventBlock_c>
                0x000a283a                .dwarf.0007.__vt__28dState_c<16dMsgBoxManager_c>
                0x000a288e                .dwarf.0007.__vt__25dState_c<13daFireLaser_c>
                0x000a28df                .dwarf.0007.__vt__20dState_c<9daMrSun_c>
                0x000a292b                .dwarf.0007.__vt__25dState_c<13dWMStarCoin_c>
                0x000a297c                .dwarf.0007.__vt__20dState_c<9dWMShop_c>
                0x000a29c8                .dwarf.0007.__vt__26dState_c<14dScKoopatlas_c>
                0x000a2a1a                .dwarf.0007.__vt__27dState_c<15daEnFlipBlock_c>
                0x000a2a6d                .dwarf.0007.__vt__26dState_c<14daEnChestnut_c>
                0x000a2abf                .dwarf.0007.__vt__24dState_c<12dEndingMgr_c>
                0x000a2db7                .dwarf.0007.__vt__15StageActorLight
                0x000a2eab                .dwarf.0002.daNeedles::daNeedles
                0x000a31ec                .dwarf.0002.dState_c<9daNeedles>::dState_c
                0x000a32dd                .dwarf.0007.StateID_Die__9daNeedles
                0x000a3320                .dwarf.0007.StateID_Idle__9daNeedles
                0x000a3365                .dwarf.0007.StateID_DemoWait__9daNeedles
                0x000a3652                .dwarf.0002.dState_c<5dEn_c>::dState_c
                0x000a3743                .dwarf.0007.StateID_DieSmoke__5dEn_c
                0x000a3a2c                .dwarf.0002.dState_c<13daBossKoopa_c>::dState_c
                0x000a3b1d                .dwarf.0007.StateID_Fall__13daBossKoopa_c
                0x000a3b67                .dwarf.0007.sAllocatorFunc__FrmHeap
                0x000a3d7d                .dwarf.0002.dStateBase_c::dStateBase_c
                0x000a3e51                .dwarf.0007.ClownDemoWaitState
                0x000a3e81                .dwarf.0007.JrClownDemoWaitState
                0x000a3eb3                .dwarf.0007.JrClownEndDemoState
                0x000a3f12                .dwarf.0013.dWaterInfo_s::dWaterInfo_s
                0x000a4399                .dwarf.0002.dWaterManager_c::dWaterManager_c
                0x000a4430                .dwarf.0007.instance__15dWaterManager_c
                0x000a4477                .dwarf.0007.ScreenPositionClass
                0x000a44b8                .dwarf.0007.__vt__Q23m3d8anmVis_c
                0x000a44eb                .dwarf.0007.StageScreen
                0x000a4512                .dwarf.0007.StateID_DieOther__5dEn_c
                0x000a455b                .dwarf.0007.EnemyBounceValue
                0x000a4612                .dwarf.0002.StageC4::StageC4
                0x000a481a                .dwarf.0007.instance__7StageC4
                0x000a4858                .dwarf.0007.MessageBoxIsShowing
                0x000a4887                .dwarf.0007.BGDatClass
                0x000a48ad                .dwarf.0007.BgActorDefs
                0x000a4927                .dwarf.0013.dBgActorManager_c::dBgActorManager_c
                0x000a4a0f                .dwarf.0007.dBgActorManager
                0x000a4a8d                .dwarf.0013.BG_GM_hax::BG_GM_hax
                0x000a4b74                .dwarf.0007.BG_GM_ptr
                0x000a4c15                .dwarf.0002.SoundPlayingClass::SoundPlayingClass
                0x000a4ca2                .dwarf.0007.instance2__17SoundPlayingClass
                0x000a4d69                .dwarf.0002.dEffectBreakBase_c::dEffectBreakBase_c
                0x000a4efd                .dwarf.0002.dEffectBreakMgr_c::dEffectBreakMgr_c
                0x000a4f47                .dwarf.0007.instance__17dEffectBreakMgr_c
                0x000a520e                .dwarf.0002.BGDatClass::BGDatClass
                0x000a537d                .dwarf.0007.instance__10BGDatClass
                0x000a53bf                .dwarf.0007.StateID_DieFall__5dEn_c
                0x000a5406                .dwarf.0007.BGScaleBack
                0x000a542f                .dwarf.0007.BGScaleFront
                0x000a5459                .dwarf.0007.GameTimer
                0x000a547e                .dwarf.0007.BGScaleEnabled
                0x000a54a8                .dwarf.0007.GlobalStarsCollected
                0x000a54d8                .dwarf.0007.ZOrderOn
                0x000a54fc                .dwarf.0007.AlwaysDrawBranch
                0x000a5528                .dwarf.0007.AlwaysDrawFlag
                0x000a5552                .dwarf.0007.SizerOn
                0x000a5575                .dwarf.0007.GlobalRiderSize
                0x000a55a0                .dwarf.0007.GlobalSpriteSpeed
                0x000a55cd                .dwarf.0007.GlobalSpriteSize
                0x000a55f9                .dwarf.0007.MiniMarioJumpArc
                0x000a5625                .dwarf.0007.MarioJumpArc
                0x000a564d                .dwarf.0007.MarioJumpMax
                0x000a5675                .dwarf.0007.MarioDescentRate
                0x000a56a1                .dwarf.0007.CurrentLevel
                0x000a56c9                .dwarf.0007.CurrentWorld
                0x000a56f1                .dwarf.0007.isReplayEnabled
                0x000a571c                .dwarf.0007.enableHardMode
                0x000a5746                .dwarf.0007.SelectCursorPointer
                0x000a57a3                .dwarf.0013.PlayerAnimState::PlayerAnimState
                0x000a595b                .dwarf.0007.PlayerAnimStates
                0x000a5989                .dwarf.0004.PowerupStoreTypes
                0x000a59e2                .dwarf.0007.LastPowerupStoreType
                0x000a5a34                .dwarf.0007.gameHeaps__5mHeap
                0x000a5a6f                .dwarf.0007.archiveHeap__5mHeap
                0x000a5aac                .dwarf.0007.GlobalTickCount
                0x000a5ae9                .dwarf.0007.__vt__Q23m3d11anmTexSrt_c
                0x000a5b32                .dwarf.0007.__vt__Q23m3d6banm_c
                0x000a5b63                .dwarf.0007.GlobalScreenHeight
                0x000a5b91                .dwarf.0007.GlobalScreenWidth
                0x000a5be0                .dwarf.0007.ScreenSizesAndMultipliers
                0x000a5c17                .dwarf.0007.currentScreenSizeID
                0x000a5c58                .dwarf.0007.__vt__Q23EGG12LookAtCamera
                0x000a5ca2                .dwarf.0007.__vt__Q23mEf3es2
                0x000a5ce2                .dwarf.0007.__vt__Q23mEf8effect_c
                0x000a5d63                .dwarf.0002.SaveHandler::SaveHandler
                0x000a5e30                .dwarf.0007.SaveHandlerInstance
                0x000a5e84                .dwarf.0007.Player_Lives
                0x000a5f39                .dwarf.0002.GMgr8::GMgr8
                0x000a61db                .dwarf.0013.GMgrA0::GMgrA0
                0x000a64ff                .dwarf.0002.GameMgr::GameMgr
                0x000a6dc2                .dwarf.0007.GameMgrP
                0x000a6e0b                .dwarf.0007.Player_Flags
                0x000a6e55                .dwarf.0007.Player_Active
                0x000a6ea0                .dwarf.0007.Player_Powerup
                0x000a6ecc                .dwarf.0007.mNoState__12dStateBase_c
                0x000a6f0d                .dwarf.0007.ArchiveHeap
                0x000a71d4                .dwarf.0002.dState_c<12daKameckDemo>::dState_c
                0x000a72c5                .dwarf.0007.StateID_DemoSt2__12daKameckDemo
                0x000a7314                .dwarf.0007.StateID_DemoSt__12daKameckDemo
                0x000a7361                .dwarf.0007.StateID_DemoWait__12daKameckDemo
                0x000a7480                .dwarf.0002.dStage32C_c::dStage32C_c
                0x000a78c9                .dwarf.0007.instance__11dStage32C_c
                0x000a790c                .dwarf.0007.ActiveWiimote
                0x000a79c0                .dwarf.0013.Remocon::Remocon
                0x000a7f21                .dwarf.0013.RemoconMngClass::RemoconMngClass
                0x000a7f9c                .dwarf.0007.RemoconMng
                0x000a7fc7                .dwarf.0007.ActiveWiimoteID
                0x000a8002                .dwarf.0007.CurrentDrawFunc
                0x000a841a                .dwarf.0002.dFlagMgr_c::dFlagMgr_c
                0x000a85ed                .dwarf.0007.instance__10dFlagMgr_c
                0x000a88cf                .dwarf.0002.dState_c<15daEnBlockMain_c>::dState_c
                0x000a89c0                .dwarf.0007.StateID_DownMove__15daEnBlockMain_c
                0x000a8a14                .dwarf.0007.StateID_UpMove__15daEnBlockMain_c
                0x000a8a76                .dwarf.0007.__vt__15daEnBlockMain_c
                0x000a8aab                .dwarf.0007.PhysicsCallback3__15daEnBlockMain_c
                0x000a8afd                .dwarf.0007.PhysicsCallback2__15daEnBlockMain_c
                0x000a8b4f                .dwarf.0007.PhysicsCallback1__15daEnBlockMain_c
                0x000a8ba1                .dwarf.0007.OPhysicsCallback3__15daEnBlockMain_c
                0x000a8bf5                .dwarf.0007.OPhysicsCallback2__15daEnBlockMain_c
                0x000a8c49                .dwarf.0007.OPhysicsCallback1__15daEnBlockMain_c
                0x000a8caf                .dwarf.0007.__vt__Q23m3d8anmChr_c
                0x000a8ce2                .dwarf.0007.DontShowPreGame
                0x000a8d0d                .dwarf.0007.RESTART_CRSIN_LevelStartStruct
                0x000a8d49                .dwarf.0007.StateID_Thank__24daEnBossKoopaDemoPeach_c
                0x000a8da0                .dwarf.0007.StateID_Rescue__24daEnBossKoopaDemoPeach_c
                0x000a8df9                .dwarf.0007.StateID_Open__24daEnBossKoopaDemoPeach_c
                0x000a8e4e                .dwarf.0007._8042A788
                0x000a8e73                .dwarf.0007.StateID_Turn__24daEnBossKoopaDemoPeach_c
                0x000a8f16                .dwarf.0002.BalloonRelatedClass::BalloonRelatedClass
                0x000a8faa                .dwarf.0007.instance__19BalloonRelatedClass
                0x000a9063                .dwarf.0002.dStageActorMgr_c::dStageActorMgr_c
                0x000a92d3                .dwarf.0007.instance__16dStageActorMgr_c
                0x000a939d                .dwarf.0002.WLClass::WLClass
                0x000a9470                .dwarf.0007.instance__7WLClass
                0x000a9579                .dwarf.0002.StageE4::StageE4
                0x000a9612                .dwarf.0007.instance__7StageE4
                0x000a9662                .dwarf.0007.__vt__12daBossDemo_c
                0x000a9694                .dwarf.0007.DanceValues_CreditsControl
                0x000a96ca                .dwarf.0007.DanceValues_Bahps
                0x000a96f7                .dwarf.0007.DanceValues_DummyBlockAndGrass
                0x000a9731                .dwarf.0007.DanceValues_AnimSpeed
                0x000a9790                .dwarf.0002.Stage80::Stage80
                0x000a9aab                .dwarf.0007.instance__7Stage80
                0x000a9ae9                .dwarf.0007.instance__19ClassWithCameraInfo
                0x000a9b34                .dwarf.0007.SaveFileInstance
                0x000a9b85                .dwarf.0007.Player_ID
                0x000a9bac                .dwarf.0007.lockedPlayerRotation
                0x000a9bdc                .dwarf.0007.CameraLockEnabled
                0x000a9d66                .dwarf.0002.dCourseFull_c::dCourseFull_c
                0x000a9df7                .dwarf.0007.instance__13dCourseFull_c
                0x000a9e3c                .dwarf.0007.StagePtr
                0x000a9e60                .dwarf.0007.SoundRelatedClass
                0x000a9e8d                .dwarf.0007.CameraLockPosition
                0x000a9eeb                .dwarf.0013.BgGmBase::something_s::something_s
                0x000aa013                .dwarf.0013.BgGmBase::limitLineEntry_s::limitLineEntry_s
                0x000aa359                .dwarf.0013.BgGmBase::beets_s::beets_s
                0x000aa5b0                .dwarf.0002.BgGmBase::BgGmBase
                0x000aa827                .dwarf.0002.dBgGm_c::dBgGm_c
                0x000aa891                .dwarf.0007.instance__7dBgGm_c
                0x000aa8cf                .dwarf.0007.DVDClass
                0x000aa8f3                .dwarf.0007.isLockPlayerRotation
                0x000aa923                .dwarf.0007.globalListHead__13BasicCollider
                0x000aa974                .dwarf.0007.globalListHead__7Physics
                0x000aa9ec                .dwarf.0017._wgpipe::_wgpipe
                0x000aaaff                .dwarf.0007.wgPipe
                0x000aab23                .dwarf.0007.globalListHead__13ActivePhysics
                0x000aab94                .dwarf.0007.GameHeaps
                0x000aac58                .dwarf.0006.sqrtf__Ff
                0x000aad46                .dwarf.0006.__dt__Q34nw4r3snd11SoundHandleFv
                0x000aadbc                .dwarf.0006.executeNextStateThisTick__36dStateWrapperBase_c<13dActorState_c>Fv
                0x000aae6a                .dwarf.0006.setState__36dStateWrapperBase_c<13dActorState_c>FP12dStateBase_c
                0x000aaf36                .dwarf.0006.getCurrentState__33dStateWrapperBase_c<10daPlBase_c>Fv
                0x000aafd8                .dwarf.0006.__ct__Q34nw4r3snd11SoundHandleFv
                0x000ab04e                .dwarf.0006.__dt__33dStateWrapper_c<14dScKoopatlas_c>Fv
                0x000ab0cf                .dwarf.0006.__dt__37dStateWrapperBase_c<14dScKoopatlas_c>Fv
                0x000ab154                .dwarf.0006.setState__37dStateWrapperBase_c<14dScKoopatlas_c>FP12dStateBase_c
                0x000ab221                .dwarf.0006.getCurrentState__37dStateWrapperBase_c<14dScKoopatlas_c>Fv
                0x000ab2c7                .dwarf.0006.execute__37dStateWrapperBase_c<14dScKoopatlas_c>Fv
                0x000ab354                .dwarf.0006.__dt__27dStateWrapper_c<9dWMShop_c>Fv
                0x000ab3cf                .dwarf.0006.__dt__31dStateWrapperBase_c<9dWMShop_c>Fv
                0x000ab44e                .dwarf.0006.execute__31dStateWrapperBase_c<9dWMShop_c>Fv
                0x000ab4d5                .dwarf.0006.setState__31dStateWrapperBase_c<9dWMShop_c>FP12dStateBase_c
                0x000ab59c                .dwarf.0006.__dt__32dStateWrapper_c<13dWMStarCoin_c>Fv
                0x000ab61c                .dwarf.0006.__dt__36dStateWrapperBase_c<13dWMStarCoin_c>Fv
                0x000ab6a0                .dwarf.0006.setState__36dStateWrapperBase_c<13dWMStarCoin_c>FP12dStateBase_c
                0x000ab76c                .dwarf.0006.getCurrentState__36dStateWrapperBase_c<13dWMStarCoin_c>Fv
                0x000ab811                .dwarf.0006.execute__36dStateWrapperBase_c<13dWMStarCoin_c>Fv
                0x000ab89d                .dwarf.0006.__dt__35dStateWrapper_c<16dMsgBoxManager_c>Fv
                0x000ab920                .dwarf.0006.__dt__39dStateWrapperBase_c<16dMsgBoxManager_c>Fv
                0x000ab9a7                .dwarf.0006.execute__39dStateWrapperBase_c<16dMsgBoxManager_c>Fv
                0x000aba36                .dwarf.0006.setState__39dStateWrapperBase_c<16dMsgBoxManager_c>FP12dStateBase_c
                0x000abb05                .dwarf.0006.__dt__29dStateWrapper_c<10dSingAlong>Fv
                0x000abb82                .dwarf.0006.__dt__33dStateWrapperBase_c<10dSingAlong>Fv
                0x000abc03                .dwarf.0006.setState__33dStateWrapperBase_c<10dSingAlong>FP12dStateBase_c
                0x000abccc                .dwarf.0006.execute__33dStateWrapperBase_c<10dSingAlong>Fv
                0x000abd55                .dwarf.0006.getPreviousState__31dStateWrapperBase_c<9dWMShop_c>Fv
                0x000abdf7                .dwarf.0006.getCurrentState__31dStateWrapperBase_c<9dWMShop_c>Fv
                0x000abe97                .dwarf.0006.getNextState__31dStateWrapperBase_c<9dWMShop_c>Fv
                0x000abf31                .dwarf.0006.getCurrentStateMethodExecutor__31dStateWrapperBase_c<9dWMShop_c>Fv
                0x000abfed                .dwarf.0006.executeNextStateThisTick__31dStateWrapperBase_c<9dWMShop_c>Fv
                0x000ac096                .dwarf.0006.endCurrentState__31dStateWrapperBase_c<9dWMShop_c>Fv
                0x000ac12d                .dwarf.0006.ensureStateHasBegun__31dStateWrapperBase_c<9dWMShop_c>Fv
                0x000ac1cc                .dwarf.0006.getPreviousState__36dStateWrapperBase_c<13dWMStarCoin_c>Fv
                0x000ac273                .dwarf.0006.getNextState__36dStateWrapperBase_c<13dWMStarCoin_c>Fv
                0x000ac312                .dwarf.0006.getCurrentStateMethodExecutor__36dStateWrapperBase_c<13dWMStarCoin_c>Fv
                0x000ac3d3                .dwarf.0006.executeNextStateThisTick__36dStateWrapperBase_c<13dWMStarCoin_c>Fv
                0x000ac481                .dwarf.0006.endCurrentState__36dStateWrapperBase_c<13dWMStarCoin_c>Fv
                0x000ac51d                .dwarf.0006.ensureStateHasBegun__36dStateWrapperBase_c<13dWMStarCoin_c>Fv
                0x000ac5c1                .dwarf.0006.getPreviousState__37dStateWrapperBase_c<14dScKoopatlas_c>Fv
                0x000ac669                .dwarf.0006.getNextState__37dStateWrapperBase_c<14dScKoopatlas_c>Fv
                0x000ac709                .dwarf.0006.getCurrentStateMethodExecutor__37dStateWrapperBase_c<14dScKoopatlas_c>Fv
                0x000ac7cb                .dwarf.0006.executeNextStateThisTick__37dStateWrapperBase_c<14dScKoopatlas_c>Fv
                0x000ac87a                .dwarf.0006.endCurrentState__37dStateWrapperBase_c<14dScKoopatlas_c>Fv
                0x000ac917                .dwarf.0006.ensureStateHasBegun__37dStateWrapperBase_c<14dScKoopatlas_c>Fv
                0x000ac9bc                .dwarf.0006.getPreviousState__39dStateWrapperBase_c<16dMsgBoxManager_c>Fv
                0x000aca66                .dwarf.0006.getCurrentState__39dStateWrapperBase_c<16dMsgBoxManager_c>Fv
                0x000acb0e                .dwarf.0006.getNextState__39dStateWrapperBase_c<16dMsgBoxManager_c>Fv
                0x000acbb0                .dwarf.0006.getCurrentStateMethodExecutor__39dStateWrapperBase_c<16dMsgBoxManager_c>Fv
                0x000acc74                .dwarf.0006.executeNextStateThisTick__39dStateWrapperBase_c<16dMsgBoxManager_c>Fv
                0x000acd25                .dwarf.0006.endCurrentState__39dStateWrapperBase_c<16dMsgBoxManager_c>Fv
                0x000acdc4                .dwarf.0006.ensureStateHasBegun__39dStateWrapperBase_c<16dMsgBoxManager_c>Fv
                0x000ace6b                .dwarf.0006.getPreviousState__33dStateWrapperBase_c<10dSingAlong>Fv
                0x000acf0f                .dwarf.0006.getCurrentState__33dStateWrapperBase_c<10dSingAlong>Fv
                0x000acfb1                .dwarf.0006.getNextState__33dStateWrapperBase_c<10dSingAlong>Fv
                0x000ad04d                .dwarf.0006.getCurrentStateMethodExecutor__33dStateWrapperBase_c<10dSingAlong>Fv
                0x000ad10b                .dwarf.0006.executeNextStateThisTick__33dStateWrapperBase_c<10dSingAlong>Fv
                0x000ad1b6                .dwarf.0006.endCurrentState__33dStateWrapperBase_c<10dSingAlong>Fv
                0x000ad24f                .dwarf.0006.ensureStateHasBegun__33dStateWrapperBase_c<10dSingAlong>Fv
                0x000ad2f0                .dwarf.0006.beginSomething__12daBossDemo_cFv
                0x000ad342                .dwarf.0006.endSomething__12daBossDemo_cFv
                0x000ad390                .dwarf.0006.getIdOfOtherActor__12daBossDemo_cFv
                0x000ad416                .dwarf.0006.setIdOfOtherActor__12daBossDemo_cFi
                0x000ad4b6                .dwarf.0006.vf128__12daBossDemo_cFv
                0x000ad4fa                .dwarf.0006.justReturnField3D4_decidesIfEndBattle__12daBossDemo_cFv
                0x000ad5a8                .dwarf.0006.vf130__12daBossDemo_cFv
                0x000ad5ec                .dwarf.0006.getActorPointerForSomething__12daBossDemo_cFv
                0x000ad702                .dwarf.0006.executeNextStateThisTick__15dStateMgrBase_cFv
                0x000ad795                .dwarf.0006.getCurrentState__15dStateMgrBase_cFv
                0x000ad81f                .dwarf.0006.__dt__11dStateMgr_cFv
                0x000ad88a                .dwarf.0006.__dt__34dStateExecutor_c<14dScKoopatlas_c>Fv
                0x000ad90c                .dwarf.0006.__dt__40dStateMethodExecutor_c<14dScKoopatlas_c>Fv
                0x000ad994                .dwarf.0006.__dt__26dStateMethodExecutorBase_cFv
                0x000ada0e                .dwarf.0006.__dt__20dStateExecutorBase_cFv
                0x000ada82                .dwarf.0006.__dt__17dStatePointless_cFv
                0x000adaf3                .dwarf.0006.__dt__28dStateExecutor_c<9dWMShop_c>Fv
                0x000adb6f                .dwarf.0006.__dt__34dStateMethodExecutor_c<9dWMShop_c>Fv
                0x000adbf1                .dwarf.0006.__dt__33dStateExecutor_c<13dWMStarCoin_c>Fv
                0x000adc72                .dwarf.0006.__dt__39dStateMethodExecutor_c<13dWMStarCoin_c>Fv
                0x000adcf9                .dwarf.0006.__dt__36dStateExecutor_c<16dMsgBoxManager_c>Fv
                0x000add7d                .dwarf.0006.__dt__42dStateMethodExecutor_c<16dMsgBoxManager_c>Fv
                0x000ade07                .dwarf.0006.__dt__30dStateExecutor_c<10dSingAlong>Fv
                0x000ade85                .dwarf.0006.__dt__36dStateMethodExecutor_c<10dSingAlong>Fv
                0x000adf09                .dwarf.0006.callEnd__34dStateMethodExecutor_c<9dWMShop_c>Fv
                0x000adf8d                .dwarf.0006.callExecute__34dStateMethodExecutor_c<9dWMShop_c>Fv
                0x000ae019                .dwarf.0006.callBegin__34dStateMethodExecutor_c<9dWMShop_c>Fv
                0x000ae0a1                .dwarf.0006.callEnd__39dStateMethodExecutor_c<13dWMStarCoin_c>Fv
                0x000ae12a                .dwarf.0006.callExecute__39dStateMethodExecutor_c<13dWMStarCoin_c>Fv
                0x000ae1bb                .dwarf.0006.callBegin__39dStateMethodExecutor_c<13dWMStarCoin_c>Fv
                0x000ae248                .dwarf.0006.callEnd__40dStateMethodExecutor_c<14dScKoopatlas_c>Fv
                0x000ae2d2                .dwarf.0006.callExecute__40dStateMethodExecutor_c<14dScKoopatlas_c>Fv
                0x000ae364                .dwarf.0006.callBegin__40dStateMethodExecutor_c<14dScKoopatlas_c>Fv
                0x000ae3f2                .dwarf.0006.callEnd__42dStateMethodExecutor_c<16dMsgBoxManager_c>Fv
                0x000ae47e                .dwarf.0006.callExecute__42dStateMethodExecutor_c<16dMsgBoxManager_c>Fv
                0x000ae512                .dwarf.0006.callBegin__42dStateMethodExecutor_c<16dMsgBoxManager_c>Fv
                0x000ae5a2                .dwarf.0006.callEnd__36dStateMethodExecutor_c<10dSingAlong>Fv
                0x000ae628                .dwarf.0006.callExecute__36dStateMethodExecutor_c<10dSingAlong>Fv
                0x000ae6b6                .dwarf.0006.callBegin__36dStateMethodExecutor_c<10dSingAlong>Fv
                0x000ae740                .dwarf.0006.clearMethodExecutor__28dStateExecutor_c<9dWMShop_c>FPP26dStateMethodExecutorBase_c
                0x000ae801                .dwarf.0006.getMethodExecutorForState__28dStateExecutor_c<9dWMShop_c>FP12dStateBase_c
                0x000ae8e0                .dwarf.0006.clearMethodExecutor__33dStateExecutor_c<13dWMStarCoin_c>FPP26dStateMethodExecutorBase_c
                0x000ae9a6                .dwarf.0006.getMethodExecutorForState__33dStateExecutor_c<13dWMStarCoin_c>FP12dStateBase_c
                0x000aea8a                .dwarf.0006.clearMethodExecutor__34dStateExecutor_c<14dScKoopatlas_c>FPP26dStateMethodExecutorBase_c
                0x000aeb51                .dwarf.0006.getMethodExecutorForState__34dStateExecutor_c<14dScKoopatlas_c>FP12dStateBase_c
                0x000aec36                .dwarf.0006.clearMethodExecutor__36dStateExecutor_c<16dMsgBoxManager_c>FPP26dStateMethodExecutorBase_c
                0x000aecff                .dwarf.0006.getMethodExecutorForState__36dStateExecutor_c<16dMsgBoxManager_c>FP12dStateBase_c
                0x000aede6                .dwarf.0006.clearMethodExecutor__30dStateExecutor_c<10dSingAlong>FPP26dStateMethodExecutorBase_c
                0x000aeea9                .dwarf.0006.getMethodExecutorForState__30dStateExecutor_c<10dSingAlong>FP12dStateBase_c
                0x000aef8a                .dwarf.0006.getPreviousState__15dStateMgrBase_cFv
                0x000af016                .dwarf.0006.getNextState__15dStateMgrBase_cFv
                0x000af09a                .dwarf.0006.getCurrentStateMethodExecutor__15dStateMgrBase_cFv
                0x000af140                .dwarf.0006.returnsOne__17dStatePointless_cFv
                0x000af230                .dwarf.0006.returnUnknown__Q23m3d6proc_cFv
                0x000af31c                .dwarf.0006.beforeExecute__16dMsgBoxManager_cFv
                0x000af374                .dwarf.0006.afterExecute__16dMsgBoxManager_cFi
                0x000af3ca                .dwarf.0006.beforeDraw__16dMsgBoxManager_cFv
                0x000af41c                .dwarf.0006.afterDraw__16dMsgBoxManager_cFi
